
========================================================================

** ELF Header Information

    File Name: Objects/BootLoader_Project.axf

    Machine class: ELFCLASS32 (32-bit)
    Data encoding: ELFDATA2LSB (Little endian)
    Header version: EV_CURRENT (Current version)
    Operating System ABI: none
    ABI Version: 0
    File Type: ET_EXEC (Executable) (2)
    Machine: EM_ARM (ARM)

    Image Entry point: 0x080000ed
    Flags: EF_ARM_HASENTRY + EF_ARM_ABI_FLOAT_SOFT (0x05000202)

    ARM ELF revision: 5 (ABI version 2)

    Conforms to Soft float procedure-call standard

    Built with
    Component: ARM Compiler 5.06 update 5 (build 528) Tool: armasm [4d35e1]
    Component: ARM Compiler 5.06 update 5 (build 528) Tool: armlink [4d35e2]

    Header size: 52 bytes (0x34)
    Program header entry size: 32 bytes (0x20)
    Section header entry size: 40 bytes (0x28)

    Program header entries: 1
    Section header entries: 16

    Program header offset: 651832 (0x0009f238)
    Section header offset: 651864 (0x0009f258)

    Section header string table index: 15

========================================================================

** Program header #0 (PT_LOAD) [PF_X + PF_W + PF_R + PF_ARM_ENTRY]
    Size : 22608 bytes (18272 bytes in file)
    Virtual address: 0x08000000 (Alignment 8)


========================================================================

** Section #1 'ER_IROM1' (SHT_PROGBITS) [SHF_ALLOC + SHF_EXECINSTR]
    Size   : 18232 bytes (alignment 4)
    Address: 0x08000000

    $d.realdata
    RESET
    __Vectors
        0x08000000:    20001118    ...     DCD    536875288
        0x08000004:    08000121    !...    DCD    134218017
        0x08000008:    0800294d    M)..    DCD    134228301
        0x0800000c:    08002549    I%..    DCD    134227273
        0x08000010:    08002935    5)..    DCD    134228277
        0x08000014:    080012bd    ....    DCD    134222525
        0x08000018:    08003531    15..    DCD    134231345
        0x0800001c:    00000000    ....    DCD    0
        0x08000020:    00000000    ....    DCD    0
        0x08000024:    00000000    ....    DCD    0
        0x08000028:    00000000    ....    DCD    0
        0x0800002c:    08002f2b    +/..    DCD    134229803
        0x08000030:    08001733    3...    DCD    134223667
        0x08000034:    00000000    ....    DCD    0
        0x08000038:    08002b71    q+..    DCD    134228849
        0x0800003c:    08003151    Q1..    DCD    134230353
        0x08000040:    0800013b    ;...    DCD    134218043
        0x08000044:    0800013b    ;...    DCD    134218043
        0x08000048:    0800013b    ;...    DCD    134218043
        0x0800004c:    0800013b    ;...    DCD    134218043
        0x08000050:    0800013b    ;...    DCD    134218043
        0x08000054:    0800013b    ;...    DCD    134218043
        0x08000058:    08001849    I...    DCD    134223945
        0x0800005c:    0800013b    ;...    DCD    134218043
        0x08000060:    0800013b    ;...    DCD    134218043
        0x08000064:    0800013b    ;...    DCD    134218043
        0x08000068:    0800013b    ;...    DCD    134218043
        0x0800006c:    0800013b    ;...    DCD    134218043
        0x08000070:    0800013b    ;...    DCD    134218043
        0x08000074:    0800013b    ;...    DCD    134218043
        0x08000078:    0800013b    ;...    DCD    134218043
        0x0800007c:    0800013b    ;...    DCD    134218043
        0x08000080:    0800013b    ;...    DCD    134218043
        0x08000084:    0800013b    ;...    DCD    134218043
        0x08000088:    0800013b    ;...    DCD    134218043
        0x0800008c:    0800013b    ;...    DCD    134218043
        0x08000090:    0800013b    ;...    DCD    134218043
        0x08000094:    0800013b    ;...    DCD    134218043
        0x08000098:    0800013b    ;...    DCD    134218043
        0x0800009c:    0800013b    ;...    DCD    134218043
        0x080000a0:    0800013b    ;...    DCD    134218043
        0x080000a4:    0800013b    ;...    DCD    134218043
        0x080000a8:    0800013b    ;...    DCD    134218043
        0x080000ac:    0800013b    ;...    DCD    134218043
        0x080000b0:    0800013b    ;...    DCD    134218043
        0x080000b4:    0800013b    ;...    DCD    134218043
        0x080000b8:    0800013b    ;...    DCD    134218043
        0x080000bc:    0800013b    ;...    DCD    134218043
        0x080000c0:    0800013b    ;...    DCD    134218043
        0x080000c4:    0800013b    ;...    DCD    134218043
        0x080000c8:    0800013b    ;...    DCD    134218043
        0x080000cc:    0800013b    ;...    DCD    134218043
        0x080000d0:    0800013b    ;...    DCD    134218043
        0x080000d4:    0800013b    ;...    DCD    134218043
        0x080000d8:    080031b5    .1..    DCD    134230453
        0x080000dc:    0800013b    ;...    DCD    134218043
        0x080000e0:    0800013b    ;...    DCD    134218043
        0x080000e4:    0800013b    ;...    DCD    134218043
        0x080000e8:    0800013b    ;...    DCD    134218043
    $t
    .ARM.Collect$$$$00000000
    .ARM.Collect$$$$00000001
    __Vectors_End
    __main
    _main_stk
        0x080000ec:    f8dfd00c    ....    LDR      sp,__lit__00000000 ; [0x80000fc] = 0x20001118
    .ARM.Collect$$$$00000004
    _main_scatterload
        0x080000f0:    f000fb58    ..X.    BL       __scatterload ; 0x80007a4
    .ARM.Collect$$$$00000008
    .ARM.Collect$$$$0000000A
    .ARM.Collect$$$$0000000B
    __main_after_scatterload
    _main_clock
    _main_cpp_init
    _main_init
        0x080000f4:    4800        .H      LDR      r0,[pc,#0] ; [0x80000f8] = 0x8004401
        0x080000f6:    4700        .G      BX       r0
    $d
        0x080000f8:    08004401    .D..    DCD    134235137
    .ARM.Collect$$$$00002712
    __lit__00000000
    .ARM.Collect$$$$0000000D
    .ARM.Collect$$$$0000000F
    __rt_final_cpp
    __rt_final_exit
        0x080000fc:    20001118    ...     DCD    536875288
    $t
    .emb_text
    __get_PSP
        0x08000100:    f3ef8009    ....    MRS      r0,PSP
        0x08000104:    4770        pG      BX       lr
    __set_PSP
        0x08000106:    f3808809    ....    MSR      PSP,r0
        0x0800010a:    4770        pG      BX       lr
    __get_MSP
        0x0800010c:    f3ef8008    ....    MRS      r0,MSP
        0x08000110:    4770        pG      BX       lr
    __set_MSP
        0x08000112:    f3808808    ....    MSR      MSP,r0
        0x08000116:    4770        pG      BX       lr
    __REV16
        0x08000118:    ba40        @.      REV16    r0,r0
        0x0800011a:    4770        pG      BX       lr
    __REVSH
        0x0800011c:    bac0        ..      REVSH    r0,r0
        0x0800011e:    4770        pG      BX       lr
    .text
    Reset_Handler
        0x08000120:    4806        .H      LDR      r0,[pc,#24] ; [0x800013c] = 0x8003155
        0x08000122:    4780        .G      BLX      r0
        0x08000124:    4806        .H      LDR      r0,[pc,#24] ; [0x8000140] = 0x80000ed
        0x08000126:    4700        .G      BX       r0
        0x08000128:    e7fe        ..      B        0x8000128 ; Reset_Handler + 8
        0x0800012a:    e7fe        ..      B        0x800012a ; Reset_Handler + 10
        0x0800012c:    e7fe        ..      B        0x800012c ; Reset_Handler + 12
        0x0800012e:    e7fe        ..      B        0x800012e ; Reset_Handler + 14
        0x08000130:    e7fe        ..      B        0x8000130 ; Reset_Handler + 16
        0x08000132:    e7fe        ..      B        0x8000132 ; Reset_Handler + 18
        0x08000134:    e7fe        ..      B        0x8000134 ; Reset_Handler + 20
        0x08000136:    e7fe        ..      B        0x8000136 ; Reset_Handler + 22
        0x08000138:    e7fe        ..      B        0x8000138 ; Reset_Handler + 24
    ADC1_2_IRQHandler
    CAN1_RX1_IRQHandler
    CAN1_SCE_IRQHandler
    DMA1_Channel1_IRQHandler
    DMA1_Channel2_IRQHandler
    DMA1_Channel3_IRQHandler
    DMA1_Channel4_IRQHandler
    DMA1_Channel5_IRQHandler
    DMA1_Channel6_IRQHandler
    DMA1_Channel7_IRQHandler
    EXTI15_10_IRQHandler
    EXTI1_IRQHandler
    EXTI2_IRQHandler
    EXTI3_IRQHandler
    EXTI4_IRQHandler
    EXTI9_5_IRQHandler
    FLASH_IRQHandler
    I2C1_ER_IRQHandler
    I2C1_EV_IRQHandler
    I2C2_ER_IRQHandler
    I2C2_EV_IRQHandler
    PVD_IRQHandler
    RCC_IRQHandler
    RTCAlarm_IRQHandler
    RTC_IRQHandler
    SPI1_IRQHandler
    SPI2_IRQHandler
    TAMPER_IRQHandler
    TIM1_BRK_IRQHandler
    TIM1_CC_IRQHandler
    TIM1_TRG_COM_IRQHandler
    TIM1_UP_IRQHandler
    TIM2_IRQHandler
    TIM3_IRQHandler
    TIM4_IRQHandler
    USART1_IRQHandler
    USART3_IRQHandler
    USBWakeUp_IRQHandler
    USB_HP_CAN1_TX_IRQHandler
    USB_LP_CAN1_RX0_IRQHandler
    WWDG_IRQHandler
        0x0800013a:    e7fe        ..      B        ADC1_2_IRQHandler ; 0x800013a
    $d
        0x0800013c:    08003155    U1..    DCD    134230357
        0x08000140:    080000ed    ....    DCD    134217965
    $t
    .text
    __aeabi_memcpy
    __aeabi_memcpy4
    __aeabi_memcpy8
        0x08000144:    ea400301    @...    ORR      r3,r0,r1
        0x08000148:    079b        ..      LSLS     r3,r3,#30
        0x0800014a:    d003        ..      BEQ      0x8000154 ; __aeabi_memcpy + 16
        0x0800014c:    e009        ..      B        0x8000162 ; __aeabi_memcpy + 30
        0x0800014e:    c908        ..      LDM      r1!,{r3}
        0x08000150:    1f12        ..      SUBS     r2,r2,#4
        0x08000152:    c008        ..      STM      r0!,{r3}
        0x08000154:    2a04        .*      CMP      r2,#4
        0x08000156:    d2fa        ..      BCS      0x800014e ; __aeabi_memcpy + 10
        0x08000158:    e003        ..      B        0x8000162 ; __aeabi_memcpy + 30
        0x0800015a:    f8113b01    ...;    LDRB     r3,[r1],#1
        0x0800015e:    f8003b01    ...;    STRB     r3,[r0],#1
        0x08000162:    1e52        R.      SUBS     r2,r2,#1
        0x08000164:    d2f9        ..      BCS      0x800015a ; __aeabi_memcpy + 22
        0x08000166:    4770        pG      BX       lr
    .text
    __aeabi_memset
    __aeabi_memset4
    __aeabi_memset8
        0x08000168:    b2d2        ..      UXTB     r2,r2
        0x0800016a:    e001        ..      B        0x8000170 ; __aeabi_memset + 8
        0x0800016c:    f8002b01    ...+    STRB     r2,[r0],#1
        0x08000170:    1e49        I.      SUBS     r1,r1,#1
        0x08000172:    d2fb        ..      BCS      0x800016c ; __aeabi_memset + 4
        0x08000174:    4770        pG      BX       lr
    __aeabi_memclr
    __aeabi_memclr4
    __aeabi_memclr8
        0x08000176:    2200        ."      MOVS     r2,#0
        0x08000178:    e7f6        ..      B        __aeabi_memset ; 0x8000168
    _memset$wrapper
        0x0800017a:    b510        ..      PUSH     {r4,lr}
        0x0800017c:    4613        .F      MOV      r3,r2
        0x0800017e:    460a        .F      MOV      r2,r1
        0x08000180:    4604        .F      MOV      r4,r0
        0x08000182:    4619        .F      MOV      r1,r3
        0x08000184:    f7fffff0    ....    BL       __aeabi_memset ; 0x8000168
        0x08000188:    4620         F      MOV      r0,r4
        0x0800018a:    bd10        ..      POP      {r4,pc}
    .text
    strlen
        0x0800018c:    1c42        B.      ADDS     r2,r0,#1
        0x0800018e:    f8101b01    ....    LDRB     r1,[r0],#1
        0x08000192:    2900        .)      CMP      r1,#0
        0x08000194:    d1fb        ..      BNE      0x800018e ; strlen + 2
        0x08000196:    1a80        ..      SUBS     r0,r0,r2
        0x08000198:    4770        pG      BX       lr
        0x0800019a:    0000        ..      MOVS     r0,r0
    .text
    __0sscanf
        0x0800019c:    b40f        ..      PUSH     {r0-r3}
        0x0800019e:    b500        ..      PUSH     {lr}
        0x080001a0:    b08d        ..      SUB      sp,sp,#0x34
        0x080001a2:    a910        ..      ADD      r1,sp,#0x40
        0x080001a4:    9009        ..      STR      r0,[sp,#0x24]
        0x080001a6:    900b        ..      STR      r0,[sp,#0x2c]
        0x080001a8:    9100        ..      STR      r1,[sp,#0]
        0x080001aa:    f04f30ff    O..0    MOV      r0,#0xffffffff
        0x080001ae:    900a        ..      STR      r0,[sp,#0x28]
        0x080001b0:    2000        .       MOVS     r0,#0
        0x080001b2:    900c        ..      STR      r0,[sp,#0x30]
        0x080001b4:    4805        .H      LDR      r0,[pc,#20] ; [0x80001cc] = 0x80003f5
        0x080001b6:    9006        ..      STR      r0,[sp,#0x18]
        0x080001b8:    4805        .H      LDR      r0,[pc,#20] ; [0x80001d0] = 0x8000413
        0x080001ba:    9007        ..      STR      r0,[sp,#0x1c]
        0x080001bc:    466a        jF      MOV      r2,sp
        0x080001be:    a809        ..      ADD      r0,sp,#0x24
        0x080001c0:    990f        ..      LDR      r1,[sp,#0x3c]
        0x080001c2:    f000f909    ....    BL       __vfscanf_char ; 0x80003d8
        0x080001c6:    b00d        ..      ADD      sp,sp,#0x34
        0x080001c8:    f85dfb14    ]...    LDR      pc,[sp],#0x14
    $d
        0x080001cc:    080003f5    ....    DCD    134218741
        0x080001d0:    08000413    ....    DCD    134218771
    $t
    .text
    _scanf_int
        0x080001d4:    e92d5fff    -.._    PUSH     {r0-r12,lr}
        0x080001d8:    461d        .F      MOV      r5,r3
        0x080001da:    f04f3bff    O..;    MOV      r11,#0xffffffff
        0x080001de:    e9d54601    ...F    LDRD     r4,r6,[r5,#4]
        0x080001e2:    4691        .F      MOV      r9,r2
        0x080001e4:    465f        _F      MOV      r7,r11
        0x080001e6:    f04f0800    O...    MOV      r8,#0
        0x080001ea:    69a9        .i      LDR      r1,[r5,#0x18]
        0x080001ec:    1c7f        ..      ADDS     r7,r7,#1
        0x080001ee:    9801        ..      LDR      r0,[sp,#4]
        0x080001f0:    4788        .G      BLX      r1
        0x080001f2:    6a29        )j      LDR      r1,[r5,#0x20]
        0x080001f4:    4682        .F      MOV      r10,r0
        0x080001f6:    4788        .G      BLX      r1
        0x080001f8:    2800        .(      CMP      r0,#0
        0x080001fa:    d1f6        ..      BNE      0x80001ea ; _scanf_int + 22
        0x080001fc:    f1ba3fff    ...?    CMP      r10,#0xffffffff
        0x08000200:    d00c        ..      BEQ      0x800021c ; _scanf_int + 72
        0x08000202:    f42464c0    $..d    BIC      r4,r4,#0x600
        0x08000206:    2e00        ..      CMP      r6,#0
        0x08000208:    dd19        ..      BLE      0x800023e ; _scanf_int + 106
        0x0800020a:    0660        `.      LSLS     r0,r4,#25
        0x0800020c:    d514        ..      BPL      0x8000238 ; _scanf_int + 100
        0x0800020e:    f1ba0f2b    ..+.    CMP      r10,#0x2b
        0x08000212:    d009        ..      BEQ      0x8000228 ; _scanf_int + 84
        0x08000214:    f1ba0f2d    ..-.    CMP      r10,#0x2d
        0x08000218:    d10e        ..      BNE      0x8000238 ; _scanf_int + 100
        0x0800021a:    e003        ..      B        0x8000224 ; _scanf_int + 80
        0x0800021c:    4658        XF      MOV      r0,r11
        0x0800021e:    b004        ..      ADD      sp,sp,#0x10
        0x08000220:    e8bd9ff0    ....    POP      {r4-r12,pc}
        0x08000224:    f4446480    D..d    ORR      r4,r4,#0x400
        0x08000228:    69a9        .i      LDR      r1,[r5,#0x18]
        0x0800022a:    1c7f        ..      ADDS     r7,r7,#1
        0x0800022c:    9801        ..      LDR      r0,[sp,#4]
        0x0800022e:    4788        .G      BLX      r1
        0x08000230:    1e76        v.      SUBS     r6,r6,#1
        0x08000232:    4682        .F      MOV      r10,r0
        0x08000234:    2e00        ..      CMP      r6,#0
        0x08000236:    dd02        ..      BLE      0x800023e ; _scanf_int + 106
        0x08000238:    f1ba0f30    ..0.    CMP      r10,#0x30
        0x0800023c:    d003        ..      BEQ      0x8000246 ; _scanf_int + 114
        0x0800023e:    f1b90f00    ....    CMP      r9,#0
        0x08000242:    d026        &.      BEQ      0x8000292 ; _scanf_int + 190
        0x08000244:    e032        2.      B        0x80002ac ; _scanf_int + 216
        0x08000246:    69a9        .i      LDR      r1,[r5,#0x18]
        0x08000248:    1e76        v.      SUBS     r6,r6,#1
        0x0800024a:    f4447400    D..t    ORR      r4,r4,#0x200
        0x0800024e:    1c7f        ..      ADDS     r7,r7,#1
        0x08000250:    9801        ..      LDR      r0,[sp,#4]
        0x08000252:    4788        .G      BLX      r1
        0x08000254:    4682        .F      MOV      r10,r0
        0x08000256:    2e00        ..      CMP      r6,#0
        0x08000258:    dd05        ..      BLE      0x8000266 ; _scanf_int + 146
        0x0800025a:    f1ba0f78    ..x.    CMP      r10,#0x78
        0x0800025e:    d006        ..      BEQ      0x800026e ; _scanf_int + 154
        0x08000260:    f1ba0f58    ..X.    CMP      r10,#0x58
        0x08000264:    d003        ..      BEQ      0x800026e ; _scanf_int + 154
        0x08000266:    f1b90f00    ....    CMP      r9,#0
        0x0800026a:    d010        ..      BEQ      0x800028e ; _scanf_int + 186
        0x0800026c:    e01e        ..      B        0x80002ac ; _scanf_int + 216
        0x0800026e:    f1b90f00    ....    CMP      r9,#0
        0x08000272:    d002        ..      BEQ      0x800027a ; _scanf_int + 166
        0x08000274:    f1b90f10    ....    CMP      r9,#0x10
        0x08000278:    d118        ..      BNE      0x80002ac ; _scanf_int + 216
        0x0800027a:    69a9        .i      LDR      r1,[r5,#0x18]
        0x0800027c:    1e76        v.      SUBS     r6,r6,#1
        0x0800027e:    f4247400    $..t    BIC      r4,r4,#0x200
        0x08000282:    1c7f        ..      ADDS     r7,r7,#1
        0x08000284:    9801        ..      LDR      r0,[sp,#4]
        0x08000286:    4788        .G      BLX      r1
        0x08000288:    4682        .F      MOV      r10,r0
        0x0800028a:    2010        .       MOVS     r0,#0x10
        0x0800028c:    e002        ..      B        0x8000294 ; _scanf_int + 192
        0x0800028e:    2008        .       MOVS     r0,#8
        0x08000290:    e000        ..      B        0x8000294 ; _scanf_int + 192
        0x08000292:    200a        .       MOVS     r0,#0xa
        0x08000294:    4681        .F      MOV      r9,r0
        0x08000296:    e009        ..      B        0x80002ac ; _scanf_int + 216
        0x08000298:    fb080809    ....    MLA      r8,r8,r9,r0
        0x0800029c:    69a9        .i      LDR      r1,[r5,#0x18]
        0x0800029e:    1e76        v.      SUBS     r6,r6,#1
        0x080002a0:    f4447400    D..t    ORR      r4,r4,#0x200
        0x080002a4:    1c7f        ..      ADDS     r7,r7,#1
        0x080002a6:    9801        ..      LDR      r0,[sp,#4]
        0x080002a8:    4788        .G      BLX      r1
        0x080002aa:    4682        .F      MOV      r10,r0
        0x080002ac:    2e00        ..      CMP      r6,#0
        0x080002ae:    dd05        ..      BLE      0x80002bc ; _scanf_int + 232
        0x080002b0:    4649        IF      MOV      r1,r9
        0x080002b2:    4650        PF      MOV      r0,r10
        0x080002b4:    f000f87b    ..{.    BL       _chval ; 0x80003ae
        0x080002b8:    2800        .(      CMP      r0,#0
        0x080002ba:    daed        ..      BGE      0x8000298 ; _scanf_int + 196
        0x080002bc:    69e9        .i      LDR      r1,[r5,#0x1c]
        0x080002be:    9801        ..      LDR      r0,[sp,#4]
        0x080002c0:    4788        .G      BLX      r1
        0x080002c2:    05a0        ..      LSLS     r0,r4,#22
        0x080002c4:    d402        ..      BMI      0x80002cc ; _scanf_int + 248
        0x080002c6:    f06f0001    o...    MVN      r0,#1
        0x080002ca:    e7a8        ..      B        0x800021e ; _scanf_int + 74
        0x080002cc:    07e0        ..      LSLS     r0,r4,#31
        0x080002ce:    d125        %.      BNE      0x800031c ; _scanf_int + 328
        0x080002d0:    0660        `.      LSLS     r0,r4,#25
        0x080002d2:    d513        ..      BPL      0x80002fc ; _scanf_int + 296
        0x080002d4:    0560        `.      LSLS     r0,r4,#21
        0x080002d6:    d502        ..      BPL      0x80002de ; _scanf_int + 266
        0x080002d8:    f1c80000    ....    RSB      r0,r8,#0
        0x080002dc:    e000        ..      B        0x80002e0 ; _scanf_int + 268
        0x080002de:    4640        @F      MOV      r0,r8
        0x080002e0:    6829        )h      LDR      r1,[r5,#0]
        0x080002e2:    1d0a        ..      ADDS     r2,r1,#4
        0x080002e4:    602a        *`      STR      r2,[r5,#0]
        0x080002e6:    6809        .h      LDR      r1,[r1,#0]
        0x080002e8:    0522        ".      LSLS     r2,r4,#20
        0x080002ea:    d501        ..      BPL      0x80002f0 ; _scanf_int + 284
        0x080002ec:    7008        .p      STRB     r0,[r1,#0]
        0x080002ee:    e015        ..      B        0x800031c ; _scanf_int + 328
        0x080002f0:    0722        ".      LSLS     r2,r4,#28
        0x080002f2:    d501        ..      BPL      0x80002f8 ; _scanf_int + 292
        0x080002f4:    8008        ..      STRH     r0,[r1,#0]
        0x080002f6:    e011        ..      B        0x800031c ; _scanf_int + 328
        0x080002f8:    6008        .`      STR      r0,[r1,#0]
        0x080002fa:    e00f        ..      B        0x800031c ; _scanf_int + 328
        0x080002fc:    6828        (h      LDR      r0,[r5,#0]
        0x080002fe:    1d01        ..      ADDS     r1,r0,#4
        0x08000300:    6029        )`      STR      r1,[r5,#0]
        0x08000302:    6800        .h      LDR      r0,[r0,#0]
        0x08000304:    0521        !.      LSLS     r1,r4,#20
        0x08000306:    d502        ..      BPL      0x800030e ; _scanf_int + 314
        0x08000308:    f8808000    ....    STRB     r8,[r0,#0]
        0x0800030c:    e006        ..      B        0x800031c ; _scanf_int + 328
        0x0800030e:    0721        !.      LSLS     r1,r4,#28
        0x08000310:    d502        ..      BPL      0x8000318 ; _scanf_int + 324
        0x08000312:    f8a08000    ....    STRH     r8,[r0,#0]
        0x08000316:    e001        ..      B        0x800031c ; _scanf_int + 328
        0x08000318:    f8c08000    ....    STR      r8,[r0,#0]
        0x0800031c:    4638        8F      MOV      r0,r7
        0x0800031e:    e77e        ~.      B        0x800021e ; _scanf_int + 74
    .text
    __aeabi_uidiv
    __aeabi_uidivmod
        0x08000320:    b530        0.      PUSH     {r4,r5,lr}
        0x08000322:    460b        .F      MOV      r3,r1
        0x08000324:    4601        .F      MOV      r1,r0
        0x08000326:    2000        .       MOVS     r0,#0
        0x08000328:    2220         "      MOVS     r2,#0x20
        0x0800032a:    2401        .$      MOVS     r4,#1
        0x0800032c:    e009        ..      B        0x8000342 ; __aeabi_uidiv + 34
        0x0800032e:    fa21f502    !...    LSR      r5,r1,r2
        0x08000332:    429d        .B      CMP      r5,r3
        0x08000334:    d305        ..      BCC      0x8000342 ; __aeabi_uidiv + 34
        0x08000336:    fa03f502    ....    LSL      r5,r3,r2
        0x0800033a:    1b49        I.      SUBS     r1,r1,r5
        0x0800033c:    fa04f502    ....    LSL      r5,r4,r2
        0x08000340:    4428        (D      ADD      r0,r0,r5
        0x08000342:    1e15        ..      SUBS     r5,r2,#0
        0x08000344:    f1a20201    ....    SUB      r2,r2,#1
        0x08000348:    dcf1        ..      BGT      0x800032e ; __aeabi_uidiv + 14
        0x0800034a:    bd30        0.      POP      {r4,r5,pc}
    .text
    __aeabi_uldivmod
        0x0800034c:    e92d5ff0    -.._    PUSH     {r4-r12,lr}
        0x08000350:    4605        .F      MOV      r5,r0
        0x08000352:    2000        .       MOVS     r0,#0
        0x08000354:    4692        .F      MOV      r10,r2
        0x08000356:    469b        .F      MOV      r11,r3
        0x08000358:    4688        .F      MOV      r8,r1
        0x0800035a:    4606        .F      MOV      r6,r0
        0x0800035c:    4681        .F      MOV      r9,r0
        0x0800035e:    2440        @$      MOVS     r4,#0x40
        0x08000360:    e01b        ..      B        0x800039a ; __aeabi_uldivmod + 78
        0x08000362:    4628        (F      MOV      r0,r5
        0x08000364:    4641        AF      MOV      r1,r8
        0x08000366:    4647        GF      MOV      r7,r8
        0x08000368:    4622        "F      MOV      r2,r4
        0x0800036a:    f000fa3c    ..<.    BL       __aeabi_llsr ; 0x80007e6
        0x0800036e:    4653        SF      MOV      r3,r10
        0x08000370:    465a        ZF      MOV      r2,r11
        0x08000372:    1ac0        ..      SUBS     r0,r0,r3
        0x08000374:    4191        .A      SBCS     r1,r1,r2
        0x08000376:    d310        ..      BCC      0x800039a ; __aeabi_uldivmod + 78
        0x08000378:    4611        .F      MOV      r1,r2
        0x0800037a:    4618        .F      MOV      r0,r3
        0x0800037c:    4622        "F      MOV      r2,r4
        0x0800037e:    f000fa23    ..#.    BL       __aeabi_llsl ; 0x80007c8
        0x08000382:    1a2d        -.      SUBS     r5,r5,r0
        0x08000384:    eb670801    g...    SBC      r8,r7,r1
        0x08000388:    464f        OF      MOV      r7,r9
        0x0800038a:    4622        "F      MOV      r2,r4
        0x0800038c:    2001        .       MOVS     r0,#1
        0x0800038e:    2100        .!      MOVS     r1,#0
        0x08000390:    f000fa1a    ....    BL       __aeabi_llsl ; 0x80007c8
        0x08000394:    eb170900    ....    ADDS     r9,r7,r0
        0x08000398:    414e        NA      ADCS     r6,r6,r1
        0x0800039a:    1e20         .      SUBS     r0,r4,#0
        0x0800039c:    f1a40401    ....    SUB      r4,r4,#1
        0x080003a0:    dcdf        ..      BGT      0x8000362 ; __aeabi_uldivmod + 22
        0x080003a2:    4648        HF      MOV      r0,r9
        0x080003a4:    4631        1F      MOV      r1,r6
        0x080003a6:    462a        *F      MOV      r2,r5
        0x080003a8:    4643        CF      MOV      r3,r8
        0x080003aa:    e8bd9ff0    ....    POP      {r4-r12,pc}
    .text
    _chval
        0x080003ae:    283a        :(      CMP      r0,#0x3a
        0x080003b0:    d200        ..      BCS      0x80003b4 ; _chval + 6
        0x080003b2:    3830        08      SUBS     r0,r0,#0x30
        0x080003b4:    f0200220     . .    BIC      r2,r0,#0x20
        0x080003b8:    2a41        A*      CMP      r2,#0x41
        0x080003ba:    d301        ..      BCC      0x80003c0 ; _chval + 18
        0x080003bc:    f1a20037    ..7.    SUB      r0,r2,#0x37
        0x080003c0:    4288        .B      CMP      r0,r1
        0x080003c2:    d301        ..      BCC      0x80003c8 ; _chval + 26
        0x080003c4:    f04f30ff    O..0    MOV      r0,#0xffffffff
        0x080003c8:    4770        pG      BX       lr
        0x080003ca:    0000        ..      MOVS     r0,r0
    .text
    _scanf_char_input
        0x080003cc:    6802        .h      LDR      r2,[r0,#0]
        0x080003ce:    4411        .D      ADD      r1,r1,r2
        0x080003d0:    7813        .x      LDRB     r3,[r2,#0]
        0x080003d2:    6001        .`      STR      r1,[r0,#0]
        0x080003d4:    4618        .F      MOV      r0,r3
        0x080003d6:    4770        pG      BX       lr
    __vfscanf_char
        0x080003d8:    60d1        .`      STR      r1,[r2,#0xc]
        0x080003da:    4904        .I      LDR      r1,[pc,#16] ; [0x80003ec] = 0x80003cd
        0x080003dc:    6151        Qa      STR      r1,[r2,#0x14]
        0x080003de:    4904        .I      LDR      r1,[pc,#16] ; [0x80003f0] = 0x800082b
        0x080003e0:    6211        .b      STR      r1,[r2,#0x20]
        0x080003e2:    2100        .!      MOVS     r1,#0
        0x080003e4:    6111        .a      STR      r1,[r2,#0x10]
        0x080003e6:    4611        .F      MOV      r1,r2
        0x080003e8:    f000ba24    ..$.    B.W      __vfscanf ; 0x8000834
    $d
        0x080003ec:    080003cd    ....    DCD    134218701
        0x080003f0:    0800082b    +...    DCD    134219819
    $t
    .text
    _sgetc
        0x080003f4:    6842        Bh      LDR      r2,[r0,#4]
        0x080003f6:    b142        B.      CBZ      r2,0x800040a ; _sgetc + 22
        0x080003f8:    6801        .h      LDR      r1,[r0,#0]
        0x080003fa:    f8113b01    ...;    LDRB     r3,[r1],#1
        0x080003fe:    b123        #.      CBZ      r3,0x800040a ; _sgetc + 22
        0x08000400:    1e52        R.      SUBS     r2,r2,#1
        0x08000402:    e9c01200    ....    STRD     r1,r2,[r0,#0]
        0x08000406:    4618        .F      MOV      r0,r3
        0x08000408:    4770        pG      BX       lr
        0x0800040a:    2101        .!      MOVS     r1,#1
        0x0800040c:    60c1        .`      STR      r1,[r0,#0xc]
        0x0800040e:    1e88        ..      SUBS     r0,r1,#2
        0x08000410:    4770        pG      BX       lr
    _sbackspace
        0x08000412:    6842        Bh      LDR      r2,[r0,#4]
        0x08000414:    b15a        Z.      CBZ      r2,0x800042e ; _sbackspace + 28
        0x08000416:    68c3        .h      LDR      r3,[r0,#0xc]
        0x08000418:    6801        .h      LDR      r1,[r0,#0]
        0x0800041a:    b943        C.      CBNZ     r3,0x800042e ; _sbackspace + 28
        0x0800041c:    6883        .h      LDR      r3,[r0,#8]
        0x0800041e:    428b        .B      CMP      r3,r1
        0x08000420:    d005        ..      BEQ      0x800042e ; _sbackspace + 28
        0x08000422:    1e49        I.      SUBS     r1,r1,#1
        0x08000424:    1c52        R.      ADDS     r2,r2,#1
        0x08000426:    e9c01200    ....    STRD     r1,r2,[r0,#0]
        0x0800042a:    2000        .       MOVS     r0,#0
        0x0800042c:    4770        pG      BX       lr
        0x0800042e:    f04f30ff    O..0    MOV      r0,#0xffffffff
        0x08000432:    4770        pG      BX       lr
    .text
    .text
    __I$use$fp
    __aeabi_dadd
        0x08000434:    e92d4ffe    -..O    PUSH     {r1-r11,lr}
        0x08000438:    4680        .F      MOV      r8,r0
        0x0800043a:    ea810003    ....    EOR      r0,r1,r3
        0x0800043e:    0fc0        ..      LSRS     r0,r0,#31
        0x08000440:    460c        .F      MOV      r4,r1
        0x08000442:    9000        ..      STR      r0,[sp,#0]
        0x08000444:    f0214100    !..A    BIC      r1,r1,#0x80000000
        0x08000448:    f0234500    #..E    BIC      r5,r3,#0x80000000
        0x0800044c:    ebb80002    ....    SUBS     r0,r8,r2
        0x08000450:    41a9        .A      SBCS     r1,r1,r5
        0x08000452:    d205        ..      BCS      0x8000460 ; __I$use$fp + 44
        0x08000454:    4640        @F      MOV      r0,r8
        0x08000456:    4621        !F      MOV      r1,r4
        0x08000458:    4690        .F      MOV      r8,r2
        0x0800045a:    461c        .F      MOV      r4,r3
        0x0800045c:    460b        .F      MOV      r3,r1
        0x0800045e:    4602        .F      MOV      r2,r0
        0x08000460:    f0234000    #..@    BIC      r0,r3,#0x80000000
        0x08000464:    4310        .C      ORRS     r0,r0,r2
        0x08000466:    d047        G.      BEQ      0x80004f8 ; __I$use$fp + 196
        0x08000468:    0d27        '.      LSRS     r7,r4,#20
        0x0800046a:    f3c7000a    ....    UBFX     r0,r7,#0,#11
        0x0800046e:    f3c3510a    ...Q    UBFX     r1,r3,#20,#11
        0x08000472:    9002        ..      STR      r0,[sp,#8]
        0x08000474:    1a40        @.      SUBS     r0,r0,r1
        0x08000476:    9001        ..      STR      r0,[sp,#4]
        0x08000478:    2840        @(      CMP      r0,#0x40
        0x0800047a:    da6b        k.      BGE      0x8000554 ; __I$use$fp + 288
        0x0800047c:    f3c30013    ....    UBFX     r0,r3,#0,#20
        0x08000480:    f4401b80    @...    ORR      r11,r0,#0x100000
        0x08000484:    9800        ..      LDR      r0,[sp,#0]
        0x08000486:    4692        .F      MOV      r10,r2
        0x08000488:    b120         .      CBZ      r0,0x8000494 ; __I$use$fp + 96
        0x0800048a:    2300        .#      MOVS     r3,#0
        0x0800048c:    ebd20a03    ....    RSBS     r10,r2,r3
        0x08000490:    eb630b0b    c...    SBC      r11,r3,r11
        0x08000494:    9801        ..      LDR      r0,[sp,#4]
        0x08000496:    4659        YF      MOV      r1,r11
        0x08000498:    f1c00240    ..@.    RSB      r2,r0,#0x40
        0x0800049c:    4650        PF      MOV      r0,r10
        0x0800049e:    f000f993    ....    BL       __aeabi_llsl ; 0x80007c8
        0x080004a2:    4606        .F      MOV      r6,r0
        0x080004a4:    460d        .F      MOV      r5,r1
        0x080004a6:    4650        PF      MOV      r0,r10
        0x080004a8:    4659        YF      MOV      r1,r11
        0x080004aa:    9a01        ..      LDR      r2,[sp,#4]
        0x080004ac:    f000f9ab    ....    BL       __aeabi_lasr ; 0x8000806
        0x080004b0:    eb100008    ....    ADDS     r0,r0,r8
        0x080004b4:    4161        aA      ADCS     r1,r1,r4
        0x080004b6:    2400        .$      MOVS     r4,#0
        0x080004b8:    ea875211    ...R    EOR      r2,r7,r1,LSR #20
        0x080004bc:    ea8473e7    ...s    EOR      r3,r4,r7,ASR #31
        0x080004c0:    431a        .C      ORRS     r2,r2,r3
        0x080004c2:    d040        @.      BEQ      0x8000546 ; __I$use$fp + 274
        0x080004c4:    9a00        ..      LDR      r2,[sp,#0]
        0x080004c6:    b362        b.      CBZ      r2,0x8000522 ; __I$use$fp + 238
        0x080004c8:    9a01        ..      LDR      r2,[sp,#4]
        0x080004ca:    2a01        .*      CMP      r2,#1
        0x080004cc:    ea4f5207    O..R    LSL      r2,r7,#20
        0x080004d0:    dc15        ..      BGT      0x80004fe ; __I$use$fp + 202
        0x080004d2:    1b00        ..      SUBS     r0,r0,r4
        0x080004d4:    eb610102    a...    SBC      r1,r1,r2
        0x080004d8:    f04f4200    O..B    MOV      r2,#0x80000000
        0x080004dc:    ea025207    ...R    AND      r2,r2,r7,LSL #20
        0x080004e0:    e9cd4200    ...B    STRD     r4,r2,[sp,#0]
        0x080004e4:    1c00        ..      ADDS     r0,r0,#0
        0x080004e6:    f5411180    A...    ADC      r1,r1,#0x100000
        0x080004ea:    4632        2F      MOV      r2,r6
        0x080004ec:    462b        +F      MOV      r3,r5
        0x080004ee:    f000fb46    ..F.    BL       _double_epilogue ; 0x8000b7e
        0x080004f2:    b003        ..      ADD      sp,sp,#0xc
        0x080004f4:    e8bd8ff0    ....    POP      {r4-r11,pc}
        0x080004f8:    4640        @F      MOV      r0,r8
        0x080004fa:    4621        !F      MOV      r1,r4
        0x080004fc:    e7f9        ..      B        0x80004f2 ; __I$use$fp + 190
        0x080004fe:    1b00        ..      SUBS     r0,r0,r4
        0x08000500:    eb610102    a...    SBC      r1,r1,r2
        0x08000504:    1c00        ..      ADDS     r0,r0,#0
        0x08000506:    f5411380    A...    ADC      r3,r1,#0x100000
        0x0800050a:    1800        ..      ADDS     r0,r0,r0
        0x0800050c:    415b        [A      ADCS     r3,r3,r3
        0x0800050e:    1820         .      ADDS     r0,r4,r0
        0x08000510:    f5a21700    ....    SUB      r7,r2,#0x200000
        0x08000514:    eb470103    G...    ADC      r1,r7,r3
        0x08000518:    ea4070d5    @..p    ORR      r0,r0,r5,LSR #31
        0x0800051c:    19b6        ..      ADDS     r6,r6,r6
        0x0800051e:    416d        mA      ADCS     r5,r5,r5
        0x08000520:    e011        ..      B        0x8000546 ; __I$use$fp + 274
        0x08000522:    086d        m.      LSRS     r5,r5,#1
        0x08000524:    ea4f0636    O.6.    RRX      r6,r6
        0x08000528:    ea4575c0    E..u    ORR      r5,r5,r0,LSL #31
        0x0800052c:    ea4f5207    O..R    LSL      r2,r7,#20
        0x08000530:    1b00        ..      SUBS     r0,r0,r4
        0x08000532:    eb610102    a...    SBC      r1,r1,r2
        0x08000536:    1c00        ..      ADDS     r0,r0,#0
        0x08000538:    f5411180    A...    ADC      r1,r1,#0x100000
        0x0800053c:    0849        I.      LSRS     r1,r1,#1
        0x0800053e:    ea4f0030    O.0.    RRX      r0,r0
        0x08000542:    1900        ..      ADDS     r0,r0,r4
        0x08000544:    4151        QA      ADCS     r1,r1,r2
        0x08000546:    4632        2F      MOV      r2,r6
        0x08000548:    462b        +F      MOV      r3,r5
        0x0800054a:    b003        ..      ADD      sp,sp,#0xc
        0x0800054c:    e8bd4ff0    ...O    POP      {r4-r11,lr}
        0x08000550:    f000bb06    ....    B.W      _double_round ; 0x8000b60
        0x08000554:    9800        ..      LDR      r0,[sp,#0]
        0x08000556:    2201        ."      MOVS     r2,#1
        0x08000558:    0040        @.      LSLS     r0,r0,#1
        0x0800055a:    2300        .#      MOVS     r3,#0
        0x0800055c:    ebd00202    ....    RSBS     r2,r0,r2
        0x08000560:    eb6373e0    c..s    SBC      r3,r3,r0,ASR #31
        0x08000564:    9800        ..      LDR      r0,[sp,#0]
        0x08000566:    4621        !F      MOV      r1,r4
        0x08000568:    ea4f74e0    O..t    ASR      r4,r0,#31
        0x0800056c:    ebb80000    ....    SUBS     r0,r8,r0
        0x08000570:    eb610104    a...    SBC      r1,r1,r4
        0x08000574:    e7e9        ..      B        0x800054a ; __I$use$fp + 278
    __aeabi_dsub
        0x08000576:    f0834300    ...C    EOR      r3,r3,#0x80000000
        0x0800057a:    e75b        [.      B        __I$use$fp ; 0x8000434
    __aeabi_drsub
        0x0800057c:    f0814100    ...A    EOR      r1,r1,#0x80000000
        0x08000580:    e758        X.      B        __I$use$fp ; 0x8000434
    .text
    __aeabi_dmul
        0x08000582:    e92d4ffe    -..O    PUSH     {r1-r11,lr}
        0x08000586:    ea810403    ....    EOR      r4,r1,r3
        0x0800058a:    f0044400    ...D    AND      r4,r4,#0x80000000
        0x0800058e:    f0214100    !..A    BIC      r1,r1,#0x80000000
        0x08000592:    9400        ..      STR      r4,[sp,#0]
        0x08000594:    f04f0b00    O...    MOV      r11,#0
        0x08000598:    f0234300    #..C    BIC      r3,r3,#0x80000000
        0x0800059c:    ea500401    P...    ORRS     r4,r0,r1
        0x080005a0:    d05e        ^.      BEQ      0x8000660 ; __aeabi_dmul + 222
        0x080005a2:    ea520403    R...    ORRS     r4,r2,r3
        0x080005a6:    d05b        [.      BEQ      0x8000660 ; __aeabi_dmul + 222
        0x080005a8:    f3c3540a    ...T    UBFX     r4,r3,#20,#11
        0x080005ac:    f3c1550a    ...U    UBFX     r5,r1,#20,#11
        0x080005b0:    442c        ,D      ADD      r4,r4,r5
        0x080005b2:    f2a434f3    ...4    SUB      r4,r4,#0x3f3
        0x080005b6:    9401        ..      STR      r4,[sp,#4]
        0x080005b8:    fba05402    ...T    UMULL    r5,r4,r0,r2
        0x080005bc:    f3c10113    ....    UBFX     r1,r1,#0,#20
        0x080005c0:    f4411180    A...    ORR      r1,r1,#0x100000
        0x080005c4:    f3c30313    ....    UBFX     r3,r3,#0,#20
        0x080005c8:    f4431380    C...    ORR      r3,r3,#0x100000
        0x080005cc:    fb014402    ...D    MLA      r4,r1,r2,r4
        0x080005d0:    fb004e03    ...N    MLA      lr,r0,r3,r4
        0x080005d4:    0a84        ..      LSRS     r4,r0,#10
        0x080005d6:    0a97        ..      LSRS     r7,r2,#10
        0x080005d8:    ea445481    D..T    ORR      r4,r4,r1,LSL #22
        0x080005dc:    ea475783    G..W    ORR      r7,r7,r3,LSL #22
        0x080005e0:    fba46807    ...h    UMULL    r6,r8,r4,r7
        0x080005e4:    9502        ..      STR      r5,[sp,#8]
        0x080005e6:    0a8d        ..      LSRS     r5,r1,#10
        0x080005e8:    fb058507    ....    MLA      r5,r5,r7,r8
        0x080005ec:    ea4f2c93    O..,    LSR      r12,r3,#10
        0x080005f0:    fb04540c    ...T    MLA      r4,r4,r12,r5
        0x080005f4:    0527        '.      LSLS     r7,r4,#20
        0x080005f6:    9d02        ..      LDR      r5,[sp,#8]
        0x080005f8:    ea4f5806    O..X    LSL      r8,r6,#20
        0x080005fc:    ea473716    G..7    ORR      r7,r7,r6,LSR #12
        0x08000600:    ebb50508    ....    SUBS     r5,r5,r8
        0x08000604:    eb6e0c07    n...    SBC      r12,lr,r7
        0x08000608:    0e87        ..      LSRS     r7,r0,#26
        0x0800060a:    0e92        ..      LSRS     r2,r2,#26
        0x0800060c:    ea471781    G...    ORR      r7,r7,r1,LSL #6
        0x08000610:    ea421283    B...    ORR      r2,r2,r3,LSL #6
        0x08000614:    fba70102    ....    UMULL    r0,r1,r7,r2
        0x08000618:    ebb6010b    ....    SUBS     r1,r6,r11
        0x0800061c:    eb640400    d...    SBC      r4,r4,r0
        0x08000620:    0d2b        +.      LSRS     r3,r5,#20
        0x08000622:    ea43330c    C..3    ORR      r3,r3,r12,LSL #12
        0x08000626:    185e        ^.      ADDS     r6,r3,r1
        0x08000628:    eb44501c    D..P    ADC      r0,r4,r12,LSR #20
        0x0800062c:    46da        .F      MOV      r10,r11
        0x0800062e:    4651        QF      MOV      r1,r10
        0x08000630:    fbe70102    ....    UMLAL    r0,r1,r7,r2
        0x08000634:    f3c50413    ....    UBFX     r4,r5,#0,#20
        0x08000638:    ea4f330b    O..3    LSL      r3,r11,#12
        0x0800063c:    ea435314    C..S    ORR      r3,r3,r4,LSR #20
        0x08000640:    ea4f3204    O..2    LSL      r2,r4,#12
        0x08000644:    9c01        ..      LDR      r4,[sp,#4]
        0x08000646:    ea430306    C...    ORR      r3,r3,r6
        0x0800064a:    f1a4040c    ....    SUB      r4,r4,#0xc
        0x0800064e:    9402        ..      STR      r4,[sp,#8]
        0x08000650:    9c00        ..      LDR      r4,[sp,#0]
        0x08000652:    e9cdb400    ....    STRD     r11,r4,[sp,#0]
        0x08000656:    f000fa92    ....    BL       _double_epilogue ; 0x8000b7e
        0x0800065a:    b003        ..      ADD      sp,sp,#0xc
        0x0800065c:    e8bd8ff0    ....    POP      {r4-r11,pc}
        0x08000660:    2000        .       MOVS     r0,#0
        0x08000662:    4601        .F      MOV      r1,r0
        0x08000664:    e7f9        ..      B        0x800065a ; __aeabi_dmul + 216
    .text
    __aeabi_ddiv
        0x08000666:    e92d4df0    -..M    PUSH     {r4-r8,r10,r11,lr}
        0x0800066a:    ea810403    ....    EOR      r4,r1,r3
        0x0800066e:    f0044b00    ...K    AND      r11,r4,#0x80000000
        0x08000672:    f0214500    !..E    BIC      r5,r1,#0x80000000
        0x08000676:    4614        .F      MOV      r4,r2
        0x08000678:    f04f0a00    O...    MOV      r10,#0
        0x0800067c:    f0234100    #..A    BIC      r1,r3,#0x80000000
        0x08000680:    ea500205    P...    ORRS     r2,r0,r5
        0x08000684:    d020         .      BEQ      0x80006c8 ; __aeabi_ddiv + 98
        0x08000686:    ea540201    T...    ORRS     r2,r4,r1
        0x0800068a:    d01d        ..      BEQ      0x80006c8 ; __aeabi_ddiv + 98
        0x0800068c:    f3c5570a    ...W    UBFX     r7,r5,#20,#11
        0x08000690:    4602        .F      MOV      r2,r0
        0x08000692:    f3c50313    ....    UBFX     r3,r5,#0,#20
        0x08000696:    f3c10013    ....    UBFX     r0,r1,#0,#20
        0x0800069a:    f3c1560a    ...V    UBFX     r6,r1,#20,#11
        0x0800069e:    f4401580    @...    ORR      r5,r0,#0x100000
        0x080006a2:    f4431380    C...    ORR      r3,r3,#0x100000
        0x080006a6:    eba70806    ....    SUB      r8,r7,r6
        0x080006aa:    1b10        ..      SUBS     r0,r2,r4
        0x080006ac:    46d6        .F      MOV      lr,r10
        0x080006ae:    f20838fd    ...8    ADD      r8,r8,#0x3fd
        0x080006b2:    eb730005    s...    SBCS     r0,r3,r5
        0x080006b6:    d302        ..      BCC      0x80006be ; __aeabi_ddiv + 88
        0x080006b8:    f1080801    ....    ADD      r8,r8,#1
        0x080006bc:    e001        ..      B        0x80006c2 ; __aeabi_ddiv + 92
        0x080006be:    1892        ..      ADDS     r2,r2,r2
        0x080006c0:    415b        [A      ADCS     r3,r3,r3
        0x080006c2:    f1b80f00    ....    CMP      r8,#0
        0x080006c6:    da03        ..      BGE      0x80006d0 ; __aeabi_ddiv + 106
        0x080006c8:    2000        .       MOVS     r0,#0
        0x080006ca:    4601        .F      MOV      r1,r0
        0x080006cc:    e8bd8df0    ....    POP      {r4-r8,r10,r11,pc}
        0x080006d0:    2000        .       MOVS     r0,#0
        0x080006d2:    f44f1180    O...    MOV      r1,#0x100000
        0x080006d6:    4606        .F      MOV      r6,r0
        0x080006d8:    4684        .F      MOV      r12,r0
        0x080006da:    e00e        ..      B        0x80006fa ; __aeabi_ddiv + 148
        0x080006dc:    1b17        ..      SUBS     r7,r2,r4
        0x080006de:    eb730705    s...    SBCS     r7,r3,r5
        0x080006e2:    d305        ..      BCC      0x80006f0 ; __aeabi_ddiv + 138
        0x080006e4:    1b12        ..      SUBS     r2,r2,r4
        0x080006e6:    eb630305    c...    SBC      r3,r3,r5
        0x080006ea:    4306        .C      ORRS     r6,r6,r0
        0x080006ec:    ea4c0c01    L...    ORR      r12,r12,r1
        0x080006f0:    0849        I.      LSRS     r1,r1,#1
        0x080006f2:    ea4f0030    O.0.    RRX      r0,r0
        0x080006f6:    1892        ..      ADDS     r2,r2,r2
        0x080006f8:    415b        [A      ADCS     r3,r3,r3
        0x080006fa:    ea500701    P...    ORRS     r7,r0,r1
        0x080006fe:    d1ed        ..      BNE      0x80006dc ; __aeabi_ddiv + 118
        0x08000700:    ea520003    R...    ORRS     r0,r2,r3
        0x08000704:    d012        ..      BEQ      0x800072c ; __aeabi_ddiv + 198
        0x08000706:    ea820004    ....    EOR      r0,r2,r4
        0x0800070a:    ea830105    ....    EOR      r1,r3,r5
        0x0800070e:    4308        .C      ORRS     r0,r0,r1
        0x08000710:    d005        ..      BEQ      0x800071e ; __aeabi_ddiv + 184
        0x08000712:    1b10        ..      SUBS     r0,r2,r4
        0x08000714:    41ab        .A      SBCS     r3,r3,r5
        0x08000716:    d206        ..      BCS      0x8000726 ; __aeabi_ddiv + 192
        0x08000718:    2201        ."      MOVS     r2,#1
        0x0800071a:    2300        .#      MOVS     r3,#0
        0x0800071c:    e006        ..      B        0x800072c ; __aeabi_ddiv + 198
        0x0800071e:    2200        ."      MOVS     r2,#0
        0x08000720:    f04f4300    O..C    MOV      r3,#0x80000000
        0x08000724:    e002        ..      B        0x800072c ; __aeabi_ddiv + 198
        0x08000726:    f06f0201    o...    MVN      r2,#1
        0x0800072a:    1053        S.      ASRS     r3,r2,#1
        0x0800072c:    eb1a0006    ....    ADDS     r0,r10,r6
        0x08000730:    eb4c5108    L..Q    ADC      r1,r12,r8,LSL #20
        0x08000734:    eb10000a    ....    ADDS     r0,r0,r10
        0x08000738:    eb41010b    A...    ADC      r1,r1,r11
        0x0800073c:    e8bd4df0    ...M    POP      {r4-r8,r10,r11,lr}
        0x08000740:    f000ba0e    ....    B.W      _double_round ; 0x8000b60
    .text
    __aeabi_d2ulz
        0x08000744:    f3c1520a    ...R    UBFX     r2,r1,#20,#11
        0x08000748:    f3c10113    ....    UBFX     r1,r1,#0,#20
        0x0800074c:    f24033ff    @..3    MOV      r3,#0x3ff
        0x08000750:    f4411180    A...    ORR      r1,r1,#0x100000
        0x08000754:    429a        .B      CMP      r2,r3
        0x08000756:    da02        ..      BGE      0x800075e ; __aeabi_d2ulz + 26
        0x08000758:    2000        .       MOVS     r0,#0
        0x0800075a:    4601        .F      MOV      r1,r0
        0x0800075c:    4770        pG      BX       lr
        0x0800075e:    f2404333    @.3C    MOV      r3,#0x433
        0x08000762:    429a        .B      CMP      r2,r3
        0x08000764:    f2a24233    ..3B    SUB      r2,r2,#0x433
        0x08000768:    dc02        ..      BGT      0x8000770 ; __aeabi_d2ulz + 44
        0x0800076a:    4252        RB      RSBS     r2,r2,#0
        0x0800076c:    f000b83b    ..;.    B.W      __aeabi_llsr ; 0x80007e6
        0x08000770:    f000b82a    ..*.    B.W      __aeabi_llsl ; 0x80007c8
    .text
    __aeabi_cdrcmple
        0x08000774:    b530        0.      PUSH     {r4,r5,lr}
        0x08000776:    1e04        ..      SUBS     r4,r0,#0
        0x08000778:    f1710400    q...    SBCS     r4,r1,#0
        0x0800077c:    db04        ..      BLT      0x8000788 ; __aeabi_cdrcmple + 20
        0x0800077e:    f04f4400    O..D    MOV      r4,#0x80000000
        0x08000782:    4240        @B      RSBS     r0,r0,#0
        0x08000784:    eb640101    d...    SBC      r1,r4,r1
        0x08000788:    1e14        ..      SUBS     r4,r2,#0
        0x0800078a:    f1730400    s...    SBCS     r4,r3,#0
        0x0800078e:    db05        ..      BLT      0x800079c ; __aeabi_cdrcmple + 40
        0x08000790:    461c        .F      MOV      r4,r3
        0x08000792:    f04f4300    O..C    MOV      r3,#0x80000000
        0x08000796:    4252        RB      RSBS     r2,r2,#0
        0x08000798:    eb630304    c...    SBC      r3,r3,r4
        0x0800079c:    4299        .B      CMP      r1,r3
        0x0800079e:    bf08        ..      IT       EQ
        0x080007a0:    4290        .B      CMPEQ    r0,r2
        0x080007a2:    bd30        0.      POP      {r4,r5,pc}
    .text
    __scatterload
    __scatterload_rt2
        0x080007a4:    4c06        .L      LDR      r4,[pc,#24] ; [0x80007c0] = 0x8004718
        0x080007a6:    4d07        .M      LDR      r5,[pc,#28] ; [0x80007c4] = 0x8004738
        0x080007a8:    e006        ..      B        0x80007b8 ; __scatterload + 20
        0x080007aa:    68e0        .h      LDR      r0,[r4,#0xc]
        0x080007ac:    f0400301    @...    ORR      r3,r0,#1
        0x080007b0:    e8940007    ....    LDM      r4,{r0-r2}
        0x080007b4:    4798        .G      BLX      r3
        0x080007b6:    3410        .4      ADDS     r4,r4,#0x10
        0x080007b8:    42ac        .B      CMP      r4,r5
        0x080007ba:    d3f6        ..      BCC      0x80007aa ; __scatterload + 6
        0x080007bc:    f7fffc9a    ....    BL       __main_after_scatterload ; 0x80000f4
    $d
        0x080007c0:    08004718    .G..    DCD    134235928
        0x080007c4:    08004738    8G..    DCD    134235960
    $t
    .text
    __aeabi_llsl
    _ll_shift_l
        0x080007c8:    2a20         *      CMP      r2,#0x20
        0x080007ca:    db04        ..      BLT      0x80007d6 ; __aeabi_llsl + 14
        0x080007cc:    3a20         :      SUBS     r2,r2,#0x20
        0x080007ce:    fa00f102    ....    LSL      r1,r0,r2
        0x080007d2:    2000        .       MOVS     r0,#0
        0x080007d4:    4770        pG      BX       lr
        0x080007d6:    4091        .@      LSLS     r1,r1,r2
        0x080007d8:    f1c20320    .. .    RSB      r3,r2,#0x20
        0x080007dc:    fa20f303     ...    LSR      r3,r0,r3
        0x080007e0:    4319        .C      ORRS     r1,r1,r3
        0x080007e2:    4090        .@      LSLS     r0,r0,r2
        0x080007e4:    4770        pG      BX       lr
    .text
    __aeabi_llsr
    _ll_ushift_r
        0x080007e6:    2a20         *      CMP      r2,#0x20
        0x080007e8:    db04        ..      BLT      0x80007f4 ; __aeabi_llsr + 14
        0x080007ea:    3a20         :      SUBS     r2,r2,#0x20
        0x080007ec:    fa21f002    !...    LSR      r0,r1,r2
        0x080007f0:    2100        .!      MOVS     r1,#0
        0x080007f2:    4770        pG      BX       lr
        0x080007f4:    fa21f302    !...    LSR      r3,r1,r2
        0x080007f8:    40d0        .@      LSRS     r0,r0,r2
        0x080007fa:    f1c20220    .. .    RSB      r2,r2,#0x20
        0x080007fe:    4091        .@      LSLS     r1,r1,r2
        0x08000800:    4308        .C      ORRS     r0,r0,r1
        0x08000802:    4619        .F      MOV      r1,r3
        0x08000804:    4770        pG      BX       lr
    .text
    __aeabi_lasr
    _ll_sshift_r
        0x08000806:    2a20         *      CMP      r2,#0x20
        0x08000808:    db06        ..      BLT      0x8000818 ; __aeabi_lasr + 18
        0x0800080a:    17cb        ..      ASRS     r3,r1,#31
        0x0800080c:    3a20         :      SUBS     r2,r2,#0x20
        0x0800080e:    fa41f002    A...    ASR      r0,r1,r2
        0x08000812:    ea4373e0    C..s    ORR      r3,r3,r0,ASR #31
        0x08000816:    e006        ..      B        0x8000826 ; __aeabi_lasr + 32
        0x08000818:    fa41f302    A...    ASR      r3,r1,r2
        0x0800081c:    40d0        .@      LSRS     r0,r0,r2
        0x0800081e:    f1c20220    .. .    RSB      r2,r2,#0x20
        0x08000822:    4091        .@      LSLS     r1,r1,r2
        0x08000824:    4308        .C      ORRS     r0,r0,r1
        0x08000826:    4619        .F      MOV      r1,r3
        0x08000828:    4770        pG      BX       lr
    .text
    isspace
        0x0800082a:    b2c0        ..      UXTB     r0,r0
        0x0800082c:    f44f51f0    O..Q    MOV      r1,#0x1e00
        0x08000830:    f000b9f4    ....    B.W      __ctype_lookup ; 0x8000c1c
    .text
    __vfscanf
        0x08000834:    e92d4ff3    -..O    PUSH     {r0,r1,r4-r11,lr}
        0x08000838:    b08b        ..      SUB      sp,sp,#0x2c
        0x0800083a:    f04f0800    O...    MOV      r8,#0
        0x0800083e:    f101000c    ....    ADD      r0,r1,#0xc
        0x08000842:    460c        .F      MOV      r4,r1
        0x08000844:    f04f0b01    O...    MOV      r11,#1
        0x08000848:    4646        FF      MOV      r6,r8
        0x0800084a:    f10d0a08    ....    ADD      r10,sp,#8
        0x0800084e:    9001        ..      STR      r0,[sp,#4]
        0x08000850:    6962        bi      LDR      r2,[r4,#0x14]
        0x08000852:    2101        .!      MOVS     r1,#1
        0x08000854:    9801        ..      LDR      r0,[sp,#4]
        0x08000856:    4790        .G      BLX      r2
        0x08000858:    1e05        ..      SUBS     r5,r0,#0
        0x0800085a:    d02d        -.      BEQ      0x80008b8 ; __vfscanf + 132
        0x0800085c:    2d25        %-      CMP      r5,#0x25
        0x0800085e:    d02c        ,.      BEQ      0x80008ba ; __vfscanf + 134
        0x08000860:    6a21        !j      LDR      r1,[r4,#0x20]
        0x08000862:    4788        .G      BLX      r1
        0x08000864:    b1c0        ..      CBZ      r0,0x8000898 ; __vfscanf + 100
        0x08000866:    6962        bi      LDR      r2,[r4,#0x14]
        0x08000868:    2101        .!      MOVS     r1,#1
        0x0800086a:    9801        ..      LDR      r0,[sp,#4]
        0x0800086c:    4790        .G      BLX      r2
        0x0800086e:    6a21        !j      LDR      r1,[r4,#0x20]
        0x08000870:    4788        .G      BLX      r1
        0x08000872:    2800        .(      CMP      r0,#0
        0x08000874:    d1f7        ..      BNE      0x8000866 ; __vfscanf + 50
        0x08000876:    1e41        A.      SUBS     r1,r0,#1
        0x08000878:    6962        bi      LDR      r2,[r4,#0x14]
        0x0800087a:    9801        ..      LDR      r0,[sp,#4]
        0x0800087c:    4790        .G      BLX      r2
        0x0800087e:    e000        ..      B        0x8000882 ; __vfscanf + 78
        0x08000880:    1c76        v.      ADDS     r6,r6,#1
        0x08000882:    69a1        .i      LDR      r1,[r4,#0x18]
        0x08000884:    980b        ..      LDR      r0,[sp,#0x2c]
        0x08000886:    4788        .G      BLX      r1
        0x08000888:    6a21        !j      LDR      r1,[r4,#0x20]
        0x0800088a:    4788        .G      BLX      r1
        0x0800088c:    2800        .(      CMP      r0,#0
        0x0800088e:    d1f7        ..      BNE      0x8000880 ; __vfscanf + 76
        0x08000890:    69e1        .i      LDR      r1,[r4,#0x1c]
        0x08000892:    980b        ..      LDR      r0,[sp,#0x2c]
        0x08000894:    4788        .G      BLX      r1
        0x08000896:    e7db        ..      B        0x8000850 ; __vfscanf + 28
        0x08000898:    69a1        .i      LDR      r1,[r4,#0x18]
        0x0800089a:    980b        ..      LDR      r0,[sp,#0x2c]
        0x0800089c:    4788        .G      BLX      r1
        0x0800089e:    4607        .F      MOV      r7,r0
        0x080008a0:    42a8        .B      CMP      r0,r5
        0x080008a2:    d101        ..      BNE      0x80008a8 ; __vfscanf + 116
        0x080008a4:    1c76        v.      ADDS     r6,r6,#1
        0x080008a6:    e7d3        ..      B        0x8000850 ; __vfscanf + 28
        0x080008a8:    69e1        .i      LDR      r1,[r4,#0x1c]
        0x080008aa:    980b        ..      LDR      r0,[sp,#0x2c]
        0x080008ac:    4788        .G      BLX      r1
        0x080008ae:    1c7f        ..      ADDS     r7,r7,#1
        0x080008b0:    d102        ..      BNE      0x80008b8 ; __vfscanf + 132
        0x080008b2:    f1b80f00    ....    CMP      r8,#0
        0x080008b6:    d06f        o.      BEQ      0x8000998 ; __vfscanf + 356
        0x080008b8:    e146        F.      B        0x8000b48 ; __vfscanf + 788
        0x080008ba:    2700        .'      MOVS     r7,#0
        0x080008bc:    6962        bi      LDR      r2,[r4,#0x14]
        0x080008be:    463d        =F      MOV      r5,r7
        0x080008c0:    4639        9F      MOV      r1,r7
        0x080008c2:    9801        ..      LDR      r0,[sp,#4]
        0x080008c4:    4790        .G      BLX      r2
        0x080008c6:    282a        *(      CMP      r0,#0x2a
        0x080008c8:    d104        ..      BNE      0x80008d4 ; __vfscanf + 160
        0x080008ca:    6962        bi      LDR      r2,[r4,#0x14]
        0x080008cc:    2101        .!      MOVS     r1,#1
        0x080008ce:    9801        ..      LDR      r0,[sp,#4]
        0x080008d0:    4790        .G      BLX      r2
        0x080008d2:    2501        .%      MOVS     r5,#1
        0x080008d4:    f8df9284    ....    LDR      r9,[pc,#644] ; [0x8000b5c] = 0xccccccc
        0x080008d8:    6962        bi      LDR      r2,[r4,#0x14]
        0x080008da:    2101        .!      MOVS     r1,#1
        0x080008dc:    9801        ..      LDR      r0,[sp,#4]
        0x080008de:    4790        .G      BLX      r2
        0x080008e0:    f1a00130    ..0.    SUB      r1,r0,#0x30
        0x080008e4:    290a        .)      CMP      r1,#0xa
        0x080008e6:    d20a        ..      BCS      0x80008fe ; __vfscanf + 202
        0x080008e8:    454f        OE      CMP      r7,r9
        0x080008ea:    dce5        ..      BGT      0x80008b8 ; __vfscanf + 132
        0x080008ec:    eb070187    ....    ADD      r1,r7,r7,LSL #2
        0x080008f0:    eb000741    ..A.    ADD      r7,r0,r1,LSL #1
        0x080008f4:    3f30        0?      SUBS     r7,r7,#0x30
        0x080008f6:    d4df        ..      BMI      0x80008b8 ; __vfscanf + 132
        0x080008f8:    f0450510    E...    ORR      r5,r5,#0x10
        0x080008fc:    e7ec        ..      B        0x80008d8 ; __vfscanf + 164
        0x080008fe:    06e9        ..      LSLS     r1,r5,#27
        0x08000900:    d401        ..      BMI      0x8000906 ; __vfscanf + 210
        0x08000902:    f06f4700    o..G    MVN      r7,#0x80000000
        0x08000906:    286c        l(      CMP      r0,#0x6c
        0x08000908:    d00a        ..      BEQ      0x8000920 ; __vfscanf + 236
        0x0800090a:    284c        L(      CMP      r0,#0x4c
        0x0800090c:    d014        ..      BEQ      0x8000938 ; __vfscanf + 260
        0x0800090e:    2868        h(      CMP      r0,#0x68
        0x08000910:    d015        ..      BEQ      0x800093e ; __vfscanf + 266
        0x08000912:    286a        j(      CMP      r0,#0x6a
        0x08000914:    d00d        ..      BEQ      0x8000932 ; __vfscanf + 254
        0x08000916:    2874        t(      CMP      r0,#0x74
        0x08000918:    d01c        ..      BEQ      0x8000954 ; __vfscanf + 288
        0x0800091a:    287a        z(      CMP      r0,#0x7a
        0x0800091c:    d01a        ..      BEQ      0x8000954 ; __vfscanf + 288
        0x0800091e:    e01d        ..      B        0x800095c ; __vfscanf + 296
        0x08000920:    6962        bi      LDR      r2,[r4,#0x14]
        0x08000922:    2101        .!      MOVS     r1,#1
        0x08000924:    9801        ..      LDR      r0,[sp,#4]
        0x08000926:    4790        .G      BLX      r2
        0x08000928:    286c        l(      CMP      r0,#0x6c
        0x0800092a:    d002        ..      BEQ      0x8000932 ; __vfscanf + 254
        0x0800092c:    f0450504    E...    ORR      r5,r5,#4
        0x08000930:    e014        ..      B        0x800095c ; __vfscanf + 296
        0x08000932:    f0450502    E...    ORR      r5,r5,#2
        0x08000936:    e00d        ..      B        0x8000954 ; __vfscanf + 288
        0x08000938:    f0450520    E. .    ORR      r5,r5,#0x20
        0x0800093c:    e00a        ..      B        0x8000954 ; __vfscanf + 288
        0x0800093e:    6962        bi      LDR      r2,[r4,#0x14]
        0x08000940:    2101        .!      MOVS     r1,#1
        0x08000942:    9801        ..      LDR      r0,[sp,#4]
        0x08000944:    4790        .G      BLX      r2
        0x08000946:    2868        h(      CMP      r0,#0x68
        0x08000948:    d002        ..      BEQ      0x8000950 ; __vfscanf + 284
        0x0800094a:    f0450508    E...    ORR      r5,r5,#8
        0x0800094e:    e005        ..      B        0x800095c ; __vfscanf + 296
        0x08000950:    f4456500    E..e    ORR      r5,r5,#0x800
        0x08000954:    6962        bi      LDR      r2,[r4,#0x14]
        0x08000956:    2101        .!      MOVS     r1,#1
        0x08000958:    9801        ..      LDR      r0,[sp,#4]
        0x0800095a:    4790        .G      BLX      r2
        0x0800095c:    e9c45701    ...W    STRD     r5,r7,[r4,#4]
        0x08000960:    2865        e(      CMP      r0,#0x65
        0x08000962:    d03d        =.      BEQ      0x80009e0 ; __vfscanf + 428
        0x08000964:    dc19        ..      BGT      0x800099a ; __vfscanf + 358
        0x08000966:    2858        X(      CMP      r0,#0x58
        0x08000968:    d07a        z.      BEQ      0x8000a60 ; __vfscanf + 556
        0x0800096a:    dc0c        ..      BGT      0x8000986 ; __vfscanf + 338
        0x0800096c:    2845        E(      CMP      r0,#0x45
        0x0800096e:    d037        7.      BEQ      0x80009e0 ; __vfscanf + 428
        0x08000970:    dc04        ..      BGT      0x800097c ; __vfscanf + 328
        0x08000972:    2825        %(      CMP      r0,#0x25
        0x08000974:    d026        &.      BEQ      0x80009c4 ; __vfscanf + 400
        0x08000976:    2841        A(      CMP      r0,#0x41
        0x08000978:    d131        1.      BNE      0x80009de ; __vfscanf + 426
        0x0800097a:    e031        1.      B        0x80009e0 ; __vfscanf + 428
        0x0800097c:    2846        F(      CMP      r0,#0x46
        0x0800097e:    d02f        /.      BEQ      0x80009e0 ; __vfscanf + 428
        0x08000980:    2847        G(      CMP      r0,#0x47
        0x08000982:    d12c        ,.      BNE      0x80009de ; __vfscanf + 426
        0x08000984:    e02c        ,.      B        0x80009e0 ; __vfscanf + 428
        0x08000986:    285b        [(      CMP      r0,#0x5b
        0x08000988:    d077        w.      BEQ      0x8000a7a ; __vfscanf + 582
        0x0800098a:    2861        a(      CMP      r0,#0x61
        0x0800098c:    d028        (.      BEQ      0x80009e0 ; __vfscanf + 428
        0x0800098e:    2863        c(      CMP      r0,#0x63
        0x08000990:    d07c        |.      BEQ      0x8000a8c ; __vfscanf + 600
        0x08000992:    2864        d(      CMP      r0,#0x64
        0x08000994:    d123        #.      BNE      0x80009de ; __vfscanf + 426
        0x08000996:    e05a        Z.      B        0x8000a4e ; __vfscanf + 538
        0x08000998:    e0d0        ..      B        0x8000b3c ; __vfscanf + 776
        0x0800099a:    286f        o(      CMP      r0,#0x6f
        0x0800099c:    d048        H.      BEQ      0x8000a30 ; __vfscanf + 508
        0x0800099e:    dc08        ..      BGT      0x80009b2 ; __vfscanf + 382
        0x080009a0:    2866        f(      CMP      r0,#0x66
        0x080009a2:    d01d        ..      BEQ      0x80009e0 ; __vfscanf + 428
        0x080009a4:    2867        g(      CMP      r0,#0x67
        0x080009a6:    d01b        ..      BEQ      0x80009e0 ; __vfscanf + 428
        0x080009a8:    2869        i(      CMP      r0,#0x69
        0x080009aa:    d021        !.      BEQ      0x80009f0 ; __vfscanf + 444
        0x080009ac:    286e        n(      CMP      r0,#0x6e
        0x080009ae:    d116        ..      BNE      0x80009de ; __vfscanf + 426
        0x080009b0:    e027        '.      B        0x8000a02 ; __vfscanf + 462
        0x080009b2:    2870        p(      CMP      r0,#0x70
        0x080009b4:    d045        E.      BEQ      0x8000a42 ; __vfscanf + 526
        0x080009b6:    2873        s(      CMP      r0,#0x73
        0x080009b8:    d068        h.      BEQ      0x8000a8c ; __vfscanf + 600
        0x080009ba:    2875        u(      CMP      r0,#0x75
        0x080009bc:    d047        G.      BEQ      0x8000a4e ; __vfscanf + 538
        0x080009be:    2878        x(      CMP      r0,#0x78
        0x080009c0:    d10d        ..      BNE      0x80009de ; __vfscanf + 426
        0x080009c2:    e04d        M.      B        0x8000a60 ; __vfscanf + 556
        0x080009c4:    69a1        .i      LDR      r1,[r4,#0x18]
        0x080009c6:    980b        ..      LDR      r0,[sp,#0x2c]
        0x080009c8:    4788        .G      BLX      r1
        0x080009ca:    4605        .F      MOV      r5,r0
        0x080009cc:    2825        %(      CMP      r0,#0x25
        0x080009ce:    f43faf69    ?.i.    BEQ      0x80008a4 ; __vfscanf + 112
        0x080009d2:    69e1        .i      LDR      r1,[r4,#0x1c]
        0x080009d4:    980b        ..      LDR      r0,[sp,#0x2c]
        0x080009d6:    4788        .G      BLX      r1
        0x080009d8:    1c6d        m.      ADDS     r5,r5,#1
        0x080009da:    f43faf6a    ?.j.    BEQ      0x80008b2 ; __vfscanf + 126
        0x080009de:    e0b3        ..      B        0x8000b48 ; __vfscanf + 788
        0x080009e0:    4623        #F      MOV      r3,r4
        0x080009e2:    466a        jF      MOV      r2,sp
        0x080009e4:    f06f0001    o...    MVN      r0,#1
        0x080009e8:    990b        ..      LDR      r1,[sp,#0x2c]
        0x080009ea:    f3af8000    ....    NOP.W    
        0x080009ee:    e09e        ..      B        0x8000b2e ; __vfscanf + 762
        0x080009f0:    f0450040    E.@.    ORR      r0,r5,#0x40
        0x080009f4:    6060        ``      STR      r0,[r4,#4]
        0x080009f6:    07a8        ..      LSLS     r0,r5,#30
        0x080009f8:    4623        #F      MOV      r3,r4
        0x080009fa:    f04f0200    O...    MOV      r2,#0
        0x080009fe:    d436        6.      BMI      0x8000a6e ; __vfscanf + 570
        0x08000a00:    e03e        >.      B        0x8000a80 ; __vfscanf + 588
        0x08000a02:    07e8        ..      LSLS     r0,r5,#31
        0x08000a04:    f47faf47    ..G.    BNE      0x8000896 ; __vfscanf + 98
        0x08000a08:    6820         h      LDR      r0,[r4,#0]
        0x08000a0a:    1d01        ..      ADDS     r1,r0,#4
        0x08000a0c:    6021        !`      STR      r1,[r4,#0]
        0x08000a0e:    6800        .h      LDR      r0,[r0,#0]
        0x08000a10:    0529        ).      LSLS     r1,r5,#20
        0x08000a12:    d501        ..      BPL      0x8000a18 ; __vfscanf + 484
        0x08000a14:    7006        .p      STRB     r6,[r0,#0]
        0x08000a16:    e71b        ..      B        0x8000850 ; __vfscanf + 28
        0x08000a18:    0729        ).      LSLS     r1,r5,#28
        0x08000a1a:    d501        ..      BPL      0x8000a20 ; __vfscanf + 492
        0x08000a1c:    8006        ..      STRH     r6,[r0,#0]
        0x08000a1e:    e717        ..      B        0x8000850 ; __vfscanf + 28
        0x08000a20:    07a9        ..      LSLS     r1,r5,#30
        0x08000a22:    d503        ..      BPL      0x8000a2c ; __vfscanf + 504
        0x08000a24:    17f1        ..      ASRS     r1,r6,#31
        0x08000a26:    e9c06100    ...a    STRD     r6,r1,[r0,#0]
        0x08000a2a:    e711        ..      B        0x8000850 ; __vfscanf + 28
        0x08000a2c:    6006        .`      STR      r6,[r0,#0]
        0x08000a2e:    e70f        ..      B        0x8000850 ; __vfscanf + 28
        0x08000a30:    f0450040    E.@.    ORR      r0,r5,#0x40
        0x08000a34:    6060        ``      STR      r0,[r4,#4]
        0x08000a36:    07a8        ..      LSLS     r0,r5,#30
        0x08000a38:    4623        #F      MOV      r3,r4
        0x08000a3a:    f04f0208    O...    MOV      r2,#8
        0x08000a3e:    d416        ..      BMI      0x8000a6e ; __vfscanf + 570
        0x08000a40:    e01e        ..      B        0x8000a80 ; __vfscanf + 588
        0x08000a42:    f640010e    @...    MOV      r1,#0x80e
        0x08000a46:    ea250001    %...    BIC      r0,r5,r1
        0x08000a4a:    6060        ``      STR      r0,[r4,#4]
        0x08000a4c:    e016        ..      B        0x8000a7c ; __vfscanf + 584
        0x08000a4e:    f0450040    E.@.    ORR      r0,r5,#0x40
        0x08000a52:    6060        ``      STR      r0,[r4,#4]
        0x08000a54:    07a8        ..      LSLS     r0,r5,#30
        0x08000a56:    4623        #F      MOV      r3,r4
        0x08000a58:    f04f020a    O...    MOV      r2,#0xa
        0x08000a5c:    d407        ..      BMI      0x8000a6e ; __vfscanf + 570
        0x08000a5e:    e00f        ..      B        0x8000a80 ; __vfscanf + 588
        0x08000a60:    f0450040    E.@.    ORR      r0,r5,#0x40
        0x08000a64:    6060        ``      STR      r0,[r4,#4]
        0x08000a66:    07a8        ..      LSLS     r0,r5,#30
        0x08000a68:    d508        ..      BPL      0x8000a7c ; __vfscanf + 584
        0x08000a6a:    4623        #F      MOV      r3,r4
        0x08000a6c:    2210        ."      MOVS     r2,#0x10
        0x08000a6e:    f06f0001    o...    MVN      r0,#1
        0x08000a72:    990b        ..      LDR      r1,[sp,#0x2c]
        0x08000a74:    f3af8000    ....    NOP.W    
        0x08000a78:    e059        Y.      B        0x8000b2e ; __vfscanf + 762
        0x08000a7a:    e007        ..      B        0x8000a8c ; __vfscanf + 600
        0x08000a7c:    4623        #F      MOV      r3,r4
        0x08000a7e:    2210        ."      MOVS     r2,#0x10
        0x08000a80:    f06f0001    o...    MVN      r0,#1
        0x08000a84:    990b        ..      LDR      r1,[sp,#0x2c]
        0x08000a86:    f7fffba5    ....    BL       _scanf_int ; 0x80001d4
        0x08000a8a:    e050        P.      B        0x8000b2e ; __vfscanf + 762
        0x08000a8c:    f04f0900    O...    MOV      r9,#0
        0x08000a90:    464f        OF      MOV      r7,r9
        0x08000a92:    464b        KF      MOV      r3,r9
        0x08000a94:    2863        c(      CMP      r0,#0x63
        0x08000a96:    d002        ..      BEQ      0x8000a9e ; __vfscanf + 618
        0x08000a98:    285b        [(      CMP      r0,#0x5b
        0x08000a9a:    d006        ..      BEQ      0x8000aaa ; __vfscanf + 630
        0x08000a9c:    e040        @.      B        0x8000b20 ; __vfscanf + 748
        0x08000a9e:    06e8        ..      LSLS     r0,r5,#27
        0x08000aa0:    d401        ..      BMI      0x8000aa6 ; __vfscanf + 626
        0x08000aa2:    2001        .       MOVS     r0,#1
        0x08000aa4:    60a0        .`      STR      r0,[r4,#8]
        0x08000aa6:    2701        .'      MOVS     r7,#1
        0x08000aa8:    e03a        :.      B        0x8000b20 ; __vfscanf + 748
        0x08000aaa:    6962        bi      LDR      r2,[r4,#0x14]
        0x08000aac:    2101        .!      MOVS     r1,#1
        0x08000aae:    9801        ..      LDR      r0,[sp,#4]
        0x08000ab0:    4790        .G      BLX      r2
        0x08000ab2:    285e        ^(      CMP      r0,#0x5e
        0x08000ab4:    d105        ..      BNE      0x8000ac2 ; __vfscanf + 654
        0x08000ab6:    f04f0901    O...    MOV      r9,#1
        0x08000aba:    6962        bi      LDR      r2,[r4,#0x14]
        0x08000abc:    4649        IF      MOV      r1,r9
        0x08000abe:    9801        ..      LDR      r0,[sp,#4]
        0x08000ac0:    4790        .G      BLX      r2
        0x08000ac2:    6921        !i      LDR      r1,[r4,#0x10]
        0x08000ac4:    b939        9.      CBNZ     r1,0x8000ad6 ; __vfscanf + 674
        0x08000ac6:    2100        .!      MOVS     r1,#0
        0x08000ac8:    460a        .F      MOV      r2,r1
        0x08000aca:    4653        SF      MOV      r3,r10
        0x08000acc:    f8432021    C.!     STR      r2,[r3,r1,LSL #2]
        0x08000ad0:    1c49        I.      ADDS     r1,r1,#1
        0x08000ad2:    2908        .)      CMP      r1,#8
        0x08000ad4:    dbfa        ..      BLT      0x8000acc ; __vfscanf + 664
        0x08000ad6:    b3b0        ..      CBZ      r0,0x8000b46 ; __vfscanf + 786
        0x08000ad8:    6921        !i      LDR      r1,[r4,#0x10]
        0x08000ada:    b969        i.      CBNZ     r1,0x8000af8 ; __vfscanf + 708
        0x08000adc:    17c1        ..      ASRS     r1,r0,#31
        0x08000ade:    eb0062d1    ...b    ADD      r2,r0,r1,LSR #27
        0x08000ae2:    1153        S.      ASRS     r3,r2,#5
        0x08000ae4:    eb0a0183    ....    ADD      r1,r10,r3,LSL #2
        0x08000ae8:    f022021f    "...    BIC      r2,r2,#0x1f
        0x08000aec:    1a82        ..      SUBS     r2,r0,r2
        0x08000aee:    2001        .       MOVS     r0,#1
        0x08000af0:    680b        .h      LDR      r3,[r1,#0]
        0x08000af2:    4090        .@      LSLS     r0,r0,r2
        0x08000af4:    4303        .C      ORRS     r3,r3,r0
        0x08000af6:    600b        .`      STR      r3,[r1,#0]
        0x08000af8:    6962        bi      LDR      r2,[r4,#0x14]
        0x08000afa:    2101        .!      MOVS     r1,#1
        0x08000afc:    9801        ..      LDR      r0,[sp,#4]
        0x08000afe:    4790        .G      BLX      r2
        0x08000b00:    285d        ](      CMP      r0,#0x5d
        0x08000b02:    d1e8        ..      BNE      0x8000ad6 ; __vfscanf + 674
        0x08000b04:    f1b90f00    ....    CMP      r9,#0
        0x08000b08:    d009        ..      BEQ      0x8000b1e ; __vfscanf + 746
        0x08000b0a:    2000        .       MOVS     r0,#0
        0x08000b0c:    4651        QF      MOV      r1,r10
        0x08000b0e:    f8512020    Q.      LDR      r2,[r1,r0,LSL #2]
        0x08000b12:    43d2        .C      MVNS     r2,r2
        0x08000b14:    f8412020    A.      STR      r2,[r1,r0,LSL #2]
        0x08000b18:    1c40        @.      ADDS     r0,r0,#1
        0x08000b1a:    2808        .(      CMP      r0,#8
        0x08000b1c:    dbf7        ..      BLT      0x8000b0e ; __vfscanf + 730
        0x08000b1e:    ab02        ..      ADD      r3,sp,#8
        0x08000b20:    4622        "F      MOV      r2,r4
        0x08000b22:    9700        ..      STR      r7,[sp,#0]
        0x08000b24:    f06f0001    o...    MVN      r0,#1
        0x08000b28:    990b        ..      LDR      r1,[sp,#0x2c]
        0x08000b2a:    f3af8000    ....    NOP.W    
        0x08000b2e:    2800        .(      CMP      r0,#0
        0x08000b30:    da0c        ..      BGE      0x8000b4c ; __vfscanf + 792
        0x08000b32:    1c40        @.      ADDS     r0,r0,#1
        0x08000b34:    d108        ..      BNE      0x8000b48 ; __vfscanf + 788
        0x08000b36:    f1bb0f00    ....    CMP      r11,#0
        0x08000b3a:    d005        ..      BEQ      0x8000b48 ; __vfscanf + 788
        0x08000b3c:    f04f30ff    O..0    MOV      r0,#0xffffffff
        0x08000b40:    b00d        ..      ADD      sp,sp,#0x34
        0x08000b42:    e8bd8ff0    ....    POP      {r4-r11,pc}
        0x08000b46:    e7ff        ..      B        0x8000b48 ; __vfscanf + 788
        0x08000b48:    4640        @F      MOV      r0,r8
        0x08000b4a:    e7f9        ..      B        0x8000b40 ; __vfscanf + 780
        0x08000b4c:    07e9        ..      LSLS     r1,r5,#31
        0x08000b4e:    d101        ..      BNE      0x8000b54 ; __vfscanf + 800
        0x08000b50:    f1080801    ....    ADD      r8,r8,#1
        0x08000b54:    4406        .D      ADD      r6,r6,r0
        0x08000b56:    f04f0b00    O...    MOV      r11,#0
        0x08000b5a:    e679        y.      B        0x8000850 ; __vfscanf + 28
    $d
        0x08000b5c:    0ccccccc    ....    DCD    214748364
    $t
    .text
    _double_round
        0x08000b60:    b510        ..      PUSH     {r4,lr}
        0x08000b62:    1e14        ..      SUBS     r4,r2,#0
        0x08000b64:    f1730400    s...    SBCS     r4,r3,#0
        0x08000b68:    da08        ..      BGE      0x8000b7c ; _double_round + 28
        0x08000b6a:    1c40        @.      ADDS     r0,r0,#1
        0x08000b6c:    f1410100    A...    ADC      r1,r1,#0
        0x08000b70:    1892        ..      ADDS     r2,r2,r2
        0x08000b72:    415b        [A      ADCS     r3,r3,r3
        0x08000b74:    431a        .C      ORRS     r2,r2,r3
        0x08000b76:    d101        ..      BNE      0x8000b7c ; _double_round + 28
        0x08000b78:    f0200001     ...    BIC      r0,r0,#1
        0x08000b7c:    bd10        ..      POP      {r4,pc}
    _double_epilogue
        0x08000b7e:    e92d4df0    -..M    PUSH     {r4-r8,r10,r11,lr}
        0x08000b82:    4692        .F      MOV      r10,r2
        0x08000b84:    469b        .F      MOV      r11,r3
        0x08000b86:    b111        ..      CBZ      r1,0x8000b8e ; _double_epilogue + 16
        0x08000b88:    fab1f281    ....    CLZ      r2,r1
        0x08000b8c:    e002        ..      B        0x8000b94 ; _double_epilogue + 22
        0x08000b8e:    fab0f280    ....    CLZ      r2,r0
        0x08000b92:    3220         2      ADDS     r2,r2,#0x20
        0x08000b94:    4690        .F      MOV      r8,r2
        0x08000b96:    f7fffe17    ....    BL       __aeabi_llsl ; 0x80007c8
        0x08000b9a:    4604        .F      MOV      r4,r0
        0x08000b9c:    460f        .F      MOV      r7,r1
        0x08000b9e:    ea40000a    @...    ORR      r0,r0,r10
        0x08000ba2:    ea41010b    A...    ORR      r1,r1,r11
        0x08000ba6:    4653        SF      MOV      r3,r10
        0x08000ba8:    465a        ZF      MOV      r2,r11
        0x08000baa:    4308        .C      ORRS     r0,r0,r1
        0x08000bac:    d013        ..      BEQ      0x8000bd6 ; _double_epilogue + 88
        0x08000bae:    4611        .F      MOV      r1,r2
        0x08000bb0:    ea530001    S...    ORRS     r0,r3,r1
        0x08000bb4:    d019        ..      BEQ      0x8000bea ; _double_epilogue + 108
        0x08000bb6:    f1c80240    ..@.    RSB      r2,r8,#0x40
        0x08000bba:    4650        PF      MOV      r0,r10
        0x08000bbc:    f7fffe13    ....    BL       __aeabi_llsr ; 0x80007e6
        0x08000bc0:    4605        .F      MOV      r5,r0
        0x08000bc2:    460e        .F      MOV      r6,r1
        0x08000bc4:    4650        PF      MOV      r0,r10
        0x08000bc6:    4659        YF      MOV      r1,r11
        0x08000bc8:    4642        BF      MOV      r2,r8
        0x08000bca:    f7fffdfd    ....    BL       __aeabi_llsl ; 0x80007c8
        0x08000bce:    4308        .C      ORRS     r0,r0,r1
        0x08000bd0:    d005        ..      BEQ      0x8000bde ; _double_epilogue + 96
        0x08000bd2:    2001        .       MOVS     r0,#1
        0x08000bd4:    e004        ..      B        0x8000be0 ; _double_epilogue + 98
        0x08000bd6:    4620         F      MOV      r0,r4
        0x08000bd8:    4639        9F      MOV      r1,r7
        0x08000bda:    e8bd8df0    ....    POP      {r4-r8,r10,r11,pc}
        0x08000bde:    2000        .       MOVS     r0,#0
        0x08000be0:    4305        .C      ORRS     r5,r5,r0
        0x08000be2:    ea4676e0    F..v    ORR      r6,r6,r0,ASR #31
        0x08000be6:    432c        ,C      ORRS     r4,r4,r5
        0x08000be8:    4337        7C      ORRS     r7,r7,r6
        0x08000bea:    980a        ..      LDR      r0,[sp,#0x28]
        0x08000bec:    0563        c.      LSLS     r3,r4,#21
        0x08000bee:    0ae4        ..      LSRS     r4,r4,#11
        0x08000bf0:    eba00008    ....    SUB      r0,r0,r8
        0x08000bf4:    2200        ."      MOVS     r2,#0
        0x08000bf6:    0afd        ..      LSRS     r5,r7,#11
        0x08000bf8:    ea445447    D.GT    ORR      r4,r4,r7,LSL #21
        0x08000bfc:    300a        .0      ADDS     r0,r0,#0xa
        0x08000bfe:    d502        ..      BPL      0x8000c06 ; _double_epilogue + 136
        0x08000c00:    2000        .       MOVS     r0,#0
        0x08000c02:    4601        .F      MOV      r1,r0
        0x08000c04:    e7e9        ..      B        0x8000bda ; _double_epilogue + 92
        0x08000c06:    0501        ..      LSLS     r1,r0,#20
        0x08000c08:    1910        ..      ADDS     r0,r2,r4
        0x08000c0a:    4169        iA      ADCS     r1,r1,r5
        0x08000c0c:    e9dd4508    ...E    LDRD     r4,r5,[sp,#0x20]
        0x08000c10:    1900        ..      ADDS     r0,r0,r4
        0x08000c12:    4169        iA      ADCS     r1,r1,r5
        0x08000c14:    e8bd4df0    ...M    POP      {r4-r8,r10,r11,lr}
        0x08000c18:    e7a2        ..      B        _double_round ; 0x8000b60
        0x08000c1a:    0000        ..      MOVS     r0,r0
    .text
    __ctype_lookup
        0x08000c1c:    287f        .(      CMP      r0,#0x7f
        0x08000c1e:    d901        ..      BLS      0x8000c24 ; __ctype_lookup + 8
        0x08000c20:    2200        ."      MOVS     r2,#0
        0x08000c22:    e008        ..      B        0x8000c36 ; __ctype_lookup + 26
        0x08000c24:    4a06        .J      LDR      r2,[pc,#24] ; [0x8000c40] = 0x80045f8
        0x08000c26:    eb020250    ..P.    ADD      r2,r2,r0,LSR #1
        0x08000c2a:    07c0        ..      LSLS     r0,r0,#31
        0x08000c2c:    7812        .x      LDRB     r2,[r2,#0]
        0x08000c2e:    d100        ..      BNE      0x8000c32 ; __ctype_lookup + 22
        0x08000c30:    0912        ..      LSRS     r2,r2,#4
        0x08000c32:    f002020f    ....    AND      r2,r2,#0xf
        0x08000c36:    2001        .       MOVS     r0,#1
        0x08000c38:    4090        .@      LSLS     r0,r0,r2
        0x08000c3a:    4008        .@      ANDS     r0,r0,r1
        0x08000c3c:    4770        pG      BX       lr
    $d
        0x08000c3e:    0000        ..      DCW    0
        0x08000c40:    080045f8    .E..    DCD    134235640
    $t
    i.AT24C02_Init
    AT24C02_Init
        0x08000c44:    b510        ..      PUSH     {r4,lr}
        0x08000c46:    f001fc81    ....    BL       IIC_Init ; 0x800254c
        0x08000c4a:    bd10        ..      POP      {r4,pc}
    i.AT24C02_Read
    AT24C02_Read
        0x08000c4c:    e92d47f0    -..G    PUSH     {r4-r10,lr}
        0x08000c50:    4607        .F      MOV      r7,r0
        0x08000c52:    460d        .F      MOV      r5,r1
        0x08000c54:    4616        .F      MOV      r6,r2
        0x08000c56:    4698        .F      MOV      r8,r3
        0x08000c58:    f5b57f80    ....    CMP      r5,#0x100
        0x08000c5c:    dc00        ..      BGT      0x8000c60 ; AT24C02_Read + 20
        0x08000c5e:    b90e        ..      CBNZ     r6,0x8000c64 ; AT24C02_Read + 24
        0x08000c60:    e8bd87f0    ....    POP      {r4-r10,pc}
        0x08000c64:    4545        EE      CMP      r5,r8
        0x08000c66:    dc01        ..      BGT      0x8000c6c ; AT24C02_Read + 32
        0x08000c68:    4628        (F      MOV      r0,r5
        0x08000c6a:    e000        ..      B        0x8000c6e ; AT24C02_Read + 34
        0x08000c6c:    4640        @F      MOV      r0,r8
        0x08000c6e:    4681        .F      MOV      r9,r0
        0x08000c70:    2400        .$      MOVS     r4,#0
        0x08000c72:    e006        ..      B        0x8000c82 ; AT24C02_Read + 54
        0x08000c74:    1939        9.      ADDS     r1,r7,r4
        0x08000c76:    b2c8        ..      UXTB     r0,r1
        0x08000c78:    f000f807    ....    BL       AT24C02_ReadByte ; 0x8000c8a
        0x08000c7c:    5530        0U      STRB     r0,[r6,r4]
        0x08000c7e:    1c60        `.      ADDS     r0,r4,#1
        0x08000c80:    b284        ..      UXTH     r4,r0
        0x08000c82:    454c        LE      CMP      r4,r9
        0x08000c84:    dbf6        ..      BLT      0x8000c74 ; AT24C02_Read + 40
        0x08000c86:    bf00        ..      NOP      
        0x08000c88:    e7ea        ..      B        0x8000c60 ; AT24C02_Read + 20
    i.AT24C02_ReadByte
    AT24C02_ReadByte
        0x08000c8a:    b570        p.      PUSH     {r4-r6,lr}
        0x08000c8c:    4605        .F      MOV      r5,r0
        0x08000c8e:    2600        .&      MOVS     r6,#0
        0x08000c90:    2400        .$      MOVS     r4,#0
        0x08000c92:    f001fd08    ....    BL       IIC_Start ; 0x80026a6
        0x08000c96:    20a0        .       MOVS     r0,#0xa0
        0x08000c98:    f001fceb    ....    BL       IIC_SendByte ; 0x8002672
        0x08000c9c:    200a        .       MOVS     r0,#0xa
        0x08000c9e:    f001fc7d    ..}.    BL       IIC_ReceiveAck ; 0x800259c
        0x08000ca2:    4604        .F      MOV      r4,r0
        0x08000ca4:    2c01        .,      CMP      r4,#1
        0x08000ca6:    d101        ..      BNE      0x8000cac ; AT24C02_ReadByte + 34
        0x08000ca8:    4620         F      MOV      r0,r4
        0x08000caa:    bd70        p.      POP      {r4-r6,pc}
        0x08000cac:    4628        (F      MOV      r0,r5
        0x08000cae:    f001fce0    ....    BL       IIC_SendByte ; 0x8002672
        0x08000cb2:    200a        .       MOVS     r0,#0xa
        0x08000cb4:    f001fc72    ..r.    BL       IIC_ReceiveAck ; 0x800259c
        0x08000cb8:    4604        .F      MOV      r4,r0
        0x08000cba:    2c01        .,      CMP      r4,#1
        0x08000cbc:    d101        ..      BNE      0x8000cc2 ; AT24C02_ReadByte + 56
        0x08000cbe:    4620         F      MOV      r0,r4
        0x08000cc0:    e7f3        ..      B        0x8000caa ; AT24C02_ReadByte + 32
        0x08000cc2:    f001fcf0    ....    BL       IIC_Start ; 0x80026a6
        0x08000cc6:    20a1        .       MOVS     r0,#0xa1
        0x08000cc8:    f001fcd3    ....    BL       IIC_SendByte ; 0x8002672
        0x08000ccc:    200a        .       MOVS     r0,#0xa
        0x08000cce:    f001fc65    ..e.    BL       IIC_ReceiveAck ; 0x800259c
        0x08000cd2:    4604        .F      MOV      r4,r0
        0x08000cd4:    2c01        .,      CMP      r4,#1
        0x08000cd6:    d101        ..      BNE      0x8000cdc ; AT24C02_ReadByte + 82
        0x08000cd8:    4620         F      MOV      r0,r4
        0x08000cda:    e7e6        ..      B        0x8000caa ; AT24C02_ReadByte + 32
        0x08000cdc:    f001fc9e    ....    BL       IIC_ReceiveByte ; 0x800261c
        0x08000ce0:    4606        .F      MOV      r6,r0
        0x08000ce2:    2001        .       MOVS     r0,#1
        0x08000ce4:    f001fcb6    ....    BL       IIC_SendAck ; 0x8002654
        0x08000ce8:    f001fceb    ....    BL       IIC_Stop ; 0x80026c2
        0x08000cec:    4630        0F      MOV      r0,r6
        0x08000cee:    e7dc        ..      B        0x8000caa ; AT24C02_ReadByte + 32
    i.AT24C02_Write
    AT24C02_Write
        0x08000cf0:    e92d41f0    -..A    PUSH     {r4-r8,lr}
        0x08000cf4:    4607        .F      MOV      r7,r0
        0x08000cf6:    460d        .F      MOV      r5,r1
        0x08000cf8:    4616        .F      MOV      r6,r2
        0x08000cfa:    f5b67f80    ....    CMP      r6,#0x100
        0x08000cfe:    dc00        ..      BGT      0x8000d02 ; AT24C02_Write + 18
        0x08000d00:    b90d        ..      CBNZ     r5,0x8000d06 ; AT24C02_Write + 22
        0x08000d02:    e8bd81f0    ....    POP      {r4-r8,pc}
        0x08000d06:    2400        .$      MOVS     r4,#0
        0x08000d08:    e009        ..      B        0x8000d1e ; AT24C02_Write + 46
        0x08000d0a:    5d29        )]      LDRB     r1,[r5,r4]
        0x08000d0c:    193a        :.      ADDS     r2,r7,r4
        0x08000d0e:    b2d0        ..      UXTB     r0,r2
        0x08000d10:    f000f809    ....    BL       AT24C02_WriteByte ; 0x8000d26
        0x08000d14:    2005        .       MOVS     r0,#5
        0x08000d16:    f000fd0d    ....    BL       Delay_ms ; 0x8001734
        0x08000d1a:    1c60        `.      ADDS     r0,r4,#1
        0x08000d1c:    b284        ..      UXTH     r4,r0
        0x08000d1e:    42b4        .B      CMP      r4,r6
        0x08000d20:    dbf3        ..      BLT      0x8000d0a ; AT24C02_Write + 26
        0x08000d22:    bf00        ..      NOP      
        0x08000d24:    e7ed        ..      B        0x8000d02 ; AT24C02_Write + 18
    i.AT24C02_WriteByte
    AT24C02_WriteByte
        0x08000d26:    b570        p.      PUSH     {r4-r6,lr}
        0x08000d28:    4606        .F      MOV      r6,r0
        0x08000d2a:    460d        .F      MOV      r5,r1
        0x08000d2c:    2400        .$      MOVS     r4,#0
        0x08000d2e:    f001fcba    ....    BL       IIC_Start ; 0x80026a6
        0x08000d32:    20a0        .       MOVS     r0,#0xa0
        0x08000d34:    f001fc9d    ....    BL       IIC_SendByte ; 0x8002672
        0x08000d38:    200a        .       MOVS     r0,#0xa
        0x08000d3a:    f001fc2f    ../.    BL       IIC_ReceiveAck ; 0x800259c
        0x08000d3e:    4604        .F      MOV      r4,r0
        0x08000d40:    2c01        .,      CMP      r4,#1
        0x08000d42:    d101        ..      BNE      0x8000d48 ; AT24C02_WriteByte + 34
        0x08000d44:    4620         F      MOV      r0,r4
        0x08000d46:    bd70        p.      POP      {r4-r6,pc}
        0x08000d48:    4630        0F      MOV      r0,r6
        0x08000d4a:    f001fc92    ....    BL       IIC_SendByte ; 0x8002672
        0x08000d4e:    200a        .       MOVS     r0,#0xa
        0x08000d50:    f001fc24    ..$.    BL       IIC_ReceiveAck ; 0x800259c
        0x08000d54:    4604        .F      MOV      r4,r0
        0x08000d56:    2c01        .,      CMP      r4,#1
        0x08000d58:    d101        ..      BNE      0x8000d5e ; AT24C02_WriteByte + 56
        0x08000d5a:    4620         F      MOV      r0,r4
        0x08000d5c:    e7f3        ..      B        0x8000d46 ; AT24C02_WriteByte + 32
        0x08000d5e:    4628        (F      MOV      r0,r5
        0x08000d60:    f001fc87    ....    BL       IIC_SendByte ; 0x8002672
        0x08000d64:    200a        .       MOVS     r0,#0xa
        0x08000d66:    f001fc19    ....    BL       IIC_ReceiveAck ; 0x800259c
        0x08000d6a:    4604        .F      MOV      r4,r0
        0x08000d6c:    2c01        .,      CMP      r4,#1
        0x08000d6e:    d101        ..      BNE      0x8000d74 ; AT24C02_WriteByte + 78
        0x08000d70:    4620         F      MOV      r0,r4
        0x08000d72:    e7e8        ..      B        0x8000d46 ; AT24C02_WriteByte + 32
        0x08000d74:    f001fca5    ....    BL       IIC_Stop ; 0x80026c2
        0x08000d78:    4620         F      MOV      r0,r4
        0x08000d7a:    e7e4        ..      B        0x8000d46 ; AT24C02_WriteByte + 32
    i.BootLoader_CMD
    BootLoader_CMD
        0x08000d7c:    b570        p.      PUSH     {r4-r6,lr}
        0x08000d7e:    2400        .$      MOVS     r4,#0
        0x08000d80:    2500        .%      MOVS     r5,#0
        0x08000d82:    f000fa9d    ....    BL       CMD_Entrance ; 0x80012c0
        0x08000d86:    4605        .F      MOV      r5,r0
        0x08000d88:    2d01        .-      CMP      r5,#1
        0x08000d8a:    d000        ..      BEQ      0x8000d8e ; BootLoader_CMD + 18
        0x08000d8c:    bd70        p.      POP      {r4-r6,pc}
        0x08000d8e:    bf00        ..      NOP      
        0x08000d90:    f000fade    ....    BL       CMD_Menu ; 0x8001350
        0x08000d94:    4604        .F      MOV      r4,r0
        0x08000d96:    b93c        <.      CBNZ     r4,0x8000da8 ; BootLoader_CMD + 44
        0x08000d98:    bf00        ..      NOP      
        0x08000d9a:    2243        C"      MOVS     r2,#0x43
        0x08000d9c:    a151        Q.      ADR      r1,{pc}+0x148 ; 0x8000ee4
        0x08000d9e:    a055        U.      ADR      r0,{pc}+0x156 ; 0x8000ef4
        0x08000da0:    f000fc7e    ..~.    BL       CMD_USART_Printf ; 0x80016a0
        0x08000da4:    bf00        ..      NOP      
        0x08000da6:    e7f3        ..      B        0x8000d90 ; BootLoader_CMD + 20
        0x08000da8:    2c0a        .,      CMP      r4,#0xa
        0x08000daa:    d276        v.      BCS      0x8000e9a ; BootLoader_CMD + 286
        0x08000dac:    e8dff004    ....    TBB      [pc,r4]
    $d
        0x08000db0:    33260595    ..&3    DCD    858129813
        0x08000db4:    76614d40    @Mav    DCD    1986088256
        0x08000db8:    8b83        ..      DCW    35715
    $t
        0x08000dba:    bf00        ..      NOP      
        0x08000dbc:    224a        J"      MOVS     r2,#0x4a
        0x08000dbe:    a149        I.      ADR      r1,{pc}+0x126 ; 0x8000ee4
        0x08000dc0:    a055        U.      ADR      r0,{pc}+0x158 ; 0x8000f18
        0x08000dc2:    f000fc6d    ..m.    BL       CMD_USART_Printf ; 0x80016a0
        0x08000dc6:    bf00        ..      NOP      
        0x08000dc8:    f000fd76    ..v.    BL       Erase_APP ; 0x80018b8
        0x08000dcc:    2804        .(      CMP      r0,#4
        0x08000dce:    d00a        ..      BEQ      0x8000de6 ; BootLoader_CMD + 106
        0x08000dd0:    bf00        ..      NOP      
        0x08000dd2:    224c        L"      MOVS     r2,#0x4c
        0x08000dd4:    a143        C.      ADR      r1,{pc}+0x110 ; 0x8000ee4
        0x08000dd6:    a056        V.      ADR      r0,{pc}+0x15a ; 0x8000f30
        0x08000dd8:    f000fc62    ..b.    BL       CMD_USART_Printf ; 0x80016a0
        0x08000ddc:    bf00        ..      NOP      
        0x08000dde:    2001        .       MOVS     r0,#1
        0x08000de0:    f000fcb4    ....    BL       Delay_s ; 0x800174c
        0x08000de4:    e7d4        ..      B        0x8000d90 ; BootLoader_CMD + 20
        0x08000de6:    bf00        ..      NOP      
        0x08000de8:    2250        P"      MOVS     r2,#0x50
        0x08000dea:    a13e        >.      ADR      r1,{pc}+0xfa ; 0x8000ee4
        0x08000dec:    a057        W.      ADR      r0,{pc}+0x160 ; 0x8000f4c
        0x08000dee:    f000fc57    ..W.    BL       CMD_USART_Printf ; 0x80016a0
        0x08000df2:    bf00        ..      NOP      
        0x08000df4:    2001        .       MOVS     r0,#1
        0x08000df6:    f000fca9    ....    BL       Delay_s ; 0x800174c
        0x08000dfa:    e7c9        ..      B        0x8000d90 ; BootLoader_CMD + 20
        0x08000dfc:    bf00        ..      NOP      
        0x08000dfe:    2256        V"      MOVS     r2,#0x56
        0x08000e00:    a138        8.      ADR      r1,{pc}+0xe4 ; 0x8000ee4
        0x08000e02:    a059        Y.      ADR      r0,{pc}+0x166 ; 0x8000f68
        0x08000e04:    f000fc4c    ..L.    BL       CMD_USART_Printf ; 0x80016a0
        0x08000e08:    bf00        ..      NOP      
        0x08000e0a:    f002faa3    ....    BL       USART_IAP ; 0x8003354
        0x08000e0e:    2001        .       MOVS     r0,#1
        0x08000e10:    f000fc9c    ....    BL       Delay_s ; 0x800174c
        0x08000e14:    e7bc        ..      B        0x8000d90 ; BootLoader_CMD + 20
        0x08000e16:    bf00        ..      NOP      
        0x08000e18:    225d        ]"      MOVS     r2,#0x5d
        0x08000e1a:    a132        2.      ADR      r1,{pc}+0xca ; 0x8000ee4
        0x08000e1c:    a05a        Z.      ADR      r0,{pc}+0x16c ; 0x8000f88
        0x08000e1e:    f000fc3f    ..?.    BL       CMD_USART_Printf ; 0x80016a0
        0x08000e22:    bf00        ..      NOP      
        0x08000e24:    f002f900    ....    BL       Set_APPVersion ; 0x8003028
        0x08000e28:    2001        .       MOVS     r0,#1
        0x08000e2a:    f000fc8f    ....    BL       Delay_s ; 0x800174c
        0x08000e2e:    e7af        ..      B        0x8000d90 ; BootLoader_CMD + 20
        0x08000e30:    bf00        ..      NOP      
        0x08000e32:    2264        d"      MOVS     r2,#0x64
        0x08000e34:    a12b        +.      ADR      r1,{pc}+0xb0 ; 0x8000ee4
        0x08000e36:    a05e        ^.      ADR      r0,{pc}+0x17a ; 0x8000fb0
        0x08000e38:    f000fc32    ..2.    BL       CMD_USART_Printf ; 0x80016a0
        0x08000e3c:    bf00        ..      NOP      
        0x08000e3e:    f001faef    ....    BL       Get_APPVersion ; 0x8002420
        0x08000e42:    2001        .       MOVS     r0,#1
        0x08000e44:    f000fc82    ....    BL       Delay_s ; 0x800174c
        0x08000e48:    e7a2        ..      B        0x8000d90 ; BootLoader_CMD + 20
        0x08000e4a:    bf00        ..      NOP      
        0x08000e4c:    226b        k"      MOVS     r2,#0x6b
        0x08000e4e:    a125        %.      ADR      r1,{pc}+0x96 ; 0x8000ee4
        0x08000e50:    a061        a.      ADR      r0,{pc}+0x188 ; 0x8000fd8
        0x08000e52:    f000fc25    ..%.    BL       CMD_USART_Printf ; 0x80016a0
        0x08000e56:    bf00        ..      NOP      
        0x08000e58:    f000fdce    ....    BL       ExFlash_DownloadFromUSART ; 0x80019f8
        0x08000e5c:    bf00        ..      NOP      
        0x08000e5e:    226d        m"      MOVS     r2,#0x6d
        0x08000e60:    a120         .      ADR      r1,{pc}+0x84 ; 0x8000ee4
        0x08000e62:    a067        g.      ADR      r0,{pc}+0x19e ; 0x8001000
        0x08000e64:    f000fc1c    ....    BL       CMD_USART_Printf ; 0x80016a0
        0x08000e68:    bf00        ..      NOP      
        0x08000e6a:    2001        .       MOVS     r0,#1
        0x08000e6c:    f000fc6e    ..n.    BL       Delay_s ; 0x800174c
        0x08000e70:    e78e        ..      B        0x8000d90 ; BootLoader_CMD + 20
        0x08000e72:    bf00        ..      NOP      
        0x08000e74:    2273        s"      MOVS     r2,#0x73
        0x08000e76:    a11b        ..      ADR      r1,{pc}+0x6e ; 0x8000ee4
        0x08000e78:    a06a        j.      ADR      r0,{pc}+0x1ac ; 0x8001024
        0x08000e7a:    f000fc11    ....    BL       CMD_USART_Printf ; 0x80016a0
        0x08000e7e:    bf00        ..      NOP      
        0x08000e80:    f000ffa8    ....    BL       ExFlash_MoveInAPP ; 0x8001dd4
        0x08000e84:    bf00        ..      NOP      
        0x08000e86:    2275        u"      MOVS     r2,#0x75
        0x08000e88:    a116        ..      ADR      r1,{pc}+0x5c ; 0x8000ee4
        0x08000e8a:    a06f        o.      ADR      r0,{pc}+0x1be ; 0x8001048
        0x08000e8c:    f000fc08    ....    BL       CMD_USART_Printf ; 0x80016a0
        0x08000e90:    bf00        ..      NOP      
        0x08000e92:    2001        .       MOVS     r0,#1
        0x08000e94:    f000fc5a    ..Z.    BL       Delay_s ; 0x800174c
        0x08000e98:    e77a        z.      B        0x8000d90 ; BootLoader_CMD + 20
        0x08000e9a:    e01e        ..      B        0x8000eda ; BootLoader_CMD + 350
        0x08000e9c:    bf00        ..      NOP      
        0x08000e9e:    227b        {"      MOVS     r2,#0x7b
        0x08000ea0:    a110        ..      ADR      r1,{pc}+0x44 ; 0x8000ee4
        0x08000ea2:    a072        r.      ADR      r0,{pc}+0x1ca ; 0x800106c
        0x08000ea4:    f000fbfc    ....    BL       CMD_USART_Printf ; 0x80016a0
        0x08000ea8:    bf00        ..      NOP      
        0x08000eaa:    f000fd1b    ....    BL       ExFlash_DeleteProg ; 0x80018e4
        0x08000eae:    2001        .       MOVS     r0,#1
        0x08000eb0:    f000fc4c    ..L.    BL       Delay_s ; 0x800174c
        0x08000eb4:    e76c        l.      B        0x8000d90 ; BootLoader_CMD + 20
        0x08000eb6:    bf00        ..      NOP      
        0x08000eb8:    2282        ."      MOVS     r2,#0x82
        0x08000eba:    a10a        ..      ADR      r1,{pc}+0x2a ; 0x8000ee4
        0x08000ebc:    a074        t.      ADR      r0,{pc}+0x1d4 ; 0x8001090
        0x08000ebe:    f000fbef    ....    BL       CMD_USART_Printf ; 0x80016a0
        0x08000ec2:    bf00        ..      NOP      
        0x08000ec4:    e762        b.      B        0x8000d8c ; BootLoader_CMD + 16
        0x08000ec6:    bf00        ..      NOP      
        0x08000ec8:    2287        ."      MOVS     r2,#0x87
        0x08000eca:    a106        ..      ADR      r1,{pc}+0x1a ; 0x8000ee4
        0x08000ecc:    a077        w.      ADR      r0,{pc}+0x1e0 ; 0x80010ac
        0x08000ece:    f000fbe7    ....    BL       CMD_USART_Printf ; 0x80016a0
        0x08000ed2:    bf00        ..      NOP      
        0x08000ed4:    f000f9a2    ....    BL       BootLoader_Reset ; 0x800121c
        0x08000ed8:    bf00        ..      NOP      
        0x08000eda:    bf00        ..      NOP      
        0x08000edc:    bf00        ..      NOP      
        0x08000ede:    bf00        ..      NOP      
        0x08000ee0:    e754        T.      B        0x8000d8c ; BootLoader_CMD + 16
    $d
        0x08000ee2:    0000        ..      DCW    0
        0x08000ee4:    6c697455    Util    DCD    1818850389
        0x08000ee8:    65697469    itie    DCD    1701409897
        0x08000eec:    4d435c73    s\CM    DCD    1296260211
        0x08000ef0:    00632e44    D.c.    DCD    6499908
        0x08000ef4:    3a73255b    [%s:    DCD    980624731
        0x08000ef8:    205d6425    %d]     DCD    542991397
        0x08000efc:    e9b7afe8    ....    DCD    3921129448
        0x08000f00:    8be68980    ....    DCD    2347141504
        0x08000f04:    a3ade6a9    ....    DCD    2746082985
        0x08000f08:    e7aea1e7    ....    DCD    3886981607
        0x08000f0c:    8ae5849a    ....    DCD    2330297498
        0x08000f10:    bd83e89f    ....    DCD    3179538591
        0x08000f14:    000a0d20     ...    DCD    658720
        0x08000f18:    3a73255b    [%s:    DCD    980624731
        0x08000f1c:    205d6425    %d]     DCD    542991397
        0x08000f20:    e9a693e6    ....    DCD    3920008166
        0x08000f24:    e541a499    ..A.    DCD    3846284441
        0x08000f28:    0d20ba8c    .. .    DCD    220248716
        0x08000f2c:    0000000a    ....    DCD    10
        0x08000f30:    3a73255b    [%s:    DCD    980624731
        0x08000f34:    205d6425    %d]     DCD    542991397
        0x08000f38:    ba8ce541    A...    DCD    3129795905
        0x08000f3c:    e9a693e6    ....    DCD    3920008166
        0x08000f40:    87e5a499    ....    DCD    2279974041
        0x08000f44:    9994e9ba    ....    DCD    2576673210
        0x08000f48:    000a0d20     ...    DCD    658720
        0x08000f4c:    3a73255b    [%s:    DCD    980624731
        0x08000f50:    205d6425    %d]     DCD    542991397
        0x08000f54:    ba8ce541    A...    DCD    3129795905
        0x08000f58:    e9a693e6    ....    DCD    3920008166
        0x08000f5c:    aee5a499    ....    DCD    2934285465
        0x08000f60:    95afe68c    ....    DCD    2511333004
        0x08000f64:    000a0d20     ...    DCD    658720
        0x08000f68:    3a73255b    [%s:    DCD    980624731
        0x08000f6c:    205d6425    %d]     DCD    542991397
        0x08000f70:    e5b2b8e4    ....    DCD    3853695204
        0x08000f74:    4149a38f    ..IA    DCD    1095345039
        0x08000f78:    8bb8e450    P...    DCD    2344150096
        0x08000f7c:    e7bdbde8    ....    DCD    3887971816
        0x08000f80:    bae58ba8    ....    DCD    3135605672
        0x08000f84:    000a0d8f    ....    DCD    658831
        0x08000f88:    3a73255b    [%s:    DCD    980624731
        0x08000f8c:    205d6425    %d]     DCD    542991397
        0x08000f90:    e7beaee8    ....    DCD    3888033512
        0x08000f94:    5041aebd    ..AP    DCD    1346481853
        0x08000f98:    8ba8e750    P...    DCD    2343102288
        0x08000f9c:    e78fbae5    ....    DCD    3884956389
        0x08000fa0:    9ce68889    ....    DCD    2632353929
        0x08000fa4:    a1bfe4ac    ....    DCD    2713707692
        0x08000fa8:    20af81e6    ...     DCD    548372966
        0x08000fac:    00000a0d    ....    DCD    2573
        0x08000fb0:    3a73255b    [%s:    DCD    980624731
        0x08000fb4:    205d6425    %d]     DCD    542991397
        0x08000fb8:    e5b78ee8    ....    DCD    3854012136
        0x08000fbc:    5041968f    ..AP    DCD    1346475663
        0x08000fc0:    8ba8e750    P...    DCD    2343102288
        0x08000fc4:    e78fbae5    ....    DCD    3884956389
        0x08000fc8:    9ce68889    ....    DCD    2632353929
        0x08000fcc:    a1bfe4ac    ....    DCD    2713707692
        0x08000fd0:    20af81e6    ...     DCD    548372966
        0x08000fd4:    00000a0d    ....    DCD    2573
        0x08000fd8:    3a73255b    [%s:    DCD    980624731
        0x08000fdc:    205d6425    %d]     DCD    542991397
        0x08000fe0:    e88bb8e4    ....    DCD    3901470948
        0x08000fe4:    a8e7bdbd    ....    DCD    2833759677
        0x08000fe8:    8fbae58b    ....    DCD    2411390347
        0x08000fec:    e5b088e5    ....    DCD    3853551845
        0x08000ff0:    83e996a4    ....    DCD    2213123748
        0x08000ff4:    616c66a8    .fla    DCD    1634494120
        0x08000ff8:    0d206873    sh .    DCD    220227699
        0x08000ffc:    0000000a    ....    DCD    10
        0x08001000:    3a73255b    [%s:    DCD    980624731
        0x08001004:    205d6425    %d]     DCD    542991397
        0x08001008:    e996a4e5    ....    DCD    3918963941
        0x0800100c:    6c66a883    ..fl    DCD    1818667139
        0x08001010:    e5687361    ash.    DCD    3848827745
        0x08001014:    85e59986    ....    DCD    2246416774
        0x08001018:    93bbe7a5    ....    DCD    2478565285
        0x0800101c:    209f9de6    ...     DCD    547331558
        0x08001020:    00000a0d    ....    DCD    2573
        0x08001024:    3a73255b    [%s:    DCD    980624731
        0x08001028:    205d6425    %d]     DCD    542991397
        0x0800102c:    e7bfbde4    ....    DCD    3888102884
        0x08001030:    a4e5a894    ....    DCD    2766514324
        0x08001034:    a883e996    ....    DCD    2827217302
        0x08001038:    73616c66    flas    DCD    1935764582
        0x0800103c:    8ba8e768    h...    DCD    2343102312
        0x08001040:    208fbae5    ...     DCD    546290405
        0x08001044:    00000a0d    ....    DCD    2573
        0x08001048:    3a73255b    [%s:    DCD    980624731
        0x0800104c:    205d6425    %d]     DCD    542991397
        0x08001050:    e98586e5    ....    DCD    3917842149
        0x08001054:    6c66a883    ..fl    DCD    1818667139
        0x08001058:    e5687361    ash.    DCD    3848827745
        0x0800105c:    85e59986    ....    DCD    2246416774
        0x08001060:    93bbe7a5    ....    DCD    2478565285
        0x08001064:    209f9de6    ...     DCD    547331558
        0x08001068:    00000a0d    ....    DCD    2573
        0x0800106c:    3a73255b    [%s:    DCD    980624731
        0x08001070:    205d6425    %d]     DCD    542991397
        0x08001074:    e9a088e5    ....    DCD    3919612133
        0x08001078:    a4e5a499    ....    DCD    2766513305
        0x0800107c:    a883e996    ....    DCD    2827217302
        0x08001080:    73616c66    flas    DCD    1935764582
        0x08001084:    8ba8e768    h...    DCD    2343102312
        0x08001088:    208fbae5    ...     DCD    546290405
        0x0800108c:    00000a0d    ....    DCD    2573
        0x08001090:    3a73255b    [%s:    DCD    980624731
        0x08001094:    205d6425    %d]     DCD    542991397
        0x08001098:    e58080e9    ....    DCD    3850404073
        0x0800109c:    91e5ba87    ....    DCD    2447751815
        0x080010a0:    a4bbe4bd    ....    DCD    2763777213
        0x080010a4:    208ca1e8    ...     DCD    546087400
        0x080010a8:    00000a0d    ....    DCD    2573
        0x080010ac:    3a73255b    [%s:    DCD    980624731
        0x080010b0:    205d6425    %d]     DCD    542991397
        0x080010b4:    e68d87e9    ....    DCD    3868035049
        0x080010b8:    90e5b096    ....    DCD    2430972054
        0x080010bc:    a88ae5af    ....    DCD    2827675055
        0x080010c0:    000a0d20     ...    DCD    658720
    $t
    i.BootLoader_GoToAPP
    BootLoader_GoToAPP
        0x080010c4:    b570        p.      PUSH     {r4-r6,lr}
        0x080010c6:    bf00        ..      NOP      
        0x080010c8:    224d        M"      MOVS     r2,#0x4d
        0x080010ca:    a129        ).      ADR      r1,{pc}+0xa6 ; 0x8001170
        0x080010cc:    a02c        ,.      ADR      r0,{pc}+0xb4 ; 0x8001180
        0x080010ce:    f000fae7    ....    BL       CMD_USART_Printf ; 0x80016a0
        0x080010d2:    bf00        ..      NOP      
        0x080010d4:    2400        .$      MOVS     r4,#0
        0x080010d6:    e00d        ..      B        0x80010f4 ; BootLoader_GoToAPP + 48
        0x080010d8:    bf00        ..      NOP      
        0x080010da:    f1c40303    ....    RSB      r3,r4,#3
        0x080010de:    224f        O"      MOVS     r2,#0x4f
        0x080010e0:    a123        #.      ADR      r1,{pc}+0x90 ; 0x8001170
        0x080010e2:    a02f        /.      ADR      r0,{pc}+0xbe ; 0x80011a0
        0x080010e4:    f000fadc    ....    BL       CMD_USART_Printf ; 0x80016a0
        0x080010e8:    bf00        ..      NOP      
        0x080010ea:    2001        .       MOVS     r0,#1
        0x080010ec:    f000fb2e    ....    BL       Delay_s ; 0x800174c
        0x080010f0:    1c60        `.      ADDS     r0,r4,#1
        0x080010f2:    b2c4        ..      UXTB     r4,r0
        0x080010f4:    2c03        .,      CMP      r4,#3
        0x080010f6:    dbef        ..      BLT      0x80010d8 ; BootLoader_GoToAPP + 20
        0x080010f8:    f001ff18    ....    BL       Saving_OTAInfo ; 0x8002f2c
        0x080010fc:    2501        .%      MOVS     r5,#1
        0x080010fe:    2601        .&      MOVS     r6,#1
        0x08001100:    bf00        ..      NOP      
        0x08001102:    482b        +H      LDR      r0,[pc,#172] ; [0x80011b0] = 0x8005000
        0x08001104:    6800        .h      LDR      r0,[r0,#0]
        0x08001106:    f1b05f00    ..._    CMP      r0,#0x20000000
        0x0800110a:    d30a        ..      BCC      0x8001122 ; BootLoader_GoToAPP + 94
        0x0800110c:    4828        (H      LDR      r0,[pc,#160] ; [0x80011b0] = 0x8005000
        0x0800110e:    6800        .h      LDR      r0,[r0,#0]
        0x08001110:    4928        (I      LDR      r1,[pc,#160] ; [0x80011b4] = 0x20004fff
        0x08001112:    4288        .B      CMP      r0,r1
        0x08001114:    d805        ..      BHI      0x8001122 ; BootLoader_GoToAPP + 94
        0x08001116:    4926        &I      LDR      r1,[pc,#152] ; [0x80011b0] = 0x8005000
        0x08001118:    6808        .h      LDR      r0,[r1,#0]
        0x0800111a:    f7fefffa    ....    BL       __set_MSP ; 0x8000112
        0x0800111e:    2001        .       MOVS     r0,#1
        0x08001120:    e007        ..      B        0x8001132 ; BootLoader_GoToAPP + 110
        0x08001122:    bf00        ..      NOP      
        0x08001124:    223a        :"      MOVS     r2,#0x3a
        0x08001126:    a124        $.      ADR      r1,{pc}+0x92 ; 0x80011b8
        0x08001128:    a027        '.      ADR      r0,{pc}+0xa0 ; 0x80011c8
        0x0800112a:    f000fab9    ....    BL       CMD_USART_Printf ; 0x80016a0
        0x0800112e:    bf00        ..      NOP      
        0x08001130:    2000        .       MOVS     r0,#0
        0x08001132:    4605        .F      MOV      r5,r0
        0x08001134:    bf00        ..      NOP      
        0x08001136:    481e        .H      LDR      r0,[pc,#120] ; [0x80011b0] = 0x8005000
        0x08001138:    6840        @h      LDR      r0,[r0,#4]
        0x0800113a:    491d        .I      LDR      r1,[pc,#116] ; [0x80011b0] = 0x8005000
        0x0800113c:    4288        .B      CMP      r0,r1
        0x0800113e:    d308        ..      BCC      0x8001152 ; BootLoader_GoToAPP + 142
        0x08001140:    4608        .F      MOV      r0,r1
        0x08001142:    6840        @h      LDR      r0,[r0,#4]
        0x08001144:    492a        *I      LDR      r1,[pc,#168] ; [0x80011f0] = 0x8010000
        0x08001146:    4288        .B      CMP      r0,r1
        0x08001148:    d803        ..      BHI      0x8001152 ; BootLoader_GoToAPP + 142
        0x0800114a:    4819        .H      LDR      r0,[pc,#100] ; [0x80011b0] = 0x8005000
        0x0800114c:    6844        Dh      LDR      r4,[r0,#4]
        0x0800114e:    47a0        .G      BLX      r4
        0x08001150:    bf00        ..      NOP      
        0x08001152:    bf00        ..      NOP      
        0x08001154:    2246        F"      MOVS     r2,#0x46
        0x08001156:    a118        ..      ADR      r1,{pc}+0x62 ; 0x80011b8
        0x08001158:    a026        &.      ADR      r0,{pc}+0x9c ; 0x80011f4
        0x0800115a:    f000faa1    ....    BL       CMD_USART_Printf ; 0x80016a0
        0x0800115e:    bf00        ..      NOP      
        0x08001160:    2000        .       MOVS     r0,#0
        0x08001162:    4606        .F      MOV      r6,r0
        0x08001164:    b105        ..      CBZ      r5,0x8001168 ; BootLoader_GoToAPP + 164
        0x08001166:    b90e        ..      CBNZ     r6,0x800116c ; BootLoader_GoToAPP + 168
        0x08001168:    2000        .       MOVS     r0,#0
        0x0800116a:    bd70        p.      POP      {r4-r6,pc}
        0x0800116c:    2001        .       MOVS     r0,#1
        0x0800116e:    e7fc        ..      B        0x800116a ; BootLoader_GoToAPP + 166
    $d
        0x08001170:    64726148    Hard    DCD    1685217608
        0x08001174:    65726177    ware    DCD    1701994871
        0x08001178:    6f6f425c    \Boo    DCD    1869562460
        0x0800117c:    00632e74    t.c.    DCD    6499956
        0x08001180:    3a73255b    [%s:    DCD    980624731
        0x08001184:    205d6425    %d]     DCD    542991397
        0x08001188:    e5b38de5    ....    DCD    3853749733
        0x0800118c:    b7e886b0    ....    DCD    3085469360
        0x08001190:    acbde8b3    ....    DCD    2898127027
        0x08001194:    41b088e5    ...A    DCD    1102088421
        0x08001198:    0d205050    PP .    DCD    220221520
        0x0800119c:    0000000a    ....    DCD    10
        0x080011a0:    3a73255b    [%s:    DCD    980624731
        0x080011a4:    205d6425    %d]     DCD    542991397
        0x080011a8:    0a0d6425    %d..    DCD    168649765
        0x080011ac:    00000000    ....    DCD    0
        0x080011b0:    08005000    .P..    DCD    134238208
        0x080011b4:    20004fff    .O.     DCD    536891391
        0x080011b8:    64726148    Hard    DCD    1685217608
        0x080011bc:    65726177    ware    DCD    1701994871
        0x080011c0:    6f6f425c    \Boo    DCD    1869562460
        0x080011c4:    00632e74    t.c.    DCD    6499956
        0x080011c8:    3a73255b    [%s:    DCD    980624731
        0x080011cc:    205d6425    %d]     DCD    542991397
        0x080011d0:    6c696146    Fail    DCD    1818845510
        0x080011d4:    206f7420     to     DCD    544175136
        0x080011d8:    74206f67    go t    DCD    1948282727
        0x080011dc:    5041206f    o AP    DCD    1346445423
        0x080011e0:    49203a50    P: I    DCD    1226848848
        0x080011e4:    6961766e    nvai    DCD    1767994990
        0x080011e8:    5053206c    l SP    DCD    1347625068
        0x080011ec:    00000a0d    ....    DCD    2573
        0x080011f0:    08010000    ....    DCD    134283264
        0x080011f4:    3a73255b    [%s:    DCD    980624731
        0x080011f8:    205d6425    %d]     DCD    542991397
        0x080011fc:    6c696146    Fail    DCD    1818845510
        0x08001200:    206f7420     to     DCD    544175136
        0x08001204:    74206f67    go t    DCD    1948282727
        0x08001208:    5041206f    o AP    DCD    1346445423
        0x0800120c:    49203a50    P: I    DCD    1226848848
        0x08001210:    6961766e    nvai    DCD    1767994990
        0x08001214:    4350206c    l PC    DCD    1129324652
        0x08001218:    00000a0d    ....    DCD    2573
    $t
    i.BootLoader_Reset
    BootLoader_Reset
        0x0800121c:    bf00        ..      NOP      
        0x0800121e:    225f        _"      MOVS     r2,#0x5f
        0x08001220:    a113        ..      ADR      r1,{pc}+0x50 ; 0x8001270
        0x08001222:    a017        ..      ADR      r0,{pc}+0x5e ; 0x8001280
        0x08001224:    f000fa3c    ..<.    BL       CMD_USART_Printf ; 0x80016a0
        0x08001228:    bf00        ..      NOP      
        0x0800122a:    2400        .$      MOVS     r4,#0
        0x0800122c:    e00d        ..      B        0x800124a ; BootLoader_Reset + 46
        0x0800122e:    bf00        ..      NOP      
        0x08001230:    f1c40303    ....    RSB      r3,r4,#3
        0x08001234:    2261        a"      MOVS     r2,#0x61
        0x08001236:    a10e        ..      ADR      r1,{pc}+0x3a ; 0x8001270
        0x08001238:    a01a        ..      ADR      r0,{pc}+0x6c ; 0x80012a4
        0x0800123a:    f000fa31    ..1.    BL       CMD_USART_Printf ; 0x80016a0
        0x0800123e:    bf00        ..      NOP      
        0x08001240:    2001        .       MOVS     r0,#1
        0x08001242:    f000fa83    ....    BL       Delay_s ; 0x800174c
        0x08001246:    1c60        `.      ADDS     r0,r4,#1
        0x08001248:    b2c4        ..      UXTB     r4,r0
        0x0800124a:    2c03        .,      CMP      r4,#3
        0x0800124c:    dbef        ..      BLT      0x800122e ; BootLoader_Reset + 18
        0x0800124e:    f001fe6d    ..m.    BL       Saving_OTAInfo ; 0x8002f2c
        0x08001252:    bf00        ..      NOP      
        0x08001254:    4817        .H      LDR      r0,[pc,#92] ; [0x80012b4] = 0xe000ed0c
        0x08001256:    6800        .h      LDR      r0,[r0,#0]
        0x08001258:    f40060e0    ...`    AND      r0,r0,#0x700
        0x0800125c:    4916        .I      LDR      r1,[pc,#88] ; [0x80012b8] = 0x5fa0000
        0x0800125e:    4308        .C      ORRS     r0,r0,r1
        0x08001260:    1d00        ..      ADDS     r0,r0,#4
        0x08001262:    4914        .I      LDR      r1,[pc,#80] ; [0x80012b4] = 0xe000ed0c
        0x08001264:    6008        .`      STR      r0,[r1,#0]
        0x08001266:    f3bf8f4f    ..O.    DSB      
        0x0800126a:    bf00        ..      NOP      
        0x0800126c:    bf00        ..      NOP      
        0x0800126e:    e7fe        ..      B        0x800126e ; BootLoader_Reset + 82
    $d
        0x08001270:    64726148    Hard    DCD    1685217608
        0x08001274:    65726177    ware    DCD    1701994871
        0x08001278:    6f6f425c    \Boo    DCD    1869562460
        0x0800127c:    00632e74    t.c.    DCD    6499956
        0x08001280:    3a73255b    [%s:    DCD    980624731
        0x08001284:    205d6425    %d]     DCD    542991397
        0x08001288:    e5beaee8    ....    DCD    3854479080
        0x0800128c:    8de587a4    ....    DCD    2380629924
        0x08001290:    86b0e5b3    ....    DCD    2259740083
        0x08001294:    e58d87e9    ....    DCD    3851257833
        0x08001298:    2e2eaf90    ....    DCD    774811536
        0x0800129c:    0a0d202e    . ..    DCD    168632366
        0x080012a0:    00000000    ....    DCD    0
        0x080012a4:    3a73255b    [%s:    DCD    980624731
        0x080012a8:    205d6425    %d]     DCD    542991397
        0x080012ac:    0a0d6425    %d..    DCD    168649765
        0x080012b0:    00000000    ....    DCD    0
        0x080012b4:    e000ed0c    ....    DCD    3758157068
        0x080012b8:    05fa0000    ....    DCD    100270080
    $t
    i.BusFault_Handler
    BusFault_Handler
        0x080012bc:    bf00        ..      NOP      
        0x080012be:    e7fe        ..      B        0x80012be ; BusFault_Handler + 2
    i.CMD_Entrance
    CMD_Entrance
        0x080012c0:    b538        8.      PUSH     {r3-r5,lr}
        0x080012c2:    bf00        ..      NOP      
        0x080012c4:    2363        c#      MOVS     r3,#0x63
        0x080012c6:    2214        ."      MOVS     r2,#0x14
        0x080012c8:    a10f        ..      ADR      r1,{pc}+0x40 ; 0x8001308
        0x080012ca:    a013        ..      ADR      r0,{pc}+0x4e ; 0x8001318
        0x080012cc:    f000f9e8    ....    BL       CMD_USART_Printf ; 0x80016a0
        0x080012d0:    bf00        ..      NOP      
        0x080012d2:    f2413488    A..4    MOV      r4,#0x1388
        0x080012d6:    2000        .       MOVS     r0,#0
        0x080012d8:    9000        ..      STR      r0,[sp,#0]
        0x080012da:    e00d        ..      B        0x80012f8 ; CMD_Entrance + 56
        0x080012dc:    2201        ."      MOVS     r2,#1
        0x080012de:    4669        iF      MOV      r1,sp
        0x080012e0:    481a        .H      LDR      r0,[pc,#104] ; [0x800134c] = 0x20000028
        0x080012e2:    f001fd3f    ..?.    BL       RingBuffer_ReadFrame ; 0x8002d64
        0x080012e6:    f89d0000    ....    LDRB     r0,[sp,#0]
        0x080012ea:    2863        c(      CMP      r0,#0x63
        0x080012ec:    d101        ..      BNE      0x80012f2 ; CMD_Entrance + 50
        0x080012ee:    2001        .       MOVS     r0,#1
        0x080012f0:    bd38        8.      POP      {r3-r5,pc}
        0x080012f2:    2001        .       MOVS     r0,#1
        0x080012f4:    f000fa1e    ....    BL       Delay_ms ; 0x8001734
        0x080012f8:    1e20         .      SUBS     r0,r4,#0
        0x080012fa:    f1a40101    ....    SUB      r1,r4,#1
        0x080012fe:    b28c        ..      UXTH     r4,r1
        0x08001300:    d1ec        ..      BNE      0x80012dc ; CMD_Entrance + 28
        0x08001302:    bf00        ..      NOP      
        0x08001304:    e7f4        ..      B        0x80012f0 ; CMD_Entrance + 48
    $d
        0x08001306:    0000        ..      DCW    0
        0x08001308:    6c697455    Util    DCD    1818850389
        0x0800130c:    65697469    itie    DCD    1701409897
        0x08001310:    4d435c73    s\CM    DCD    1296260211
        0x08001314:    00632e44    D.c.    DCD    6499908
        0x08001318:    3a73255b    [%s:    DCD    980624731
        0x0800131c:    205d6425    %d]     DCD    542991397
        0x08001320:    86e57335    5s..    DCD    2263184181
        0x08001324:    898ce685    ....    DCD    2307712645
        0x08001328:    208bb8e4    ...     DCD    546027748
        0x0800132c:    27632527    '%c'    DCD    660808999
        0x08001330:    9bbfe820     ...    DCD    2613045280
        0x08001334:    20a585e5    ...     DCD    547718629
        0x08001338:    746f6f42    Boot    DCD    1953460034
        0x0800133c:    64616f4c    Load    DCD    1684107084
        0x08001340:    43207265    er C    DCD    1126199909
        0x08001344:    0d20444d    MD .    DCD    220218445
        0x08001348:    0000000a    ....    DCD    10
        0x0800134c:    20000028    (..     DCD    536870952
    $t
    i.CMD_Menu
    CMD_Menu
        0x08001350:    b508        ..      PUSH     {r3,lr}
        0x08001352:    bf00        ..      NOP      
        0x08001354:    2224        $"      MOVS     r2,#0x24
        0x08001356:    a135        5.      ADR      r1,{pc}+0xd6 ; 0x800142c
        0x08001358:    a038        8.      ADR      r0,{pc}+0xe4 ; 0x800143c
        0x0800135a:    f000f9a1    ....    BL       CMD_USART_Printf ; 0x80016a0
        0x0800135e:    bf00        ..      NOP      
        0x08001360:    bf00        ..      NOP      
        0x08001362:    2301        .#      MOVS     r3,#1
        0x08001364:    2225        %"      MOVS     r2,#0x25
        0x08001366:    a131        1.      ADR      r1,{pc}+0xc6 ; 0x800142c
        0x08001368:    a03e        >.      ADR      r0,{pc}+0xfc ; 0x8001464
        0x0800136a:    f000f999    ....    BL       CMD_USART_Printf ; 0x80016a0
        0x0800136e:    bf00        ..      NOP      
        0x08001370:    bf00        ..      NOP      
        0x08001372:    2302        .#      MOVS     r3,#2
        0x08001374:    2226        &"      MOVS     r2,#0x26
        0x08001376:    a12d        -.      ADR      r1,{pc}+0xb6 ; 0x800142c
        0x08001378:    a041        A.      ADR      r0,{pc}+0x108 ; 0x8001480
        0x0800137a:    f000f991    ....    BL       CMD_USART_Printf ; 0x80016a0
        0x0800137e:    bf00        ..      NOP      
        0x08001380:    bf00        ..      NOP      
        0x08001382:    2303        .#      MOVS     r3,#3
        0x08001384:    2227        '"      MOVS     r2,#0x27
        0x08001386:    a129        ).      ADR      r1,{pc}+0xa6 ; 0x800142c
        0x08001388:    a047        G.      ADR      r0,{pc}+0x120 ; 0x80014a8
        0x0800138a:    f000f989    ....    BL       CMD_USART_Printf ; 0x80016a0
        0x0800138e:    bf00        ..      NOP      
        0x08001390:    bf00        ..      NOP      
        0x08001392:    2304        .#      MOVS     r3,#4
        0x08001394:    2228        ("      MOVS     r2,#0x28
        0x08001396:    a125        %.      ADR      r1,{pc}+0x96 ; 0x800142c
        0x08001398:    a04e        N.      ADR      r0,{pc}+0x13c ; 0x80014d4
        0x0800139a:    f000f981    ....    BL       CMD_USART_Printf ; 0x80016a0
        0x0800139e:    bf00        ..      NOP      
        0x080013a0:    bf00        ..      NOP      
        0x080013a2:    2305        .#      MOVS     r3,#5
        0x080013a4:    2229        )"      MOVS     r2,#0x29
        0x080013a6:    a121        !.      ADR      r1,{pc}+0x86 ; 0x800142c
        0x080013a8:    a055        U.      ADR      r0,{pc}+0x158 ; 0x8001500
        0x080013aa:    f000f979    ..y.    BL       CMD_USART_Printf ; 0x80016a0
        0x080013ae:    bf00        ..      NOP      
        0x080013b0:    bf00        ..      NOP      
        0x080013b2:    2306        .#      MOVS     r3,#6
        0x080013b4:    222a        *"      MOVS     r2,#0x2a
        0x080013b6:    a11d        ..      ADR      r1,{pc}+0x76 ; 0x800142c
        0x080013b8:    a05c        \.      ADR      r0,{pc}+0x174 ; 0x800152c
        0x080013ba:    f000f971    ..q.    BL       CMD_USART_Printf ; 0x80016a0
        0x080013be:    bf00        ..      NOP      
        0x080013c0:    bf00        ..      NOP      
        0x080013c2:    2307        .#      MOVS     r3,#7
        0x080013c4:    222b        +"      MOVS     r2,#0x2b
        0x080013c6:    a119        ..      ADR      r1,{pc}+0x66 ; 0x800142c
        0x080013c8:    a064        d.      ADR      r0,{pc}+0x194 ; 0x800155c
        0x080013ca:    f000f969    ..i.    BL       CMD_USART_Printf ; 0x80016a0
        0x080013ce:    bf00        ..      NOP      
        0x080013d0:    bf00        ..      NOP      
        0x080013d2:    2308        .#      MOVS     r3,#8
        0x080013d4:    222c        ,"      MOVS     r2,#0x2c
        0x080013d6:    a115        ..      ADR      r1,{pc}+0x56 ; 0x800142c
        0x080013d8:    a06c        l.      ADR      r0,{pc}+0x1b4 ; 0x800158c
        0x080013da:    f000f961    ..a.    BL       CMD_USART_Printf ; 0x80016a0
        0x080013de:    bf00        ..      NOP      
        0x080013e0:    bf00        ..      NOP      
        0x080013e2:    2309        .#      MOVS     r3,#9
        0x080013e4:    222d        -"      MOVS     r2,#0x2d
        0x080013e6:    a111        ..      ADR      r1,{pc}+0x46 ; 0x800142c
        0x080013e8:    a073        s.      ADR      r0,{pc}+0x1d0 ; 0x80015b8
        0x080013ea:    f000f959    ..Y.    BL       CMD_USART_Printf ; 0x80016a0
        0x080013ee:    bf00        ..      NOP      
        0x080013f0:    2000        .       MOVS     r0,#0
        0x080013f2:    9000        ..      STR      r0,[sp,#0]
        0x080013f4:    e004        ..      B        0x8001400 ; CMD_Menu + 176
        0x080013f6:    2201        ."      MOVS     r2,#1
        0x080013f8:    4669        iF      MOV      r1,sp
        0x080013fa:    4876        vH      LDR      r0,[pc,#472] ; [0x80015d4] = 0x20000028
        0x080013fc:    f001fcb2    ....    BL       RingBuffer_ReadFrame ; 0x8002d64
        0x08001400:    f89d0000    ....    LDRB     r0,[sp,#0]
        0x08001404:    2800        .(      CMP      r0,#0
        0x08001406:    d0f6        ..      BEQ      0x80013f6 ; CMD_Menu + 166
        0x08001408:    f89d0000    ....    LDRB     r0,[sp,#0]
        0x0800140c:    3830        08      SUBS     r0,r0,#0x30
        0x0800140e:    b2c0        ..      UXTB     r0,r0
        0x08001410:    9000        ..      STR      r0,[sp,#0]
        0x08001412:    f89d0000    ....    LDRB     r0,[sp,#0]
        0x08001416:    2801        .(      CMP      r0,#1
        0x08001418:    db06        ..      BLT      0x8001428 ; CMD_Menu + 216
        0x0800141a:    f89d0000    ....    LDRB     r0,[sp,#0]
        0x0800141e:    280a        .(      CMP      r0,#0xa
        0x08001420:    da02        ..      BGE      0x8001428 ; CMD_Menu + 216
        0x08001422:    f89d0000    ....    LDRB     r0,[sp,#0]
        0x08001426:    bd08        ..      POP      {r3,pc}
        0x08001428:    2000        .       MOVS     r0,#0
        0x0800142a:    e7fc        ..      B        0x8001426 ; CMD_Menu + 214
    $d
        0x0800142c:    6c697455    Util    DCD    1818850389
        0x08001430:    65697469    itie    DCD    1701409897
        0x08001434:    4d435c73    s\CM    DCD    1296260211
        0x08001438:    00632e44    D.c.    DCD    6499908
        0x0800143c:    3a73255b    [%s:    DCD    980624731
        0x08001440:    205d6425    %d]     DCD    542991397
        0x08001444:    2d2d2d2d    ----    DCD    757935405
        0x08001448:    6f422d2d    --Bo    DCD    1866607917
        0x0800144c:    6f4c746f    otLo    DCD    1867281519
        0x08001450:    72656461    ader    DCD    1919247457
        0x08001454:    444d4320     CMD    DCD    1145914144
        0x08001458:    2d2d2d2d    ----    DCD    757935405
        0x0800145c:    0a0d2d2d    --..    DCD    168635693
        0x08001460:    00000000    ....    DCD    0
        0x08001464:    3a73255b    [%s:    DCD    980624731
        0x08001468:    205d6425    %d]     DCD    542991397
        0x0800146c:    5d64255b    [%d]    DCD    1566844251
        0x08001470:    e9a693e6    ....    DCD    3920008166
        0x08001474:    e541a499    ..A.    DCD    3846284441
        0x08001478:    0d20ba8c    .. .    DCD    220248716
        0x0800147c:    0000000a    ....    DCD    10
        0x08001480:    3a73255b    [%s:    DCD    980624731
        0x08001484:    205d6425    %d]     DCD    542991397
        0x08001488:    5d64255b    [%d]    DCD    1566844251
        0x0800148c:    e5b2b8e4    ....    DCD    3853695204
        0x08001490:    4149a38f    ..IA    DCD    1095345039
        0x08001494:    8bb8e450    P...    DCD    2344150096
        0x08001498:    e7bdbde8    ....    DCD    3887971816
        0x0800149c:    bae58ba8    ....    DCD    3135605672
        0x080014a0:    0a0d208f    . ..    DCD    168632463
        0x080014a4:    00000000    ....    DCD    0
        0x080014a8:    3a73255b    [%s:    DCD    980624731
        0x080014ac:    205d6425    %d]     DCD    542991397
        0x080014b0:    5d64255b    [%d]    DCD    1566844251
        0x080014b4:    e7beaee8    ....    DCD    3888033512
        0x080014b8:    5041aebd    ..AP    DCD    1346481853
        0x080014bc:    8ba8e750    P...    DCD    2343102288
        0x080014c0:    e78fbae5    ....    DCD    3884956389
        0x080014c4:    9ce68889    ....    DCD    2632353929
        0x080014c8:    a1bfe4ac    ....    DCD    2713707692
        0x080014cc:    20af81e6    ...     DCD    548372966
        0x080014d0:    00000a0d    ....    DCD    2573
        0x080014d4:    3a73255b    [%s:    DCD    980624731
        0x080014d8:    205d6425    %d]     DCD    542991397
        0x080014dc:    5d64255b    [%d]    DCD    1566844251
        0x080014e0:    e5b78ee8    ....    DCD    3854012136
        0x080014e4:    5041968f    ..AP    DCD    1346475663
        0x080014e8:    8ba8e750    P...    DCD    2343102288
        0x080014ec:    e78fbae5    ....    DCD    3884956389
        0x080014f0:    9ce68889    ....    DCD    2632353929
        0x080014f4:    a1bfe4ac    ....    DCD    2713707692
        0x080014f8:    20af81e6    ...     DCD    548372966
        0x080014fc:    00000a0d    ....    DCD    2573
        0x08001500:    3a73255b    [%s:    DCD    980624731
        0x08001504:    205d6425    %d]     DCD    542991397
        0x08001508:    5d64255b    [%d]    DCD    1566844251
        0x0800150c:    e88bb8e4    ....    DCD    3901470948
        0x08001510:    a8e7bdbd    ....    DCD    2833759677
        0x08001514:    8fbae58b    ....    DCD    2411390347
        0x08001518:    e5b088e5    ....    DCD    3853551845
        0x0800151c:    83e996a4    ....    DCD    2213123748
        0x08001520:    616c66a8    .fla    DCD    1634494120
        0x08001524:    0d206873    sh .    DCD    220227699
        0x08001528:    0000000a    ....    DCD    10
        0x0800152c:    3a73255b    [%s:    DCD    980624731
        0x08001530:    205d6425    %d]     DCD    542991397
        0x08001534:    5d64255b    [%d]    DCD    1566844251
        0x08001538:    e7bfbde4    ....    DCD    3888102884
        0x0800153c:    a4e5a894    ....    DCD    2766514324
        0x08001540:    a883e996    ....    DCD    2827217302
        0x08001544:    73616c66    flas    DCD    1935764582
        0x08001548:    adb8e468    h...    DCD    2914575464
        0x0800154c:    e7849ae7    ....    DCD    3884227303
        0x08001550:    bae58ba8    ....    DCD    3135605672
        0x08001554:    0a0d208f    . ..    DCD    168632463
        0x08001558:    00000000    ....    DCD    0
        0x0800155c:    3a73255b    [%s:    DCD    980624731
        0x08001560:    205d6425    %d]     DCD    542991397
        0x08001564:    5d64255b    [%d]    DCD    1566844251
        0x08001568:    e9a088e5    ....    DCD    3919612133
        0x0800156c:    a4e5a499    ....    DCD    2766513305
        0x08001570:    a883e996    ....    DCD    2827217302
        0x08001574:    73616c66    flas    DCD    1935764582
        0x08001578:    adb8e468    h...    DCD    2914575464
        0x0800157c:    e7849ae7    ....    DCD    3884227303
        0x08001580:    bae58ba8    ....    DCD    3135605672
        0x08001584:    0a0d208f    . ..    DCD    168632463
        0x08001588:    00000000    ....    DCD    0
        0x0800158c:    3a73255b    [%s:    DCD    980624731
        0x08001590:    205d6425    %d]     DCD    542991397
        0x08001594:    5d64255b    [%d]    DCD    1566844251
        0x08001598:    e58080e9    ....    DCD    3850404073
        0x0800159c:    91e5ba87    ....    DCD    2447751815
        0x080015a0:    a4bbe4bd    ....    DCD    2763777213
        0x080015a4:    ef8ca1e8    ....    DCD    4018971112
        0x080015a8:    bfe88cbc    ....    DCD    3219688636
        0x080015ac:    a585e59b    ....    DCD    2777015707
        0x080015b0:    20505041    APP     DCD    542134337
        0x080015b4:    00000a0d    ....    DCD    2573
        0x080015b8:    3a73255b    [%s:    DCD    980624731
        0x080015bc:    205d6425    %d]     DCD    542991397
        0x080015c0:    5d64255b    [%d]    DCD    1566844251
        0x080015c4:    e68d87e9    ....    DCD    3868035049
        0x080015c8:    90e5b096    ....    DCD    2430972054
        0x080015cc:    a88ae5af    ....    DCD    2827675055
        0x080015d0:    000a0d20     ...    DCD    658720
        0x080015d4:    20000028    (..     DCD    536870952
    $t
    i.CMD_USART_Init
    CMD_USART_Init
        0x080015d8:    b500        ..      PUSH     {lr}
        0x080015da:    b087        ..      SUB      sp,sp,#0x1c
        0x080015dc:    2101        .!      MOVS     r1,#1
        0x080015de:    0448        H.      LSLS     r0,r1,#17
        0x080015e0:    f001fac8    ....    BL       RCC_APB1PeriphClockCmd ; 0x8002b74
        0x080015e4:    2101        .!      MOVS     r1,#1
        0x080015e6:    2004        .       MOVS     r0,#4
        0x080015e8:    f001fae4    ....    BL       RCC_APB2PeriphClockCmd ; 0x8002bb4
        0x080015ec:    2018        .       MOVS     r0,#0x18
        0x080015ee:    f88d001b    ....    STRB     r0,[sp,#0x1b]
        0x080015f2:    2004        .       MOVS     r0,#4
        0x080015f4:    f8ad0018    ....    STRH     r0,[sp,#0x18]
        0x080015f8:    2003        .       MOVS     r0,#3
        0x080015fa:    f88d001a    ....    STRB     r0,[sp,#0x1a]
        0x080015fe:    a906        ..      ADD      r1,sp,#0x18
        0x08001600:    4825        %H      LDR      r0,[pc,#148] ; [0x8001698] = 0x40010800
        0x08001602:    f000fe66    ..f.    BL       GPIO_Init ; 0x80022d2
        0x08001606:    2048        H       MOVS     r0,#0x48
        0x08001608:    f88d001b    ....    STRB     r0,[sp,#0x1b]
        0x0800160c:    2008        .       MOVS     r0,#8
        0x0800160e:    f8ad0018    ....    STRH     r0,[sp,#0x18]
        0x08001612:    2003        .       MOVS     r0,#3
        0x08001614:    f88d001a    ....    STRB     r0,[sp,#0x1a]
        0x08001618:    a906        ..      ADD      r1,sp,#0x18
        0x0800161a:    481f        .H      LDR      r0,[pc,#124] ; [0x8001698] = 0x40010800
        0x0800161c:    f000fe59    ..Y.    BL       GPIO_Init ; 0x80022d2
        0x08001620:    481e        .H      LDR      r0,[pc,#120] ; [0x800169c] = 0x40004400
        0x08001622:    f001fe11    ....    BL       USART_DeInit ; 0x8003248
        0x08001626:    f44f30e1    O..0    MOV      r0,#0x1c200
        0x0800162a:    9002        ..      STR      r0,[sp,#8]
        0x0800162c:    2000        .       MOVS     r0,#0
        0x0800162e:    f8ad0014    ....    STRH     r0,[sp,#0x14]
        0x08001632:    200c        .       MOVS     r0,#0xc
        0x08001634:    f8ad0012    ....    STRH     r0,[sp,#0x12]
        0x08001638:    2000        .       MOVS     r0,#0
        0x0800163a:    f8ad0010    ....    STRH     r0,[sp,#0x10]
        0x0800163e:    f8ad000e    ....    STRH     r0,[sp,#0xe]
        0x08001642:    f8ad000c    ....    STRH     r0,[sp,#0xc]
        0x08001646:    a902        ..      ADD      r1,sp,#8
        0x08001648:    4814        .H      LDR      r0,[pc,#80] ; [0x800169c] = 0x40004400
        0x0800164a:    f001fed3    ....    BL       USART_Init ; 0x80033f4
        0x0800164e:    2201        ."      MOVS     r2,#1
        0x08001650:    f2404124    @.$A    MOV      r1,#0x424
        0x08001654:    4811        .H      LDR      r0,[pc,#68] ; [0x800169c] = 0x40004400
        0x08001656:    f001fea7    ....    BL       USART_ITConfig ; 0x80033a8
        0x0800165a:    2201        ."      MOVS     r2,#1
        0x0800165c:    f2405125    @.%Q    MOV      r1,#0x525
        0x08001660:    480e        .H      LDR      r0,[pc,#56] ; [0x800169c] = 0x40004400
        0x08001662:    f001fea1    ....    BL       USART_ITConfig ; 0x80033a8
        0x08001666:    f44f7040    O.@p    MOV      r0,#0x300
        0x0800166a:    f001f9a9    ....    BL       NVIC_PriorityGroupConfig ; 0x80029c0
        0x0800166e:    2026        &       MOVS     r0,#0x26
        0x08001670:    f88d0004    ....    STRB     r0,[sp,#4]
        0x08001674:    2001        .       MOVS     r0,#1
        0x08001676:    f88d0007    ....    STRB     r0,[sp,#7]
        0x0800167a:    2002        .       MOVS     r0,#2
        0x0800167c:    f88d0005    ....    STRB     r0,[sp,#5]
        0x08001680:    2000        .       MOVS     r0,#0
        0x08001682:    f88d0006    ....    STRB     r0,[sp,#6]
        0x08001686:    a801        ..      ADD      r0,sp,#4
        0x08001688:    f001f962    ..b.    BL       NVIC_Init ; 0x8002950
        0x0800168c:    2101        .!      MOVS     r1,#1
        0x0800168e:    4803        .H      LDR      r0,[pc,#12] ; [0x800169c] = 0x40004400
        0x08001690:    f001fdce    ....    BL       USART_Cmd ; 0x8003230
        0x08001694:    b007        ..      ADD      sp,sp,#0x1c
        0x08001696:    bd00        ..      POP      {pc}
    $d
        0x08001698:    40010800    ...@    DCD    1073809408
        0x0800169c:    40004400    .D.@    DCD    1073759232
    $t
    i.CMD_USART_Printf
    CMD_USART_Printf
        0x080016a0:    b40f        ..      PUSH     {r0-r3}
        0x080016a2:    b500        ..      PUSH     {lr}
        0x080016a4:    b0c1        ..      SUB      sp,sp,#0x104
        0x080016a6:    a843        C.      ADD      r0,sp,#0x10c
        0x080016a8:    9000        ..      STR      r0,[sp,#0]
        0x080016aa:    f44f7180    O..q    MOV      r1,#0x100
        0x080016ae:    a801        ..      ADD      r0,sp,#4
        0x080016b0:    9b00        ..      LDR      r3,[sp,#0]
        0x080016b2:    9a42        B.      LDR      r2,[sp,#0x108]
        0x080016b4:    f002f9d6    ....    BL       __0vsnprintf ; 0x8003a64
        0x080016b8:    2000        .       MOVS     r0,#0
        0x080016ba:    9000        ..      STR      r0,[sp,#0]
        0x080016bc:    a801        ..      ADD      r0,sp,#4
        0x080016be:    f000f81b    ....    BL       CMD_USART_SendString ; 0x80016f8
        0x080016c2:    b041        A.      ADD      sp,sp,#0x104
        0x080016c4:    f85dfb14    ]...    LDR      pc,[sp],#0x14
    i.CMD_USART_SendByte
    CMD_USART_SendByte
        0x080016c8:    b510        ..      PUSH     {r4,lr}
        0x080016ca:    4604        .F      MOV      r4,r0
        0x080016cc:    4621        !F      MOV      r1,r4
        0x080016ce:    4809        .H      LDR      r0,[pc,#36] ; [0x80016f4] = 0x40004400
        0x080016d0:    f001ff01    ....    BL       USART_SendData ; 0x80034d6
        0x080016d4:    bf00        ..      NOP      
        0x080016d6:    2180        .!      MOVS     r1,#0x80
        0x080016d8:    4806        .H      LDR      r0,[pc,#24] ; [0x80016f4] = 0x40004400
        0x080016da:    f001fe03    ....    BL       USART_GetFlagStatus ; 0x80032e4
        0x080016de:    2800        .(      CMP      r0,#0
        0x080016e0:    d0f9        ..      BEQ      0x80016d6 ; CMD_USART_SendByte + 14
        0x080016e2:    bf00        ..      NOP      
        0x080016e4:    2140        @!      MOVS     r1,#0x40
        0x080016e6:    4803        .H      LDR      r0,[pc,#12] ; [0x80016f4] = 0x40004400
        0x080016e8:    f001fdfc    ....    BL       USART_GetFlagStatus ; 0x80032e4
        0x080016ec:    2800        .(      CMP      r0,#0
        0x080016ee:    d0f9        ..      BEQ      0x80016e4 ; CMD_USART_SendByte + 28
        0x080016f0:    bd10        ..      POP      {r4,pc}
    $d
        0x080016f2:    0000        ..      DCW    0
        0x080016f4:    40004400    .D.@    DCD    1073759232
    $t
    i.CMD_USART_SendString
    CMD_USART_SendString
        0x080016f8:    b570        p.      PUSH     {r4-r6,lr}
        0x080016fa:    4604        .F      MOV      r4,r0
        0x080016fc:    2500        .%      MOVS     r5,#0
        0x080016fe:    e004        ..      B        0x800170a ; CMD_USART_SendString + 18
        0x08001700:    5d60        `]      LDRB     r0,[r4,r5]
        0x08001702:    f7ffffe1    ....    BL       CMD_USART_SendByte ; 0x80016c8
        0x08001706:    1c68        h.      ADDS     r0,r5,#1
        0x08001708:    b2c5        ..      UXTB     r5,r0
        0x0800170a:    5d60        `]      LDRB     r0,[r4,r5]
        0x0800170c:    2800        .(      CMP      r0,#0
        0x0800170e:    d1f7        ..      BNE      0x8001700 ; CMD_USART_SendString + 8
        0x08001710:    bd70        p.      POP      {r4-r6,pc}
    i.Create_FCBListItem
    Create_FCBListItem
        0x08001712:    b570        p.      PUSH     {r4-r6,lr}
        0x08001714:    4605        .F      MOV      r5,r0
        0x08001716:    460e        .F      MOV      r6,r1
        0x08001718:    2008        .       MOVS     r0,#8
        0x0800171a:    f002ff37    ..7.    BL       malloc ; 0x800458c
        0x0800171e:    4604        .F      MOV      r4,r0
        0x08001720:    b90c        ..      CBNZ     r4,0x8001726 ; Create_FCBListItem + 20
        0x08001722:    2000        .       MOVS     r0,#0
        0x08001724:    bd70        p.      POP      {r4-r6,pc}
        0x08001726:    8025        %.      STRH     r5,[r4,#0]
        0x08001728:    8066        f.      STRH     r6,[r4,#2]
        0x0800172a:    2000        .       MOVS     r0,#0
        0x0800172c:    6060        ``      STR      r0,[r4,#4]
        0x0800172e:    4620         F      MOV      r0,r4
        0x08001730:    e7f8        ..      B        0x8001724 ; Create_FCBListItem + 18
    i.DebugMon_Handler
    DebugMon_Handler
        0x08001732:    4770        pG      BX       lr
    i.Delay_ms
    Delay_ms
        0x08001734:    b500        ..      PUSH     {lr}
        0x08001736:    4603        .F      MOV      r3,r0
        0x08001738:    e003        ..      B        0x8001742 ; Delay_ms + 14
        0x0800173a:    f44f707a    O.zp    MOV      r0,#0x3e8
        0x0800173e:    f000f811    ....    BL       Delay_us ; 0x8001764
        0x08001742:    1e18        ..      SUBS     r0,r3,#0
        0x08001744:    f1a30301    ....    SUB      r3,r3,#1
        0x08001748:    d1f7        ..      BNE      0x800173a ; Delay_ms + 6
        0x0800174a:    bd00        ..      POP      {pc}
    i.Delay_s
    Delay_s
        0x0800174c:    b510        ..      PUSH     {r4,lr}
        0x0800174e:    4604        .F      MOV      r4,r0
        0x08001750:    e003        ..      B        0x800175a ; Delay_s + 14
        0x08001752:    f44f707a    O.zp    MOV      r0,#0x3e8
        0x08001756:    f7ffffed    ....    BL       Delay_ms ; 0x8001734
        0x0800175a:    1e20         .      SUBS     r0,r4,#0
        0x0800175c:    f1a40401    ....    SUB      r4,r4,#1
        0x08001760:    d1f7        ..      BNE      0x8001752 ; Delay_s + 6
        0x08001762:    bd10        ..      POP      {r4,pc}
    i.Delay_us
    Delay_us
        0x08001764:    eb0001c0    ....    ADD      r1,r0,r0,LSL #3
        0x08001768:    00c9        ..      LSLS     r1,r1,#3
        0x0800176a:    f04f22e0    O.."    MOV      r2,#0xe000e000
        0x0800176e:    6151        Qa      STR      r1,[r2,#0x14]
        0x08001770:    2100        .!      MOVS     r1,#0
        0x08001772:    6191        .a      STR      r1,[r2,#0x18]
        0x08001774:    2105        .!      MOVS     r1,#5
        0x08001776:    6111        .a      STR      r1,[r2,#0x10]
        0x08001778:    bf00        ..      NOP      
        0x0800177a:    f04f21e0    O..!    MOV      r1,#0xe000e000
        0x0800177e:    6909        .i      LDR      r1,[r1,#0x10]
        0x08001780:    f4013180    ...1    AND      r1,r1,#0x10000
        0x08001784:    2900        .)      CMP      r1,#0
        0x08001786:    d0f8        ..      BEQ      0x800177a ; Delay_us + 22
        0x08001788:    f04f21e0    O..!    MOV      r1,#0xe000e000
        0x0800178c:    6909        .i      LDR      r1,[r1,#0x10]
        0x0800178e:    f0210101    !...    BIC      r1,r1,#1
        0x08001792:    f04f22e0    O.."    MOV      r2,#0xe000e000
        0x08001796:    6111        .a      STR      r1,[r2,#0x10]
        0x08001798:    4770        pG      BX       lr
        0x0800179a:    0000        ..      MOVS     r0,r0
    i.Detect_OnlineOTA
    Detect_OnlineOTA
        0x0800179c:    b510        ..      PUSH     {r4,lr}
        0x0800179e:    480f        .H      LDR      r0,[pc,#60] ; [0x80017dc] = 0x2000043c
        0x080017a0:    7800        .x      LDRB     r0,[r0,#0]
        0x080017a2:    28ab        .(      CMP      r0,#0xab
        0x080017a4:    d10c        ..      BNE      0x80017c0 ; Detect_OnlineOTA + 36
        0x080017a6:    bf00        ..      NOP      
        0x080017a8:    480c        .H      LDR      r0,[pc,#48] ; [0x80017dc] = 0x2000043c
        0x080017aa:    7803        .x      LDRB     r3,[r0,#0]
        0x080017ac:    220a        ."      MOVS     r2,#0xa
        0x080017ae:    a10c        ..      ADR      r1,{pc}+0x32 ; 0x80017e0
        0x080017b0:    a00f        ..      ADR      r0,{pc}+0x40 ; 0x80017f0
        0x080017b2:    f7ffff75    ..u.    BL       CMD_USART_Printf ; 0x80016a0
        0x080017b6:    bf00        ..      NOP      
        0x080017b8:    2001        .       MOVS     r0,#1
        0x080017ba:    4919        .I      LDR      r1,[pc,#100] ; [0x8001820] = 0x2000001c
        0x080017bc:    7008        .p      STRB     r0,[r1,#0]
        0x080017be:    e00b        ..      B        0x80017d8 ; Detect_OnlineOTA + 60
        0x080017c0:    2000        .       MOVS     r0,#0
        0x080017c2:    4917        .I      LDR      r1,[pc,#92] ; [0x8001820] = 0x2000001c
        0x080017c4:    7008        .p      STRB     r0,[r1,#0]
        0x080017c6:    bf00        ..      NOP      
        0x080017c8:    4804        .H      LDR      r0,[pc,#16] ; [0x80017dc] = 0x2000043c
        0x080017ca:    7803        .x      LDRB     r3,[r0,#0]
        0x080017cc:    2211        ."      MOVS     r2,#0x11
        0x080017ce:    a104        ..      ADR      r1,{pc}+0x12 ; 0x80017e0
        0x080017d0:    a014        ..      ADR      r0,{pc}+0x54 ; 0x8001824
        0x080017d2:    f7ffff65    ..e.    BL       CMD_USART_Printf ; 0x80016a0
        0x080017d6:    bf00        ..      NOP      
        0x080017d8:    bd10        ..      POP      {r4,pc}
    $d
        0x080017da:    0000        ..      DCW    0
        0x080017dc:    2000043c    <..     DCD    536871996
        0x080017e0:    64726148    Hard    DCD    1685217608
        0x080017e4:    65726177    ware    DCD    1701994871
        0x080017e8:    6f6f425c    \Boo    DCD    1869562460
        0x080017ec:    00632e74    t.c.    DCD    6499956
        0x080017f0:    3a73255b    [%s:    DCD    980624731
        0x080017f4:    205d6425    %d]     DCD    542991397
        0x080017f8:    5f41544f    OTA_    DCD    1598116943
        0x080017fc:    67616c46    Flag    DCD    1734437958
        0x08001800:    2c78253a    :%x,    DCD    746071354
        0x08001804:    63657220     rec    DCD    1667592736
        0x08001808:    65766569    ieve    DCD    1702258025
        0x0800180c:    6c6e6f20     onl    DCD    1819176736
        0x08001810:    20656e69    ine     DCD    543518313
        0x08001814:    2061746f    ota     DCD    543257711
        0x08001818:    6e657665    even    DCD    1852143205
        0x0800181c:    000a0d74    t...    DCD    658804
        0x08001820:    2000001c    ...     DCD    536870940
        0x08001824:    3a73255b    [%s:    DCD    980624731
        0x08001828:    205d6425    %d]     DCD    542991397
        0x0800182c:    5f41544f    OTA_    DCD    1598116943
        0x08001830:    67616c46    Flag    DCD    1734437958
        0x08001834:    2c78253a    :%x,    DCD    746071354
        0x08001838:    206f6e20     no     DCD    544173600
        0x0800183c:    2061746f    ota     DCD    543257711
        0x08001840:    6e657665    even    DCD    1852143205
        0x08001844:    000a0d74    t...    DCD    658804
    $t
    i.EXTI0_IRQHandler
    EXTI0_IRQHandler
        0x08001848:    b510        ..      PUSH     {r4,lr}
        0x0800184a:    200a        .       MOVS     r0,#0xa
        0x0800184c:    f7ffff72    ..r.    BL       Delay_ms ; 0x8001734
        0x08001850:    2001        .       MOVS     r0,#1
        0x08001852:    f000f81d    ....    BL       EXTI_GetITStatus ; 0x8001890
        0x08001856:    2801        .(      CMP      r0,#1
        0x08001858:    d110        ..      BNE      0x800187c ; EXTI0_IRQHandler + 52
        0x0800185a:    2110        .!      MOVS     r1,#0x10
        0x0800185c:    4808        .H      LDR      r0,[pc,#32] ; [0x8001880] = 0x40010800
        0x0800185e:    f000fdcc    ....    BL       GPIO_ReadOutputDataBit ; 0x80023fa
        0x08001862:    b920         .      CBNZ     r0,0x800186e ; EXTI0_IRQHandler + 38
        0x08001864:    2110        .!      MOVS     r1,#0x10
        0x08001866:    4806        .H      LDR      r0,[pc,#24] ; [0x8001880] = 0x40010800
        0x08001868:    f000fdd2    ....    BL       GPIO_SetBits ; 0x8002410
        0x0800186c:    e003        ..      B        0x8001876 ; EXTI0_IRQHandler + 46
        0x0800186e:    2110        .!      MOVS     r1,#0x10
        0x08001870:    4803        .H      LDR      r0,[pc,#12] ; [0x8001880] = 0x40010800
        0x08001872:    f000fdcb    ....    BL       GPIO_ResetBits ; 0x800240c
        0x08001876:    2001        .       MOVS     r0,#1
        0x08001878:    f000f804    ....    BL       EXTI_ClearITPendingBit ; 0x8001884
        0x0800187c:    bd10        ..      POP      {r4,pc}
    $d
        0x0800187e:    0000        ..      DCW    0
        0x08001880:    40010800    ...@    DCD    1073809408
    $t
    i.EXTI_ClearITPendingBit
    EXTI_ClearITPendingBit
        0x08001884:    4901        .I      LDR      r1,[pc,#4] ; [0x800188c] = 0x40010414
        0x08001886:    6008        .`      STR      r0,[r1,#0]
        0x08001888:    4770        pG      BX       lr
    $d
        0x0800188a:    0000        ..      DCW    0
        0x0800188c:    40010414    ...@    DCD    1073808404
    $t
    i.EXTI_GetITStatus
    EXTI_GetITStatus
        0x08001890:    4601        .F      MOV      r1,r0
        0x08001892:    2000        .       MOVS     r0,#0
        0x08001894:    2200        ."      MOVS     r2,#0
        0x08001896:    4b07        .K      LDR      r3,[pc,#28] ; [0x80018b4] = 0x40010400
        0x08001898:    681b        .h      LDR      r3,[r3,#0]
        0x0800189a:    ea030201    ....    AND      r2,r3,r1
        0x0800189e:    4b05        .K      LDR      r3,[pc,#20] ; [0x80018b4] = 0x40010400
        0x080018a0:    3314        .3      ADDS     r3,r3,#0x14
        0x080018a2:    681b        .h      LDR      r3,[r3,#0]
        0x080018a4:    400b        .@      ANDS     r3,r3,r1
        0x080018a6:    b113        ..      CBZ      r3,0x80018ae ; EXTI_GetITStatus + 30
        0x080018a8:    b10a        ..      CBZ      r2,0x80018ae ; EXTI_GetITStatus + 30
        0x080018aa:    2001        .       MOVS     r0,#1
        0x080018ac:    e000        ..      B        0x80018b0 ; EXTI_GetITStatus + 32
        0x080018ae:    2000        .       MOVS     r0,#0
        0x080018b0:    4770        pG      BX       lr
    $d
        0x080018b2:    0000        ..      DCW    0
        0x080018b4:    40010400    ...@    DCD    1073808384
    $t
    i.Erase_APP
    Erase_APP
        0x080018b8:    b570        p.      PUSH     {r4-r6,lr}
        0x080018ba:    2400        .$      MOVS     r4,#0
        0x080018bc:    e00c        ..      B        0x80018d8 ; Erase_APP + 32
        0x080018be:    4808        .H      LDR      r0,[pc,#32] ; [0x80018e0] = 0x8005000
        0x080018c0:    eb002684    ...&    ADD      r6,r0,r4,LSL #10
        0x080018c4:    4630        0F      MOV      r0,r6
        0x080018c6:    f000ff27    ..'.    BL       InterFlash_ErasePage ; 0x8002718
        0x080018ca:    4605        .F      MOV      r5,r0
        0x080018cc:    2d04        .-      CMP      r5,#4
        0x080018ce:    d001        ..      BEQ      0x80018d4 ; Erase_APP + 28
        0x080018d0:    4628        (F      MOV      r0,r5
        0x080018d2:    bd70        p.      POP      {r4-r6,pc}
        0x080018d4:    1c60        `.      ADDS     r0,r4,#1
        0x080018d6:    b2c4        ..      UXTB     r4,r0
        0x080018d8:    2c2c        ,,      CMP      r4,#0x2c
        0x080018da:    d3f0        ..      BCC      0x80018be ; Erase_APP + 6
        0x080018dc:    4628        (F      MOV      r0,r5
        0x080018de:    e7f8        ..      B        0x80018d2 ; Erase_APP + 26
    $d
        0x080018e0:    08005000    .P..    DCD    134238208
    $t
    i.ExFlash_DeleteProg
    ExFlash_DeleteProg
        0x080018e4:    b570        p.      PUSH     {r4-r6,lr}
        0x080018e6:    2400        .$      MOVS     r4,#0
        0x080018e8:    2600        .&      MOVS     r6,#0
        0x080018ea:    2500        .%      MOVS     r5,#0
        0x080018ec:    bf00        ..      NOP      
        0x080018ee:    2304        .#      MOVS     r3,#4
        0x080018f0:    f2401287    @...    MOV      r2,#0x187
        0x080018f4:    a11a        ..      ADR      r1,{pc}+0x6c ; 0x8001960
        0x080018f6:    a01f        ..      ADR      r0,{pc}+0x7e ; 0x8001974
        0x080018f8:    f7fffed2    ....    BL       CMD_USART_Printf ; 0x80016a0
        0x080018fc:    bf00        ..      NOP      
        0x080018fe:    f000f9a7    ....    BL       ExFlash_Menu ; 0x8001c50
        0x08001902:    f000fb57    ..W.    BL       ExFlash_SelectBlock ; 0x8001fb4
        0x08001906:    4604        .F      MOV      r4,r0
        0x08001908:    eb0401c4    ....    ADD      r1,r4,r4,LSL #3
        0x0800190c:    4826        &H      LDR      r0,[pc,#152] ; [0x80019a8] = 0x20000460
        0x0800190e:    eb000581    ....    ADD      r5,r0,r1,LSL #2
        0x08001912:    6a28        (j      LDR      r0,[r5,#0x20]
        0x08001914:    b940        @.      CBNZ     r0,0x8001928 ; ExFlash_DeleteProg + 68
        0x08001916:    bf00        ..      NOP      
        0x08001918:    f44f72c7    O..r    MOV      r2,#0x18e
        0x0800191c:    a110        ..      ADR      r1,{pc}+0x44 ; 0x8001960
        0x0800191e:    a023        #.      ADR      r0,{pc}+0x8e ; 0x80019ac
        0x08001920:    f7fffebe    ....    BL       CMD_USART_Printf ; 0x80016a0
        0x08001924:    bf00        ..      NOP      
        0x08001926:    bd70        p.      POP      {r4-r6,pc}
        0x08001928:    0426        &.      LSLS     r6,r4,#16
        0x0800192a:    4630        0F      MOV      r0,r6
        0x0800192c:    f001fe02    ....    BL       W25Q64_BlockErase_64K ; 0x8003534
        0x08001930:    eb0401c4    ....    ADD      r1,r4,r4,LSL #3
        0x08001934:    481c        .H      LDR      r0,[pc,#112] ; [0x80019a8] = 0x20000460
        0x08001936:    eb000581    ....    ADD      r5,r0,r1,LSL #2
        0x0800193a:    2000        .       MOVS     r0,#0
        0x0800193c:    6228        (b      STR      r0,[r5,#0x20]
        0x0800193e:    2120         !      MOVS     r1,#0x20
        0x08001940:    4628        (F      MOV      r0,r5
        0x08001942:    f7fefc18    ....    BL       __aeabi_memclr ; 0x8000176
        0x08001946:    f001faf1    ....    BL       Saving_OTAInfo ; 0x8002f2c
        0x0800194a:    bf00        ..      NOP      
        0x0800194c:    4623        #F      MOV      r3,r4
        0x0800194e:    f44f72cd    O..r    MOV      r2,#0x19a
        0x08001952:    a103        ..      ADR      r1,{pc}+0xe ; 0x8001960
        0x08001954:    a01e        ..      ADR      r0,{pc}+0x7c ; 0x80019d0
        0x08001956:    f7fffea3    ....    BL       CMD_USART_Printf ; 0x80016a0
        0x0800195a:    bf00        ..      NOP      
        0x0800195c:    bf00        ..      NOP      
        0x0800195e:    e7e2        ..      B        0x8001926 ; ExFlash_DeleteProg + 66
    $d
        0x08001960:    64726148    Hard    DCD    1685217608
        0x08001964:    65726177    ware    DCD    1701994871
        0x08001968:    3532575c    \W25    DCD    892491612
        0x0800196c:    2e343651    Q64.    DCD    775173713
        0x08001970:    00000063    c...    DCD    99
        0x08001974:    3a73255b    [%s:    DCD    980624731
        0x08001978:    205d6425    %d]     DCD    542991397
        0x0800197c:    e9b7afe8    ....    DCD    3921129448
        0x08001980:    8be68980    ....    DCD    2347141504
        0x08001984:    81a6e8a9    ....    DCD    2175199401
        0x08001988:    e9a088e5    ....    DCD    3919612133
        0x0800198c:    9ae7a499    ....    DCD    2598872217
        0x08001990:    96a4e584    ....    DCD    2527389060
        0x08001994:    e598ade5    ....    DCD    3851988453
        0x08001998:    bcef979d    ....    DCD    3169818525
        0x0800199c:    257e319a    .1~%    DCD    629027226
        0x080019a0:    0a0d2064    d ..    DCD    168632420
        0x080019a4:    00000000    ....    DCD    0
        0x080019a8:    20000460    `..     DCD    536872032
        0x080019ac:    3a73255b    [%s:    DCD    980624731
        0x080019b0:    205d6425    %d]     DCD    542991397
        0x080019b4:    e98089e6    ....    DCD    3917515238
        0x080019b8:    a4e58980    ....    DCD    2766506368
        0x080019bc:    98ade596    ....    DCD    2561533334
        0x080019c0:    e4979de5    ....    DCD    3835141605
        0x080019c4:    a9e7bab8    ....    DCD    2850536120
        0x080019c8:    0a0d20ba    . ..    DCD    168632506
        0x080019cc:    00000000    ....    DCD    0
        0x080019d0:    3a73255b    [%s:    DCD    980624731
        0x080019d4:    205d6425    %d]     DCD    542991397
        0x080019d8:    8fe56425    %d..    DCD    2414175269
        0x080019dc:    96a4e5b7    ....    DCD    2527389111
        0x080019e0:    e598ade5    ....    DCD    3851988453
        0x080019e4:    93e6979d    ....    DCD    2481362845
        0x080019e8:    a499e9a6    ....    DCD    2761550246
        0x080019ec:    e68caee5    ....    DCD    3867979493
        0x080019f0:    0d2095af    .. .    DCD    220239279
        0x080019f4:    0000000a    ....    DCD    10
    $t
    i.ExFlash_DownloadFromUSART
    ExFlash_DownloadFromUSART
        0x080019f8:    e92d4ff8    -..O    PUSH     {r3-r11,lr}
        0x080019fc:    2400        .$      MOVS     r4,#0
        0x080019fe:    2600        .&      MOVS     r6,#0
        0x08001a00:    46a0        .F      MOV      r8,r4
        0x08001a02:    46a1        .F      MOV      r9,r4
        0x08001a04:    46a2        .F      MOV      r10,r4
        0x08001a06:    2700        .'      MOVS     r7,#0
        0x08001a08:    46a3        .F      MOV      r11,r4
        0x08001a0a:    f000f921    ..!.    BL       ExFlash_Menu ; 0x8001c50
        0x08001a0e:    bf00        ..      NOP      
        0x08001a10:    2304        .#      MOVS     r3,#4
        0x08001a12:    f2401209    @...    MOV      r2,#0x109
        0x08001a16:    a155        U.      ADR      r1,{pc}+0x156 ; 0x8001b6c
        0x08001a18:    a059        Y.      ADR      r0,{pc}+0x168 ; 0x8001b80
        0x08001a1a:    f7fffe41    ..A.    BL       CMD_USART_Printf ; 0x80016a0
        0x08001a1e:    bf00        ..      NOP      
        0x08001a20:    f000fac8    ....    BL       ExFlash_SelectBlock ; 0x8001fb4
        0x08001a24:    4604        .F      MOV      r4,r0
        0x08001a26:    eb0401c4    ....    ADD      r1,r4,r4,LSL #3
        0x08001a2a:    4862        bH      LDR      r0,[pc,#392] ; [0x8001bb4] = 0x20000460
        0x08001a2c:    eb000b81    ....    ADD      r11,r0,r1,LSL #2
        0x08001a30:    eb0400c4    ....    ADD      r0,r4,r4,LSL #3
        0x08001a34:    eb0b0080    ....    ADD      r0,r11,r0,LSL #2
        0x08001a38:    6a00        .j      LDR      r0,[r0,#0x20]
        0x08001a3a:    2800        .(      CMP      r0,#0
        0x08001a3c:    d02a        *.      BEQ      0x8001a94 ; ExFlash_DownloadFromUSART + 156
        0x08001a3e:    2000        .       MOVS     r0,#0
        0x08001a40:    9000        ..      STR      r0,[sp,#0]
        0x08001a42:    bf00        ..      NOP      
        0x08001a44:    f240120f    @...    MOV      r2,#0x10f
        0x08001a48:    a148        H.      ADR      r1,{pc}+0x124 ; 0x8001b6c
        0x08001a4a:    485b        [H      LDR      r0,[pc,#364] ; [0x8001bb8] = 0x800467c
        0x08001a4c:    f7fffe28    ..(.    BL       CMD_USART_Printf ; 0x80016a0
        0x08001a50:    bf00        ..      NOP      
        0x08001a52:    bf00        ..      NOP      
        0x08001a54:    2101        .!      MOVS     r1,#1
        0x08001a56:    4668        hF      MOV      r0,sp
        0x08001a58:    f001fea8    ....    BL       WaitForInput ; 0x80037ac
        0x08001a5c:    f89d0000    ....    LDRB     r0,[sp,#0]
        0x08001a60:    286e        n(      CMP      r0,#0x6e
        0x08001a62:    d003        ..      BEQ      0x8001a6c ; ExFlash_DownloadFromUSART + 116
        0x08001a64:    f89d0000    ....    LDRB     r0,[sp,#0]
        0x08001a68:    284e        N(      CMP      r0,#0x4e
        0x08001a6a:    d109        ..      BNE      0x8001a80 ; ExFlash_DownloadFromUSART + 136
        0x08001a6c:    bf00        ..      NOP      
        0x08001a6e:    f44f728a    O..r    MOV      r2,#0x114
        0x08001a72:    a13e        >.      ADR      r1,{pc}+0xfa ; 0x8001b6c
        0x08001a74:    a051        Q.      ADR      r0,{pc}+0x148 ; 0x8001bbc
        0x08001a76:    f7fffe13    ....    BL       CMD_USART_Printf ; 0x80016a0
        0x08001a7a:    bf00        ..      NOP      
        0x08001a7c:    e8bd8ff8    ....    POP      {r3-r11,pc}
        0x08001a80:    f89d0000    ....    LDRB     r0,[sp,#0]
        0x08001a84:    2879        y(      CMP      r0,#0x79
        0x08001a86:    d004        ..      BEQ      0x8001a92 ; ExFlash_DownloadFromUSART + 154
        0x08001a88:    f89d0000    ....    LDRB     r0,[sp,#0]
        0x08001a8c:    2859        Y(      CMP      r0,#0x59
        0x08001a8e:    d000        ..      BEQ      0x8001a92 ; ExFlash_DownloadFromUSART + 154
        0x08001a90:    e7e0        ..      B        0x8001a54 ; ExFlash_DownloadFromUSART + 92
        0x08001a92:    bf00        ..      NOP      
        0x08001a94:    bf00        ..      NOP      
        0x08001a96:    4623        #F      MOV      r3,r4
        0x08001a98:    f44f728e    O..r    MOV      r2,#0x11c
        0x08001a9c:    a133        3.      ADR      r1,{pc}+0xd0 ; 0x8001b6c
        0x08001a9e:    a04d        M.      ADR      r0,{pc}+0x136 ; 0x8001bd4
        0x08001aa0:    f7fffdfe    ....    BL       CMD_USART_Printf ; 0x80016a0
        0x08001aa4:    bf00        ..      NOP      
        0x08001aa6:    ea4f4804    O..H    LSL      r8,r4,#16
        0x08001aaa:    46c1        .F      MOV      r9,r8
        0x08001aac:    f2404104    @..A    MOV      r1,#0x404
        0x08001ab0:    4852        RH      LDR      r0,[pc,#328] ; [0x8001bfc] = 0x20000514
        0x08001ab2:    f7fefb60    ..`.    BL       __aeabi_memclr ; 0x8000176
        0x08001ab6:    4640        @F      MOV      r0,r8
        0x08001ab8:    f001fd3c    ..<.    BL       W25Q64_BlockErase_64K ; 0x8003534
        0x08001abc:    4620         F      MOV      r0,r4
        0x08001abe:    f000facd    ....    BL       ExFlash_SetVersion ; 0x800205c
        0x08001ac2:    b900        ..      CBNZ     r0,0x8001ac6 ; ExFlash_DownloadFromUSART + 206
        0x08001ac4:    e7da        ..      B        0x8001a7c ; ExFlash_DownloadFromUSART + 132
        0x08001ac6:    bf00        ..      NOP      
        0x08001ac8:    f44f7294    O..r    MOV      r2,#0x128
        0x08001acc:    a127        '.      ADR      r1,{pc}+0xa0 ; 0x8001b6c
        0x08001ace:    a04c        L.      ADR      r0,{pc}+0x132 ; 0x8001c00
        0x08001ad0:    f7fffde6    ....    BL       CMD_USART_Printf ; 0x80016a0
        0x08001ad4:    bf00        ..      NOP      
        0x08001ad6:    e044        D.      B        0x8001b62 ; ExFlash_DownloadFromUSART + 362
        0x08001ad8:    f001fef0    ....    BL       Xmodem_RecvData_1K ; 0x80038bc
        0x08001adc:    4607        .F      MOV      r7,r0
        0x08001ade:    2f1c        ./      CMP      r7,#0x1c
        0x08001ae0:    d108        ..      BNE      0x8001af4 ; ExFlash_DownloadFromUSART + 252
        0x08001ae2:    bf00        ..      NOP      
        0x08001ae4:    f44f7297    O..r    MOV      r2,#0x12e
        0x08001ae8:    a120         .      ADR      r1,{pc}+0x84 ; 0x8001b6c
        0x08001aea:    a04d        M.      ADR      r0,{pc}+0x136 ; 0x8001c20
        0x08001aec:    f7fffdd8    ....    BL       CMD_USART_Printf ; 0x80016a0
        0x08001af0:    bf00        ..      NOP      
        0x08001af2:    e7c3        ..      B        0x8001a7c ; ExFlash_DownloadFromUSART + 132
        0x08001af4:    2f1a        ./      CMP      r7,#0x1a
        0x08001af6:    d112        ..      BNE      0x8001b1e ; ExFlash_DownloadFromUSART + 294
        0x08001af8:    4840        @H      LDR      r0,[pc,#256] ; [0x8001bfc] = 0x20000514
        0x08001afa:    f8900400    ....    LDRB     r0,[r0,#0x400]
        0x08001afe:    f0000007    ....    AND      r0,r0,#7
        0x08001b02:    b960        `.      CBNZ     r0,0x8001b1e ; ExFlash_DownloadFromUSART + 294
        0x08001b04:    483d        =H      LDR      r0,[pc,#244] ; [0x8001bfc] = 0x20000514
        0x08001b06:    f8d00400    ....    LDR      r0,[r0,#0x400]
        0x08001b0a:    01c1        ..      LSLS     r1,r0,#7
        0x08001b0c:    eb0402c4    ....    ADD      r2,r4,r4,LSL #3
        0x08001b10:    4828        (H      LDR      r0,[pc,#160] ; [0x8001bb4] = 0x20000460
        0x08001b12:    eb000082    ....    ADD      r0,r0,r2,LSL #2
        0x08001b16:    6201        .b      STR      r1,[r0,#0x20]
        0x08001b18:    f001fa08    ....    BL       Saving_OTAInfo ; 0x8002f2c
        0x08001b1c:    e022        ".      B        0x8001b64 ; ExFlash_DownloadFromUSART + 364
        0x08001b1e:    2604        .&      MOVS     r6,#4
        0x08001b20:    2500        .%      MOVS     r5,#0
        0x08001b22:    e00b        ..      B        0x8001b3c ; ExFlash_DownloadFromUSART + 324
        0x08001b24:    eb092a05    ...*    ADD      r10,r9,r5,LSL #8
        0x08001b28:    4834        4H      LDR      r0,[pc,#208] ; [0x8001bfc] = 0x20000514
        0x08001b2a:    eb002105    ...!    ADD      r1,r0,r5,LSL #8
        0x08001b2e:    f44f7280    O..r    MOV      r2,#0x100
        0x08001b32:    4650        PF      MOV      r0,r10
        0x08001b34:    f001fde8    ....    BL       W25Q64_WritePage ; 0x8003708
        0x08001b38:    1c68        h.      ADDS     r0,r5,#1
        0x08001b3a:    b2c5        ..      UXTB     r5,r0
        0x08001b3c:    42b5        .B      CMP      r5,r6
        0x08001b3e:    dbf1        ..      BLT      0x8001b24 ; ExFlash_DownloadFromUSART + 300
        0x08001b40:    eb092906    ...)    ADD      r9,r9,r6,LSL #8
        0x08001b44:    2f1a        ./      CMP      r7,#0x1a
        0x08001b46:    d10c        ..      BNE      0x8001b62 ; ExFlash_DownloadFromUSART + 362
        0x08001b48:    482c        ,H      LDR      r0,[pc,#176] ; [0x8001bfc] = 0x20000514
        0x08001b4a:    f8d00400    ....    LDR      r0,[r0,#0x400]
        0x08001b4e:    01c1        ..      LSLS     r1,r0,#7
        0x08001b50:    eb0402c4    ....    ADD      r2,r4,r4,LSL #3
        0x08001b54:    4817        .H      LDR      r0,[pc,#92] ; [0x8001bb4] = 0x20000460
        0x08001b56:    eb000082    ....    ADD      r0,r0,r2,LSL #2
        0x08001b5a:    6201        .b      STR      r1,[r0,#0x20]
        0x08001b5c:    f001f9e6    ....    BL       Saving_OTAInfo ; 0x8002f2c
        0x08001b60:    e78c        ..      B        0x8001a7c ; ExFlash_DownloadFromUSART + 132
        0x08001b62:    e7b9        ..      B        0x8001ad8 ; ExFlash_DownloadFromUSART + 224
        0x08001b64:    bf00        ..      NOP      
        0x08001b66:    bf00        ..      NOP      
        0x08001b68:    e788        ..      B        0x8001a7c ; ExFlash_DownloadFromUSART + 132
    $d
        0x08001b6a:    0000        ..      DCW    0
        0x08001b6c:    64726148    Hard    DCD    1685217608
        0x08001b70:    65726177    ware    DCD    1701994871
        0x08001b74:    3532575c    \W25    DCD    892491612
        0x08001b78:    2e343651    Q64.    DCD    775173713
        0x08001b7c:    00000063    c...    DCD    99
        0x08001b80:    3a73255b    [%s:    DCD    980624731
        0x08001b84:    205d6425    %d]     DCD    542991397
        0x08001b88:    e9b7afe8    ....    DCD    3921129448
        0x08001b8c:    8be68980    ....    DCD    2347141504
        0x08001b90:    81a6e8a9    ....    DCD    2175199401
        0x08001b94:    e59986e5    ....    DCD    3852044005
        0x08001b98:    9ae7a585    ....    DCD    2598872453
        0x08001b9c:    96a4e584    ....    DCD    2527389060
        0x08001ba0:    e598ade5    ....    DCD    3851988453
        0x08001ba4:    bcef979d    ....    DCD    3169818525
        0x08001ba8:    257e319a    .1~%    DCD    629027226
        0x08001bac:    0a0d2064    d ..    DCD    168632420
        0x08001bb0:    00000000    ....    DCD    0
        0x08001bb4:    20000460    `..     DCD    536872032
        0x08001bb8:    0800467c    |F..    DCD    134235772
        0x08001bbc:    3a73255b    [%s:    DCD    980624731
        0x08001bc0:    205d6425    %d]     DCD    542991397
        0x08001bc4:    e6968fe5    ....    DCD    3868626917
        0x08001bc8:    86e588b6    ....    DCD    2263189686
        0x08001bcc:    a585e599    ....    DCD    2777015705
        0x08001bd0:    000a0d20     ...    DCD    658720
        0x08001bd4:    3a73255b    [%s:    DCD    980624731
        0x08001bd8:    205d6425    %d]     DCD    542991397
        0x08001bdc:    e58687e5    ....    DCD    3850799077
        0x08001be0:    86e587a4    ....    DCD    2263189412
        0x08001be4:    a585e599    ....    DCD    2777015705
        0x08001be8:    8fe56425    %d..    DCD    2414175269
        0x08001bec:    96a4e5b7    ....    DCD    2527389111
        0x08001bf0:    e598ade5    ....    DCD    3851988453
        0x08001bf4:    0d20979d    .. .    DCD    220239773
        0x08001bf8:    0000000a    ....    DCD    10
        0x08001bfc:    20000514    ...     DCD    536872212
        0x08001c00:    3a73255b    [%s:    DCD    980624731
        0x08001c04:    205d6425    %d]     DCD    542991397
        0x08001c08:    e4b7afe8    ....    DCD    3837243368
        0x08001c0c:    bce48ab8    ....    DCD    3169094328
        0x08001c10:    6e6962a0    .bin    DCD    1852400288
        0x08001c14:    e48796e6    ....    DCD    3834091238
        0x08001c18:    0d20b6bb    .. .    DCD    220247739
        0x08001c1c:    0000000a    ....    DCD    10
        0x08001c20:    3a73255b    [%s:    DCD    980624731
        0x08001c24:    205d6425    %d]     DCD    542991397
        0x08001c28:    e58fbae5    ....    DCD    3851401957
        0x08001c2c:    87e5b78f    ....    DCD    2279978895
        0x08001c30:    9994e9ba    ....    DCD    2576673210
        0x08001c34:    e48cbcef    ....    DCD    3834428655
        0x08001c38:    8ae5bbb8    ....    DCD    2330311608
        0x08001c3c:    93bbe7a8    ....    DCD    2478565288
        0x08001c40:    e49f9de6    ....    DCD    3835665894
        0x08001c44:    bee8a0bc    ....    DCD    3202916540
        0x08001c48:    0a0d2093    . ..    DCD    168632467
        0x08001c4c:    00000000    ....    DCD    0
    $t
    i.ExFlash_Menu
    ExFlash_Menu
        0x08001c50:    e92d47f0    -..G    PUSH     {r4-r10,lr}
        0x08001c54:    b08c        ..      SUB      sp,sp,#0x30
        0x08001c56:    4d2f        /M      LDR      r5,[pc,#188] ; [0x8001d14] = 0x20000460
        0x08001c58:    a72f        /.      ADR      r7,{pc}+0xc0 ; 0x8001d18
        0x08001c5a:    f20f08c4    ....    ADR.W    r8,{pc}+0xc6 ; 0x8001d20
        0x08001c5e:    f20f09c8    ....    ADR.W    r9,{pc}+0xca ; 0x8001d28
        0x08001c62:    f20f0acc    ....    ADR.W    r10,{pc}+0xce ; 0x8001d30
        0x08001c66:    bf00        ..      NOP      
        0x08001c68:    22ba        ."      MOVS     r2,#0xba
        0x08001c6a:    a133        3.      ADR      r1,{pc}+0xce ; 0x8001d38
        0x08001c6c:    a037        7.      ADR      r0,{pc}+0xe0 ; 0x8001d4c
        0x08001c6e:    f7fffd17    ....    BL       CMD_USART_Printf ; 0x80016a0
        0x08001c72:    bf00        ..      NOP      
        0x08001c74:    bf00        ..      NOP      
        0x08001c76:    463b        ;F      MOV      r3,r7
        0x08001c78:    22bb        ."      MOVS     r2,#0xbb
        0x08001c7a:    a12f        /.      ADR      r1,{pc}+0xbe ; 0x8001d38
        0x08001c7c:    a03f        ?.      ADR      r0,{pc}+0x100 ; 0x8001d7c
        0x08001c7e:    e88d0700    ....    STM      sp,{r8-r10}
        0x08001c82:    f7fffd0d    ....    BL       CMD_USART_Printf ; 0x80016a0
        0x08001c86:    bf00        ..      NOP      
        0x08001c88:    2400        .$      MOVS     r4,#0
        0x08001c8a:    e03d        =.      B        0x8001d08 ; ExFlash_Menu + 184
        0x08001c8c:    2120         !      MOVS     r1,#0x20
        0x08001c8e:    a804        ..      ADD      r0,sp,#0x10
        0x08001c90:    f7fefa71    ..q.    BL       __aeabi_memclr ; 0x8000176
        0x08001c94:    eb0401c4    ....    ADD      r1,r4,r4,LSL #3
        0x08001c98:    eb050081    ....    ADD      r0,r5,r1,LSL #2
        0x08001c9c:    f7fefa76    ..v.    BL       strlen ; 0x800018c
        0x08001ca0:    b2c6        ..      UXTB     r6,r0
        0x08001ca2:    2e00        ..      CMP      r6,#0
        0x08001ca4:    dd07        ..      BLE      0x8001cb6 ; ExFlash_Menu + 102
        0x08001ca6:    eb0400c4    ....    ADD      r0,r4,r4,LSL #3
        0x08001caa:    eb050180    ....    ADD      r1,r5,r0,LSL #2
        0x08001cae:    4632        2F      MOV      r2,r6
        0x08001cb0:    a804        ..      ADD      r0,sp,#0x10
        0x08001cb2:    f7fefa47    ..G.    BL       __aeabi_memcpy ; 0x8000144
        0x08001cb6:    b994        ..      CBNZ     r4,0x8001cde ; ExFlash_Menu + 142
        0x08001cb8:    bf00        ..      NOP      
        0x08001cba:    a138        8.      ADR      r1,{pc}+0xe2 ; 0x8001d9c
        0x08001cbc:    eb0400c4    ....    ADD      r0,r4,r4,LSL #3
        0x08001cc0:    eb050080    ....    ADD      r0,r5,r0,LSL #2
        0x08001cc4:    6a00        .j      LDR      r0,[r0,#0x20]
        0x08001cc6:    aa04        ..      ADD      r2,sp,#0x10
        0x08001cc8:    4623        #F      MOV      r3,r4
        0x08001cca:    e9cd2000    ...     STRD     r2,r0,[sp,#0]
        0x08001cce:    9102        ..      STR      r1,[sp,#8]
        0x08001cd0:    22c8        ."      MOVS     r2,#0xc8
        0x08001cd2:    a119        ..      ADR      r1,{pc}+0x66 ; 0x8001d38
        0x08001cd4:    a035        5.      ADR      r0,{pc}+0xd8 ; 0x8001dac
        0x08001cd6:    f7fffce3    ....    BL       CMD_USART_Printf ; 0x80016a0
        0x08001cda:    bf00        ..      NOP      
        0x08001cdc:    e012        ..      B        0x8001d04 ; ExFlash_Menu + 180
        0x08001cde:    bf00        ..      NOP      
        0x08001ce0:    a13a        :.      ADR      r1,{pc}+0xec ; 0x8001dcc
        0x08001ce2:    eb0400c4    ....    ADD      r0,r4,r4,LSL #3
        0x08001ce6:    eb050080    ....    ADD      r0,r5,r0,LSL #2
        0x08001cea:    6a00        .j      LDR      r0,[r0,#0x20]
        0x08001cec:    aa04        ..      ADD      r2,sp,#0x10
        0x08001cee:    4623        #F      MOV      r3,r4
        0x08001cf0:    e9cd2000    ...     STRD     r2,r0,[sp,#0]
        0x08001cf4:    9102        ..      STR      r1,[sp,#8]
        0x08001cf6:    22cb        ."      MOVS     r2,#0xcb
        0x08001cf8:    a10f        ..      ADR      r1,{pc}+0x40 ; 0x8001d38
        0x08001cfa:    a02c        ,.      ADR      r0,{pc}+0xb2 ; 0x8001dac
        0x08001cfc:    f7fffcd0    ....    BL       CMD_USART_Printf ; 0x80016a0
        0x08001d00:    bf00        ..      NOP      
        0x08001d02:    bf00        ..      NOP      
        0x08001d04:    1c60        `.      ADDS     r0,r4,#1
        0x08001d06:    b2c4        ..      UXTB     r4,r0
        0x08001d08:    2c05        .,      CMP      r4,#5
        0x08001d0a:    dbbf        ..      BLT      0x8001c8c ; ExFlash_Menu + 60
        0x08001d0c:    b00c        ..      ADD      sp,sp,#0x30
        0x08001d0e:    e8bd87f0    ....    POP      {r4-r10,pc}
    $d
        0x08001d12:    0000        ..      DCW    0
        0x08001d14:    20000460    `..     DCD    536872032
        0x08001d18:    61657241    Area    DCD    1634038337
        0x08001d1c:    00000000    ....    DCD    0
        0x08001d20:    73726556    Vers    DCD    1936876886
        0x08001d24:    006e6f69    ion.    DCD    7237481
        0x08001d28:    657a6953    Size    DCD    1702521171
        0x08001d2c:    00000000    ....    DCD    0
        0x08001d30:    616d6552    Rema    DCD    1634559314
        0x08001d34:    00006b72    rk..    DCD    27506
        0x08001d38:    64726148    Hard    DCD    1685217608
        0x08001d3c:    65726177    ware    DCD    1701994871
        0x08001d40:    3532575c    \W25    DCD    892491612
        0x08001d44:    2e343651    Q64.    DCD    775173713
        0x08001d48:    00000063    c...    DCD    99
        0x08001d4c:    3a73255b    [%s:    DCD    980624731
        0x08001d50:    205d6425    %d]     DCD    542991397
        0x08001d54:    e593bde5    ....    DCD    3851664869
        0x08001d58:    a4e58d89    ....    DCD    2766507401
        0x08001d5c:    98ade596    ....    DCD    2561533334
        0x08001d60:    e598ade5    ....    DCD    3851988453
        0x08001d64:    83e6a882    ....    DCD    2212931714
        0x08001d68:    b586e585    ....    DCD    3045516677
        0x08001d6c:    e482a6e5    ....    DCD    3833767653
        0x08001d70:    bcef8bb8    ....    DCD    3169815480
        0x08001d74:    0a0d209a    . ..    DCD    168632474
        0x08001d78:    00000000    ....    DCD    0
        0x08001d7c:    3a73255b    [%s:    DCD    980624731
        0x08001d80:    205d6425    %d]     DCD    542991397
        0x08001d84:    7336257c    |%6s    DCD    1932928380
        0x08001d88:    3832257c    |%28    DCD    942810492
        0x08001d8c:    31257c73    s|%1    DCD    824540275
        0x08001d90:    257c7330    0s|%    DCD    628912944
        0x08001d94:    7c733631    16s|    DCD    2087925297
        0x08001d98:    00000a0d    ....    DCD    2573
        0x08001d9c:    796c6e4f    Only    DCD    2037149263
        0x08001da0:    726f6620     for    DCD    1919903264
        0x08001da4:    41544f20     OTA    DCD    1096044320
        0x08001da8:    00000000    ....    DCD    0
        0x08001dac:    3a73255b    [%s:    DCD    980624731
        0x08001db0:    205d6425    %d]     DCD    542991397
        0x08001db4:    6436257c    |%6d    DCD    1681270140
        0x08001db8:    3832257c    |%28    DCD    942810492
        0x08001dbc:    31257c73    s|%1    DCD    824540275
        0x08001dc0:    257c6430    0d|%    DCD    628909104
        0x08001dc4:    7c733631    16s|    DCD    2087925297
        0x08001dc8:    00000a0d    ....    DCD    2573
        0x08001dcc:    656e6f6e    none    DCD    1701736302
        0x08001dd0:    00000000    ....    DCD    0
    $t
    i.ExFlash_MoveInAPP
    ExFlash_MoveInAPP
        0x08001dd4:    e92d47f0    -..G    PUSH     {r4-r10,lr}
        0x08001dd8:    f5ad6d80    ...m    SUB      sp,sp,#0x400
        0x08001ddc:    2400        .$      MOVS     r4,#0
        0x08001dde:    46a1        .F      MOV      r9,r4
        0x08001de0:    2500        .%      MOVS     r5,#0
        0x08001de2:    f44f6180    O..a    MOV      r1,#0x400
        0x08001de6:    4668        hF      MOV      r0,sp
        0x08001de8:    f7fef9c5    ....    BL       __aeabi_memclr ; 0x8000176
        0x08001dec:    46a2        .F      MOV      r10,r4
        0x08001dee:    2700        .'      MOVS     r7,#0
        0x08001df0:    46a0        .F      MOV      r8,r4
        0x08001df2:    f7ffff2d    ..-.    BL       ExFlash_Menu ; 0x8001c50
        0x08001df6:    bf00        ..      NOP      
        0x08001df8:    2304        .#      MOVS     r3,#4
        0x08001dfa:    f240125b    @.[.    MOV      r2,#0x15b
        0x08001dfe:    a12e        ..      ADR      r1,{pc}+0xba ; 0x8001eb8
        0x08001e00:    a032        2.      ADR      r0,{pc}+0xcc ; 0x8001ecc
        0x08001e02:    f7fffc4d    ..M.    BL       CMD_USART_Printf ; 0x80016a0
        0x08001e06:    bf00        ..      NOP      
        0x08001e08:    bf00        ..      NOP      
        0x08001e0a:    f000f8d3    ....    BL       ExFlash_SelectBlock ; 0x8001fb4
        0x08001e0e:    4604        .F      MOV      r4,r0
        0x08001e10:    eb0401c4    ....    ADD      r1,r4,r4,LSL #3
        0x08001e14:    483a        :H      LDR      r0,[pc,#232] ; [0x8001f00] = 0x20000460
        0x08001e16:    eb000581    ....    ADD      r5,r0,r1,LSL #2
        0x08001e1a:    6a28        (j      LDR      r0,[r5,#0x20]
        0x08001e1c:    b940        @.      CBNZ     r0,0x8001e30 ; ExFlash_MoveInAPP + 92
        0x08001e1e:    bf00        ..      NOP      
        0x08001e20:    f2401261    @.a.    MOV      r2,#0x161
        0x08001e24:    a124        $.      ADR      r1,{pc}+0x94 ; 0x8001eb8
        0x08001e26:    a037        7.      ADR      r0,{pc}+0xde ; 0x8001f04
        0x08001e28:    f7fffc3a    ..:.    BL       CMD_USART_Printf ; 0x80016a0
        0x08001e2c:    bf00        ..      NOP      
        0x08001e2e:    e7ec        ..      B        0x8001e0a ; ExFlash_MoveInAPP + 54
        0x08001e30:    6a28        (j      LDR      r0,[r5,#0x20]
        0x08001e32:    f5b04f30    ..0O    CMP      r0,#0xb000
        0x08001e36:    d908        ..      BLS      0x8001e4a ; ExFlash_MoveInAPP + 118
        0x08001e38:    bf00        ..      NOP      
        0x08001e3a:    f2401265    @.e.    MOV      r2,#0x165
        0x08001e3e:    a11e        ..      ADR      r1,{pc}+0x7a ; 0x8001eb8
        0x08001e40:    a03f        ?.      ADR      r0,{pc}+0x100 ; 0x8001f40
        0x08001e42:    f7fffc2d    ..-.    BL       CMD_USART_Printf ; 0x80016a0
        0x08001e46:    bf00        ..      NOP      
        0x08001e48:    e7df        ..      B        0x8001e0a ; ExFlash_MoveInAPP + 54
        0x08001e4a:    bf00        ..      NOP      
        0x08001e4c:    4623        #F      MOV      r3,r4
        0x08001e4e:    f2401269    @.i.    MOV      r2,#0x169
        0x08001e52:    a119        ..      ADR      r1,{pc}+0x66 ; 0x8001eb8
        0x08001e54:    a049        I.      ADR      r0,{pc}+0x128 ; 0x8001f7c
        0x08001e56:    f7fffc23    ..#.    BL       CMD_USART_Printf ; 0x80016a0
        0x08001e5a:    bf00        ..      NOP      
        0x08001e5c:    ea4f4a04    O..J    LSL      r10,r4,#16
        0x08001e60:    4657        WF      MOV      r7,r10
        0x08001e62:    f8df814c    ..L.    LDR      r8,[pc,#332] ; [0x8001fb0] = 0x8005000
        0x08001e66:    eb0401c4    ....    ADD      r1,r4,r4,LSL #3
        0x08001e6a:    4825        %H      LDR      r0,[pc,#148] ; [0x8001f00] = 0x20000460
        0x08001e6c:    eb000581    ....    ADD      r5,r0,r1,LSL #2
        0x08001e70:    2101        .!      MOVS     r1,#1
        0x08001e72:    6a28        (j      LDR      r0,[r5,#0x20]
        0x08001e74:    eb012990    ...)    ADD      r9,r1,r0,LSR #10
        0x08001e78:    2600        .&      MOVS     r6,#0
        0x08001e7a:    e017        ..      B        0x8001eac ; ExFlash_MoveInAPP + 216
        0x08001e7c:    f44f6180    O..a    MOV      r1,#0x400
        0x08001e80:    4668        hF      MOV      r0,sp
        0x08001e82:    f7fef978    ..x.    BL       __aeabi_memclr ; 0x8000176
        0x08001e86:    2304        .#      MOVS     r3,#4
        0x08001e88:    021a        ..      LSLS     r2,r3,#8
        0x08001e8a:    4669        iF      MOV      r1,sp
        0x08001e8c:    4638        8F      MOV      r0,r7
        0x08001e8e:    f001fbbd    ....    BL       W25Q64_ReadPages ; 0x800360c
        0x08001e92:    4640        @F      MOV      r0,r8
        0x08001e94:    f000fc40    ..@.    BL       InterFlash_ErasePage ; 0x8002718
        0x08001e98:    4669        iF      MOV      r1,sp
        0x08001e9a:    4640        @F      MOV      r0,r8
        0x08001e9c:    f000fd40    ..@.    BL       InterFlash_WritePage ; 0x8002920
        0x08001ea0:    f5076780    ...g    ADD      r7,r7,#0x400
        0x08001ea4:    f5086880    ...h    ADD      r8,r8,#0x400
        0x08001ea8:    1c70        p.      ADDS     r0,r6,#1
        0x08001eaa:    b2c6        ..      UXTB     r6,r0
        0x08001eac:    454e        NE      CMP      r6,r9
        0x08001eae:    d3e5        ..      BCC      0x8001e7c ; ExFlash_MoveInAPP + 168
        0x08001eb0:    f50d6d80    ...m    ADD      sp,sp,#0x400
        0x08001eb4:    e8bd87f0    ....    POP      {r4-r10,pc}
    $d
        0x08001eb8:    64726148    Hard    DCD    1685217608
        0x08001ebc:    65726177    ware    DCD    1701994871
        0x08001ec0:    3532575c    \W25    DCD    892491612
        0x08001ec4:    2e343651    Q64.    DCD    775173713
        0x08001ec8:    00000063    c...    DCD    99
        0x08001ecc:    3a73255b    [%s:    DCD    980624731
        0x08001ed0:    205d6425    %d]     DCD    542991397
        0x08001ed4:    e9b7afe8    ....    DCD    3921129448
        0x08001ed8:    8be68980    ....    DCD    2347141504
        0x08001edc:    81a6e8a9    ....    DCD    2175199401
        0x08001ee0:    e5bbafe8    ....    DCD    3854282728
        0x08001ee4:    9ae7968f    ....    DCD    2598868623
        0x08001ee8:    96a4e584    ....    DCD    2527389060
        0x08001eec:    e598ade5    ....    DCD    3851988453
        0x08001ef0:    bcef979d    ....    DCD    3169818525
        0x08001ef4:    257e319a    .1~%    DCD    629027226
        0x08001ef8:    0a0d2064    d ..    DCD    168632420
        0x08001efc:    00000000    ....    DCD    0
        0x08001f00:    20000460    `..     DCD    536872032
        0x08001f04:    3a73255b    [%s:    DCD    980624731
        0x08001f08:    205d6425    %d]     DCD    542991397
        0x08001f0c:    e593bde5    ....    DCD    3851664869
        0x08001f10:    ade58d89    ....    DCD    2917502345
        0x08001f14:    a882e598    ....    DCD    2827150744
        0x08001f18:    e6979de5    ....    DCD    3868696037
        0x08001f1c:    9ce6a1b2    ....    DCD    2632360370
        0x08001f20:    8ba8e789    ....    DCD    2343102345
        0x08001f24:    ef8fbae5    ....    DCD    4019174117
        0x08001f28:    afe88cbc    ....    DCD    2951253180
        0x08001f2c:    8d87e9b7    ....    DCD    2374494647
        0x08001f30:    e8b096e6    ....    DCD    3903887078
        0x08001f34:    85e593be    ....    DCD    2246415294
        0x08001f38:    0a0d20a5    . ..    DCD    168632485
        0x08001f3c:    00000000    ....    DCD    0
        0x08001f40:    3a73255b    [%s:    DCD    980624731
        0x08001f44:    205d6425    %d]     DCD    542991397
        0x08001f48:    e593bde5    ....    DCD    3851664869
        0x08001f4c:    ade58d89    ....    DCD    2917502345
        0x08001f50:    a882e598    ....    DCD    2827150744
        0x08001f54:    e7979de5    ....    DCD    3885473253
        0x08001f58:    bae58ba8    ....    DCD    3135605672
        0x08001f5c:    87bfe88f    ....    DCD    2277501071
        0x08001f60:    efa7a4e5    ....    DCD    4020741349
        0x08001f64:    afe88cbc    ....    DCD    2951253180
        0x08001f68:    8d87e9b7    ....    DCD    2374494647
        0x08001f6c:    e9b096e6    ....    DCD    3920664294
        0x08001f70:    8be68980    ....    DCD    2347141504
        0x08001f74:    0a0d20a9    . ..    DCD    168632489
        0x08001f78:    00000000    ....    DCD    0
        0x08001f7c:    3a73255b    [%s:    DCD    980624731
        0x08001f80:    205d6425    %d]     DCD    542991397
        0x08001f84:    e58687e5    ....    DCD    3850799077
        0x08001f88:    b0e587a4    ....    DCD    2967832484
        0x08001f8c:    e5642586    .%d.    DCD    3848545670
        0x08001f90:    a4e5b78f    ....    DCD    2766518159
        0x08001f94:    98ade596    ....    DCD    2561533334
        0x08001f98:    e5979de5    ....    DCD    3851918821
        0x08001f9c:    85e59986    ....    DCD    2246416774
        0x08001fa0:    8586e5a5    ....    DCD    2240210341
        0x08001fa4:    46a883e9    ...F    DCD    1185448937
        0x08001fa8:    6873616c    lash    DCD    1752392044
        0x08001fac:    000a0d20     ...    DCD    658720
        0x08001fb0:    08005000    .P..    DCD    134238208
    $t
    i.ExFlash_SelectBlock
    ExFlash_SelectBlock
        0x08001fb4:    b508        ..      PUSH     {r3,lr}
        0x08001fb6:    2000        .       MOVS     r0,#0
        0x08001fb8:    9000        ..      STR      r0,[sp,#0]
        0x08001fba:    bf00        ..      NOP      
        0x08001fbc:    2101        .!      MOVS     r1,#1
        0x08001fbe:    4668        hF      MOV      r0,sp
        0x08001fc0:    f001fbf4    ....    BL       WaitForInput ; 0x80037ac
        0x08001fc4:    f89d0000    ....    LDRB     r0,[sp,#0]
        0x08001fc8:    3830        08      SUBS     r0,r0,#0x30
        0x08001fca:    b2c0        ..      UXTB     r0,r0
        0x08001fcc:    9000        ..      STR      r0,[sp,#0]
        0x08001fce:    f89d0000    ....    LDRB     r0,[sp,#0]
        0x08001fd2:    2800        .(      CMP      r0,#0
        0x08001fd4:    dd03        ..      BLE      0x8001fde ; ExFlash_SelectBlock + 42
        0x08001fd6:    f89d0000    ....    LDRB     r0,[sp,#0]
        0x08001fda:    2805        .(      CMP      r0,#5
        0x08001fdc:    db14        ..      BLT      0x8002008 ; ExFlash_SelectBlock + 84
        0x08001fde:    f89d0000    ....    LDRB     r0,[sp,#0]
        0x08001fe2:    b940        @.      CBNZ     r0,0x8001ff6 ; ExFlash_SelectBlock + 66
        0x08001fe4:    bf00        ..      NOP      
        0x08001fe6:    2304        .#      MOVS     r3,#4
        0x08001fe8:    22d9        ."      MOVS     r2,#0xd9
        0x08001fea:    a109        ..      ADR      r1,{pc}+0x26 ; 0x8002010
        0x08001fec:    480d        .H      LDR      r0,[pc,#52] ; [0x8002024] = 0x8004638
        0x08001fee:    f7fffb57    ..W.    BL       CMD_USART_Printf ; 0x80016a0
        0x08001ff2:    bf00        ..      NOP      
        0x08001ff4:    e7e2        ..      B        0x8001fbc ; ExFlash_SelectBlock + 8
        0x08001ff6:    bf00        ..      NOP      
        0x08001ff8:    2304        .#      MOVS     r3,#4
        0x08001ffa:    22dc        ."      MOVS     r2,#0xdc
        0x08001ffc:    a104        ..      ADR      r1,{pc}+0x14 ; 0x8002010
        0x08001ffe:    a00a        ..      ADR      r0,{pc}+0x2a ; 0x8002028
        0x08002000:    f7fffb4e    ..N.    BL       CMD_USART_Printf ; 0x80016a0
        0x08002004:    bf00        ..      NOP      
        0x08002006:    e7d9        ..      B        0x8001fbc ; ExFlash_SelectBlock + 8
        0x08002008:    f89d0000    ....    LDRB     r0,[sp,#0]
        0x0800200c:    bd08        ..      POP      {r3,pc}
    $d
        0x0800200e:    0000        ..      DCW    0
        0x08002010:    64726148    Hard    DCD    1685217608
        0x08002014:    65726177    ware    DCD    1701994871
        0x08002018:    3532575c    \W25    DCD    892491612
        0x0800201c:    2e343651    Q64.    DCD    775173713
        0x08002020:    00000063    c...    DCD    99
        0x08002024:    08004638    8F..    DCD    134235704
        0x08002028:    3a73255b    [%s:    DCD    980624731
        0x0800202c:    205d6425    %d]     DCD    542991397
        0x08002030:    e8b7afe8    ....    DCD    3904352232
        0x08002034:    85e593be    ....    DCD    2246415294
        0x08002038:    a3ade6a5    ....    DCD    2746082981
        0x0800203c:    e7aea1e7    ....    DCD    3886981607
        0x08002040:    a4e5849a    ....    DCD    2766505114
        0x08002044:    98ade596    ....    DCD    2561533334
        0x08002048:    e596bce7    ....    DCD    3851861223
        0x0800204c:    bcefb78f    ....    DCD    3169826703
        0x08002050:    257e3188    .1~%    DCD    629027208
        0x08002054:    89bcef64    d...    DCD    2310860644
        0x08002058:    000a0d20     ...    DCD    658720
    $t
    i.ExFlash_SetVersion
    ExFlash_SetVersion
        0x0800205c:    b530        0.      PUSH     {r4,r5,lr}
        0x0800205e:    b089        ..      SUB      sp,sp,#0x24
        0x08002060:    4604        .F      MOV      r4,r0
        0x08002062:    2120         !      MOVS     r1,#0x20
        0x08002064:    a801        ..      ADD      r0,sp,#4
        0x08002066:    f7fef886    ....    BL       __aeabi_memclr ; 0x8000176
        0x0800206a:    2500        .%      MOVS     r5,#0
        0x0800206c:    bf00        ..      NOP      
        0x0800206e:    22e8        ."      MOVS     r2,#0xe8
        0x08002070:    a11a        ..      ADR      r1,{pc}+0x6c ; 0x80020dc
        0x08002072:    a01f        ..      ADR      r0,{pc}+0x7e ; 0x80020f0
        0x08002074:    f7fffb14    ....    BL       CMD_USART_Printf ; 0x80016a0
        0x08002078:    bf00        ..      NOP      
        0x0800207a:    2120         !      MOVS     r1,#0x20
        0x0800207c:    a801        ..      ADD      r0,sp,#4
        0x0800207e:    f001fb95    ....    BL       WaitForInput ; 0x80037ac
        0x08002082:    bf00        ..      NOP      
        0x08002084:    ab01        ..      ADD      r3,sp,#4
        0x08002086:    22eb        ."      MOVS     r2,#0xeb
        0x08002088:    a114        ..      ADR      r1,{pc}+0x54 ; 0x80020dc
        0x0800208a:    a022        ".      ADR      r0,{pc}+0x8a ; 0x8002114
        0x0800208c:    f7fffb08    ....    BL       CMD_USART_Printf ; 0x80016a0
        0x08002090:    bf00        ..      NOP      
        0x08002092:    466a        jF      MOV      r2,sp
        0x08002094:    a123        #.      ADR      r1,{pc}+0x90 ; 0x8002124
        0x08002096:    a801        ..      ADD      r0,sp,#4
        0x08002098:    f7fef880    ....    BL       __0sscanf ; 0x800019c
        0x0800209c:    b2c5        ..      UXTB     r5,r0
        0x0800209e:    b94d        M.      CBNZ     r5,0x80020b4 ; ExFlash_SetVersion + 88
        0x080020a0:    bf00        ..      NOP      
        0x080020a2:    22ef        ."      MOVS     r2,#0xef
        0x080020a4:    a10d        ..      ADR      r1,{pc}+0x38 ; 0x80020dc
        0x080020a6:    a029        ).      ADR      r0,{pc}+0xa6 ; 0x800214c
        0x080020a8:    f7fffafa    ....    BL       CMD_USART_Printf ; 0x80016a0
        0x080020ac:    bf00        ..      NOP      
        0x080020ae:    2000        .       MOVS     r0,#0
        0x080020b0:    b009        ..      ADD      sp,sp,#0x24
        0x080020b2:    bd30        0.      POP      {r4,r5,pc}
        0x080020b4:    eb0402c4    ....    ADD      r2,r4,r4,LSL #3
        0x080020b8:    492d        -I      LDR      r1,[pc,#180] ; [0x8002170] = 0x20000460
        0x080020ba:    eb010082    ....    ADD      r0,r1,r2,LSL #2
        0x080020be:    2220         "      MOVS     r2,#0x20
        0x080020c0:    a901        ..      ADD      r1,sp,#4
        0x080020c2:    f7fef83f    ..?.    BL       __aeabi_memcpy ; 0x8000144
        0x080020c6:    f000ff31    ..1.    BL       Saving_OTAInfo ; 0x8002f2c
        0x080020ca:    bf00        ..      NOP      
        0x080020cc:    22f5        ."      MOVS     r2,#0xf5
        0x080020ce:    a103        ..      ADR      r1,{pc}+0xe ; 0x80020dc
        0x080020d0:    a028        (.      ADR      r0,{pc}+0xa4 ; 0x8002174
        0x080020d2:    f7fffae5    ....    BL       CMD_USART_Printf ; 0x80016a0
        0x080020d6:    bf00        ..      NOP      
        0x080020d8:    2001        .       MOVS     r0,#1
        0x080020da:    e7e9        ..      B        0x80020b0 ; ExFlash_SetVersion + 84
    $d
        0x080020dc:    64726148    Hard    DCD    1685217608
        0x080020e0:    65726177    ware    DCD    1701994871
        0x080020e4:    3532575c    \W25    DCD    892491612
        0x080020e8:    2e343651    Q64.    DCD    775173713
        0x080020ec:    00000063    c...    DCD    99
        0x080020f0:    3a73255b    [%s:    DCD    980624731
        0x080020f4:    205d6425    %d]     DCD    542991397
        0x080020f8:    e8b7afe8    ....    DCD    3904352232
        0x080020fc:    85e593be    ....    DCD    2246415294
        0x08002100:    8889e7a5    ....    DCD    2290739109
        0x08002104:    e4ac9ce6    ....    DCD    3836517606
        0x08002108:    81e6a1bf    ....    DCD    2179375551
        0x0800210c:    0d203aaf    .: .    DCD    220215983
        0x08002110:    0000000a    ....    DCD    10
        0x08002114:    3a73255b    [%s:    DCD    980624731
        0x08002118:    205d6425    %d]     DCD    542991397
        0x0800211c:    0a0d7325    %s..    DCD    168653605
        0x08002120:    00000000    ....    DCD    0
        0x08002124:    2d524556    VER-    DCD    760366422
        0x08002128:    2e642a25    %*d.    DCD    778316325
        0x0800212c:    2e642a25    %*d.    DCD    778316325
        0x08002130:    2d642a25    %*d-    DCD    761539109
        0x08002134:    64342a25    %*4d    DCD    1681140261
        0x08002138:    322a252d    -%*2    DCD    841622829
        0x0800213c:    2a252d64    d-%*    DCD    707079524
        0x08002140:    252d6432    2d-%    DCD    623731762
        0x08002144:    2e64322a    *2d.    DCD    778318378
        0x08002148:    00643225    %2d.    DCD    6566437
        0x0800214c:    3a73255b    [%s:    DCD    980624731
        0x08002150:    205d6425    %d]     DCD    542991397
        0x08002154:    e68889e7    ....    DCD    3867707879
        0x08002158:    bfe4ac9c    ....    DCD    3219434652
        0x0800215c:    af81e6a1    ....    DCD    2944525985
        0x08002160:    e5bca0e6    ....    DCD    3854344422
        0x08002164:    9ce68fbc    ....    DCD    2632355772
        0x08002168:    afafe889    ....    DCD    2947541129
        0x0800216c:    000a0d20     ...    DCD    658720
        0x08002170:    20000460    `..     DCD    536872032
        0x08002174:    3a73255b    [%s:    DCD    980624731
        0x08002178:    205d6425    %d]     DCD    542991397
        0x0800217c:    e68889e7    ....    DCD    3867707879
        0x08002180:    aee8ac9c    ....    DCD    2934484124
        0x08002184:    aebde7be    ....    DCD    2931681214
        0x08002188:    e59088e6    ....    DCD    3851454694
        0x0800218c:    0d209f8a    .. .    DCD    220241802
        0x08002190:    0000000a    ....    DCD    10
    $t
    i.FLASH_ErasePage
    FLASH_ErasePage
        0x08002194:    b530        0.      PUSH     {r4,r5,lr}
        0x08002196:    4604        .F      MOV      r4,r0
        0x08002198:    2504        .%      MOVS     r5,#4
        0x0800219a:    f44f2030    O.0     MOV      r0,#0xb0000
        0x0800219e:    f000f885    ....    BL       FLASH_WaitForLastOperation ; 0x80022ac
        0x080021a2:    4605        .F      MOV      r5,r0
        0x080021a4:    2d04        .-      CMP      r5,#4
        0x080021a6:    d117        ..      BNE      0x80021d8 ; FLASH_ErasePage + 68
        0x080021a8:    480c        .H      LDR      r0,[pc,#48] ; [0x80021dc] = 0x40022000
        0x080021aa:    6900        .i      LDR      r0,[r0,#0x10]
        0x080021ac:    f0400002    @...    ORR      r0,r0,#2
        0x080021b0:    490a        .I      LDR      r1,[pc,#40] ; [0x80021dc] = 0x40022000
        0x080021b2:    6108        .a      STR      r0,[r1,#0x10]
        0x080021b4:    4608        .F      MOV      r0,r1
        0x080021b6:    6144        Da      STR      r4,[r0,#0x14]
        0x080021b8:    6900        .i      LDR      r0,[r0,#0x10]
        0x080021ba:    f0400040    @.@.    ORR      r0,r0,#0x40
        0x080021be:    6108        .a      STR      r0,[r1,#0x10]
        0x080021c0:    f44f2030    O.0     MOV      r0,#0xb0000
        0x080021c4:    f000f872    ..r.    BL       FLASH_WaitForLastOperation ; 0x80022ac
        0x080021c8:    4605        .F      MOV      r5,r0
        0x080021ca:    4804        .H      LDR      r0,[pc,#16] ; [0x80021dc] = 0x40022000
        0x080021cc:    6900        .i      LDR      r0,[r0,#0x10]
        0x080021ce:    f64171fd    A..q    MOV      r1,#0x1ffd
        0x080021d2:    4008        .@      ANDS     r0,r0,r1
        0x080021d4:    4901        .I      LDR      r1,[pc,#4] ; [0x80021dc] = 0x40022000
        0x080021d6:    6108        .a      STR      r0,[r1,#0x10]
        0x080021d8:    4628        (F      MOV      r0,r5
        0x080021da:    bd30        0.      POP      {r4,r5,pc}
    $d
        0x080021dc:    40022000    . .@    DCD    1073881088
    $t
    i.FLASH_GetBank1Status
    FLASH_GetBank1Status
        0x080021e0:    2004        .       MOVS     r0,#4
        0x080021e2:    490b        .I      LDR      r1,[pc,#44] ; [0x8002210] = 0x40022000
        0x080021e4:    68c9        .h      LDR      r1,[r1,#0xc]
        0x080021e6:    f0010101    ....    AND      r1,r1,#1
        0x080021ea:    b109        ..      CBZ      r1,0x80021f0 ; FLASH_GetBank1Status + 16
        0x080021ec:    2001        .       MOVS     r0,#1
        0x080021ee:    e00e        ..      B        0x800220e ; FLASH_GetBank1Status + 46
        0x080021f0:    4907        .I      LDR      r1,[pc,#28] ; [0x8002210] = 0x40022000
        0x080021f2:    68c9        .h      LDR      r1,[r1,#0xc]
        0x080021f4:    f0010104    ....    AND      r1,r1,#4
        0x080021f8:    b109        ..      CBZ      r1,0x80021fe ; FLASH_GetBank1Status + 30
        0x080021fa:    2002        .       MOVS     r0,#2
        0x080021fc:    e007        ..      B        0x800220e ; FLASH_GetBank1Status + 46
        0x080021fe:    4904        .I      LDR      r1,[pc,#16] ; [0x8002210] = 0x40022000
        0x08002200:    68c9        .h      LDR      r1,[r1,#0xc]
        0x08002202:    f0010110    ....    AND      r1,r1,#0x10
        0x08002206:    b109        ..      CBZ      r1,0x800220c ; FLASH_GetBank1Status + 44
        0x08002208:    2003        .       MOVS     r0,#3
        0x0800220a:    e000        ..      B        0x800220e ; FLASH_GetBank1Status + 46
        0x0800220c:    2004        .       MOVS     r0,#4
        0x0800220e:    4770        pG      BX       lr
    $d
        0x08002210:    40022000    . .@    DCD    1073881088
    $t
    i.FLASH_Lock
    FLASH_Lock
        0x08002214:    4803        .H      LDR      r0,[pc,#12] ; [0x8002224] = 0x40022000
        0x08002216:    6900        .i      LDR      r0,[r0,#0x10]
        0x08002218:    f0400080    @...    ORR      r0,r0,#0x80
        0x0800221c:    4901        .I      LDR      r1,[pc,#4] ; [0x8002224] = 0x40022000
        0x0800221e:    6108        .a      STR      r0,[r1,#0x10]
        0x08002220:    4770        pG      BX       lr
    $d
        0x08002222:    0000        ..      DCW    0
        0x08002224:    40022000    . .@    DCD    1073881088
    $t
    i.FLASH_ProgramWord
    FLASH_ProgramWord
        0x08002228:    b578        x.      PUSH     {r3-r6,lr}
        0x0800222a:    4606        .F      MOV      r6,r0
        0x0800222c:    460c        .F      MOV      r4,r1
        0x0800222e:    2504        .%      MOVS     r5,#4
        0x08002230:    2000        .       MOVS     r0,#0
        0x08002232:    9000        ..      STR      r0,[sp,#0]
        0x08002234:    02e8        ..      LSLS     r0,r5,#11
        0x08002236:    f000f839    ..9.    BL       FLASH_WaitForLastOperation ; 0x80022ac
        0x0800223a:    4605        .F      MOV      r5,r0
        0x0800223c:    2d04        .-      CMP      r5,#4
        0x0800223e:    d124        $.      BNE      0x800228a ; FLASH_ProgramWord + 98
        0x08002240:    4813        .H      LDR      r0,[pc,#76] ; [0x8002290] = 0x40022000
        0x08002242:    6900        .i      LDR      r0,[r0,#0x10]
        0x08002244:    f0400001    @...    ORR      r0,r0,#1
        0x08002248:    4911        .I      LDR      r1,[pc,#68] ; [0x8002290] = 0x40022000
        0x0800224a:    6108        .a      STR      r0,[r1,#0x10]
        0x0800224c:    8034        4.      STRH     r4,[r6,#0]
        0x0800224e:    02e8        ..      LSLS     r0,r5,#11
        0x08002250:    f000f82c    ..,.    BL       FLASH_WaitForLastOperation ; 0x80022ac
        0x08002254:    4605        .F      MOV      r5,r0
        0x08002256:    2d04        .-      CMP      r5,#4
        0x08002258:    d110        ..      BNE      0x800227c ; FLASH_ProgramWord + 84
        0x0800225a:    1cb0        ..      ADDS     r0,r6,#2
        0x0800225c:    9000        ..      STR      r0,[sp,#0]
        0x0800225e:    0c20         .      LSRS     r0,r4,#16
        0x08002260:    9900        ..      LDR      r1,[sp,#0]
        0x08002262:    8008        ..      STRH     r0,[r1,#0]
        0x08002264:    02e8        ..      LSLS     r0,r5,#11
        0x08002266:    f000f821    ..!.    BL       FLASH_WaitForLastOperation ; 0x80022ac
        0x0800226a:    4605        .F      MOV      r5,r0
        0x0800226c:    4808        .H      LDR      r0,[pc,#32] ; [0x8002290] = 0x40022000
        0x0800226e:    6900        .i      LDR      r0,[r0,#0x10]
        0x08002270:    f64171fe    A..q    MOV      r1,#0x1ffe
        0x08002274:    4008        .@      ANDS     r0,r0,r1
        0x08002276:    4906        .I      LDR      r1,[pc,#24] ; [0x8002290] = 0x40022000
        0x08002278:    6108        .a      STR      r0,[r1,#0x10]
        0x0800227a:    e006        ..      B        0x800228a ; FLASH_ProgramWord + 98
        0x0800227c:    4804        .H      LDR      r0,[pc,#16] ; [0x8002290] = 0x40022000
        0x0800227e:    6900        .i      LDR      r0,[r0,#0x10]
        0x08002280:    f64171fe    A..q    MOV      r1,#0x1ffe
        0x08002284:    4008        .@      ANDS     r0,r0,r1
        0x08002286:    4902        .I      LDR      r1,[pc,#8] ; [0x8002290] = 0x40022000
        0x08002288:    6108        .a      STR      r0,[r1,#0x10]
        0x0800228a:    4628        (F      MOV      r0,r5
        0x0800228c:    bd78        x.      POP      {r3-r6,pc}
    $d
        0x0800228e:    0000        ..      DCW    0
        0x08002290:    40022000    . .@    DCD    1073881088
    $t
    i.FLASH_Unlock
    FLASH_Unlock
        0x08002294:    4802        .H      LDR      r0,[pc,#8] ; [0x80022a0] = 0x45670123
        0x08002296:    4903        .I      LDR      r1,[pc,#12] ; [0x80022a4] = 0x40022000
        0x08002298:    6048        H`      STR      r0,[r1,#4]
        0x0800229a:    4803        .H      LDR      r0,[pc,#12] ; [0x80022a8] = 0xcdef89ab
        0x0800229c:    6048        H`      STR      r0,[r1,#4]
        0x0800229e:    4770        pG      BX       lr
    $d
        0x080022a0:    45670123    #.gE    DCD    1164378403
        0x080022a4:    40022000    . .@    DCD    1073881088
        0x080022a8:    cdef89ab    ....    DCD    3455027627
    $t
    i.FLASH_WaitForLastOperation
    FLASH_WaitForLastOperation
        0x080022ac:    b500        ..      PUSH     {lr}
        0x080022ae:    4602        .F      MOV      r2,r0
        0x080022b0:    2304        .#      MOVS     r3,#4
        0x080022b2:    f7ffff95    ....    BL       FLASH_GetBank1Status ; 0x80021e0
        0x080022b6:    4603        .F      MOV      r3,r0
        0x080022b8:    e003        ..      B        0x80022c2 ; FLASH_WaitForLastOperation + 22
        0x080022ba:    f7ffff91    ....    BL       FLASH_GetBank1Status ; 0x80021e0
        0x080022be:    4603        .F      MOV      r3,r0
        0x080022c0:    1e52        R.      SUBS     r2,r2,#1
        0x080022c2:    2b01        .+      CMP      r3,#1
        0x080022c4:    d101        ..      BNE      0x80022ca ; FLASH_WaitForLastOperation + 30
        0x080022c6:    2a00        .*      CMP      r2,#0
        0x080022c8:    d1f7        ..      BNE      0x80022ba ; FLASH_WaitForLastOperation + 14
        0x080022ca:    b902        ..      CBNZ     r2,0x80022ce ; FLASH_WaitForLastOperation + 34
        0x080022cc:    2305        .#      MOVS     r3,#5
        0x080022ce:    4618        .F      MOV      r0,r3
        0x080022d0:    bd00        ..      POP      {pc}
    i.GPIO_Init
    GPIO_Init
        0x080022d2:    e92d41f0    -..A    PUSH     {r4-r8,lr}
        0x080022d6:    4602        .F      MOV      r2,r0
        0x080022d8:    2500        .%      MOVS     r5,#0
        0x080022da:    2600        .&      MOVS     r6,#0
        0x080022dc:    2000        .       MOVS     r0,#0
        0x080022de:    2300        .#      MOVS     r3,#0
        0x080022e0:    2400        .$      MOVS     r4,#0
        0x080022e2:    2700        .'      MOVS     r7,#0
        0x080022e4:    f891c003    ....    LDRB     r12,[r1,#3]
        0x080022e8:    f00c050f    ....    AND      r5,r12,#0xf
        0x080022ec:    f891c003    ....    LDRB     r12,[r1,#3]
        0x080022f0:    f00c0c10    ....    AND      r12,r12,#0x10
        0x080022f4:    f1bc0f00    ....    CMP      r12,#0
        0x080022f8:    d003        ..      BEQ      0x8002302 ; GPIO_Init + 48
        0x080022fa:    f891c002    ....    LDRB     r12,[r1,#2]
        0x080022fe:    ea4c0505    L...    ORR      r5,r12,r5
        0x08002302:    f891c000    ....    LDRB     r12,[r1,#0]
        0x08002306:    f1bc0f00    ....    CMP      r12,#0
        0x0800230a:    d031        1.      BEQ      0x8002370 ; GPIO_Init + 158
        0x0800230c:    6814        .h      LDR      r4,[r2,#0]
        0x0800230e:    2000        .       MOVS     r0,#0
        0x08002310:    e02b        +.      B        0x800236a ; GPIO_Init + 152
        0x08002312:    f04f0c01    O...    MOV      r12,#1
        0x08002316:    fa0cf300    ....    LSL      r3,r12,r0
        0x0800231a:    f8b1c000    ....    LDRH     r12,[r1,#0]
        0x0800231e:    ea0c0603    ....    AND      r6,r12,r3
        0x08002322:    429e        .B      CMP      r6,r3
        0x08002324:    d120         .      BNE      0x8002368 ; GPIO_Init + 150
        0x08002326:    0083        ..      LSLS     r3,r0,#2
        0x08002328:    f04f0c0f    O...    MOV      r12,#0xf
        0x0800232c:    fa0cf703    ....    LSL      r7,r12,r3
        0x08002330:    43bc        .C      BICS     r4,r4,r7
        0x08002332:    fa05fc03    ....    LSL      r12,r5,r3
        0x08002336:    ea4c0404    L...    ORR      r4,r12,r4
        0x0800233a:    f891c003    ....    LDRB     r12,[r1,#3]
        0x0800233e:    f1bc0f28    ..(.    CMP      r12,#0x28
        0x08002342:    d106        ..      BNE      0x8002352 ; GPIO_Init + 128
        0x08002344:    f04f0c01    O...    MOV      r12,#1
        0x08002348:    fa0cfc00    ....    LSL      r12,r12,r0
        0x0800234c:    f8c2c014    ....    STR      r12,[r2,#0x14]
        0x08002350:    e00a        ..      B        0x8002368 ; GPIO_Init + 150
        0x08002352:    f891c003    ....    LDRB     r12,[r1,#3]
        0x08002356:    f1bc0f48    ..H.    CMP      r12,#0x48
        0x0800235a:    d105        ..      BNE      0x8002368 ; GPIO_Init + 150
        0x0800235c:    f04f0c01    O...    MOV      r12,#1
        0x08002360:    fa0cfc00    ....    LSL      r12,r12,r0
        0x08002364:    f8c2c010    ....    STR      r12,[r2,#0x10]
        0x08002368:    1c40        @.      ADDS     r0,r0,#1
        0x0800236a:    2808        .(      CMP      r0,#8
        0x0800236c:    d3d1        ..      BCC      0x8002312 ; GPIO_Init + 64
        0x0800236e:    6014        .`      STR      r4,[r2,#0]
        0x08002370:    f8b1c000    ....    LDRH     r12,[r1,#0]
        0x08002374:    f1bc0fff    ....    CMP      r12,#0xff
        0x08002378:    dd34        4.      BLE      0x80023e4 ; GPIO_Init + 274
        0x0800237a:    6854        Th      LDR      r4,[r2,#4]
        0x0800237c:    2000        .       MOVS     r0,#0
        0x0800237e:    e02e        ..      B        0x80023de ; GPIO_Init + 268
        0x08002380:    f1000c08    ....    ADD      r12,r0,#8
        0x08002384:    f04f0801    O...    MOV      r8,#1
        0x08002388:    fa08f30c    ....    LSL      r3,r8,r12
        0x0800238c:    f8b1c000    ....    LDRH     r12,[r1,#0]
        0x08002390:    ea0c0603    ....    AND      r6,r12,r3
        0x08002394:    429e        .B      CMP      r6,r3
        0x08002396:    d121        !.      BNE      0x80023dc ; GPIO_Init + 266
        0x08002398:    0083        ..      LSLS     r3,r0,#2
        0x0800239a:    f04f0c0f    O...    MOV      r12,#0xf
        0x0800239e:    fa0cf703    ....    LSL      r7,r12,r3
        0x080023a2:    43bc        .C      BICS     r4,r4,r7
        0x080023a4:    fa05fc03    ....    LSL      r12,r5,r3
        0x080023a8:    ea4c0404    L...    ORR      r4,r12,r4
        0x080023ac:    f891c003    ....    LDRB     r12,[r1,#3]
        0x080023b0:    f1bc0f28    ..(.    CMP      r12,#0x28
        0x080023b4:    d105        ..      BNE      0x80023c2 ; GPIO_Init + 240
        0x080023b6:    f1000c08    ....    ADD      r12,r0,#8
        0x080023ba:    fa08f80c    ....    LSL      r8,r8,r12
        0x080023be:    f8c28014    ....    STR      r8,[r2,#0x14]
        0x080023c2:    f891c003    ....    LDRB     r12,[r1,#3]
        0x080023c6:    f1bc0f48    ..H.    CMP      r12,#0x48
        0x080023ca:    d107        ..      BNE      0x80023dc ; GPIO_Init + 266
        0x080023cc:    f1000c08    ....    ADD      r12,r0,#8
        0x080023d0:    f04f0801    O...    MOV      r8,#1
        0x080023d4:    fa08f80c    ....    LSL      r8,r8,r12
        0x080023d8:    f8c28010    ....    STR      r8,[r2,#0x10]
        0x080023dc:    1c40        @.      ADDS     r0,r0,#1
        0x080023de:    2808        .(      CMP      r0,#8
        0x080023e0:    d3ce        ..      BCC      0x8002380 ; GPIO_Init + 174
        0x080023e2:    6054        T`      STR      r4,[r2,#4]
        0x080023e4:    e8bd81f0    ....    POP      {r4-r8,pc}
    i.GPIO_ReadInputDataBit
    GPIO_ReadInputDataBit
        0x080023e8:    4602        .F      MOV      r2,r0
        0x080023ea:    2000        .       MOVS     r0,#0
        0x080023ec:    6893        .h      LDR      r3,[r2,#8]
        0x080023ee:    400b        .@      ANDS     r3,r3,r1
        0x080023f0:    b10b        ..      CBZ      r3,0x80023f6 ; GPIO_ReadInputDataBit + 14
        0x080023f2:    2001        .       MOVS     r0,#1
        0x080023f4:    e000        ..      B        0x80023f8 ; GPIO_ReadInputDataBit + 16
        0x080023f6:    2000        .       MOVS     r0,#0
        0x080023f8:    4770        pG      BX       lr
    i.GPIO_ReadOutputDataBit
    GPIO_ReadOutputDataBit
        0x080023fa:    4602        .F      MOV      r2,r0
        0x080023fc:    2000        .       MOVS     r0,#0
        0x080023fe:    68d3        .h      LDR      r3,[r2,#0xc]
        0x08002400:    400b        .@      ANDS     r3,r3,r1
        0x08002402:    b10b        ..      CBZ      r3,0x8002408 ; GPIO_ReadOutputDataBit + 14
        0x08002404:    2001        .       MOVS     r0,#1
        0x08002406:    e000        ..      B        0x800240a ; GPIO_ReadOutputDataBit + 16
        0x08002408:    2000        .       MOVS     r0,#0
        0x0800240a:    4770        pG      BX       lr
    i.GPIO_ResetBits
    GPIO_ResetBits
        0x0800240c:    6141        Aa      STR      r1,[r0,#0x14]
        0x0800240e:    4770        pG      BX       lr
    i.GPIO_SetBits
    GPIO_SetBits
        0x08002410:    6101        .a      STR      r1,[r0,#0x10]
        0x08002412:    4770        pG      BX       lr
    i.GPIO_WriteBit
    GPIO_WriteBit
        0x08002414:    b10a        ..      CBZ      r2,0x800241a ; GPIO_WriteBit + 6
        0x08002416:    6101        .a      STR      r1,[r0,#0x10]
        0x08002418:    e000        ..      B        0x800241c ; GPIO_WriteBit + 8
        0x0800241a:    6141        Aa      STR      r1,[r0,#0x14]
        0x0800241c:    4770        pG      BX       lr
        0x0800241e:    0000        ..      MOVS     r0,r0
    i.Get_APPVersion
    Get_APPVersion
        0x08002420:    b510        ..      PUSH     {r4,lr}
        0x08002422:    bf00        ..      NOP      
        0x08002424:    2295        ."      MOVS     r2,#0x95
        0x08002426:    a107        ..      ADR      r1,{pc}+0x1e ; 0x8002444
        0x08002428:    a00a        ..      ADR      r0,{pc}+0x2c ; 0x8002454
        0x0800242a:    f7fff939    ..9.    BL       CMD_USART_Printf ; 0x80016a0
        0x0800242e:    bf00        ..      NOP      
        0x08002430:    bf00        ..      NOP      
        0x08002432:    4b10        .K      LDR      r3,[pc,#64] ; [0x8002474] = 0x2000043d
        0x08002434:    2296        ."      MOVS     r2,#0x96
        0x08002436:    a103        ..      ADR      r1,{pc}+0xe ; 0x8002444
        0x08002438:    a00f        ..      ADR      r0,{pc}+0x40 ; 0x8002478
        0x0800243a:    f7fff931    ..1.    BL       CMD_USART_Printf ; 0x80016a0
        0x0800243e:    bf00        ..      NOP      
        0x08002440:    bd10        ..      POP      {r4,pc}
    $d
        0x08002442:    0000        ..      DCW    0
        0x08002444:    64726148    Hard    DCD    1685217608
        0x08002448:    65726177    ware    DCD    1701994871
        0x0800244c:    6f6f425c    \Boo    DCD    1869562460
        0x08002450:    00632e74    t.c.    DCD    6499956
        0x08002454:    3a73255b    [%s:    DCD    980624731
        0x08002458:    205d6425    %d]     DCD    542991397
        0x0800245c:    e593bde5    ....    DCD    3851664869
        0x08002460:    89e78d89    ....    DCD    2313653641
        0x08002464:    ac9ce688    ....    DCD    2895963784
        0x08002468:    e4b78fe5    ....    DCD    3837235173
        0x0800246c:    bcefbab8    ....    DCD    3169827512
        0x08002470:    000a0d9a    ....    DCD    658842
        0x08002474:    2000043d    =..     DCD    536871997
        0x08002478:    3a73255b    [%s:    DCD    980624731
        0x0800247c:    205d6425    %d]     DCD    542991397
        0x08002480:    0a0d7325    %s..    DCD    168653605
        0x08002484:    00000000    ....    DCD    0
    $t
    i.HWSPI_Init
    HWSPI_Init
        0x08002488:    b500        ..      PUSH     {lr}
        0x0800248a:    b087        ..      SUB      sp,sp,#0x1c
        0x0800248c:    2101        .!      MOVS     r1,#1
        0x0800248e:    2008        .       MOVS     r0,#8
        0x08002490:    f000fb90    ....    BL       RCC_APB2PeriphClockCmd ; 0x8002bb4
        0x08002494:    2101        .!      MOVS     r1,#1
        0x08002496:    0388        ..      LSLS     r0,r1,#14
        0x08002498:    f000fb6c    ..l.    BL       RCC_APB1PeriphClockCmd ; 0x8002b74
        0x0800249c:    2010        .       MOVS     r0,#0x10
        0x0800249e:    f88d001b    ....    STRB     r0,[sp,#0x1b]
        0x080024a2:    0200        ..      LSLS     r0,r0,#8
        0x080024a4:    f8ad0018    ....    STRH     r0,[sp,#0x18]
        0x080024a8:    2003        .       MOVS     r0,#3
        0x080024aa:    f88d001a    ....    STRB     r0,[sp,#0x1a]
        0x080024ae:    a906        ..      ADD      r1,sp,#0x18
        0x080024b0:    4823        #H      LDR      r0,[pc,#140] ; [0x8002540] = 0x40010c00
        0x080024b2:    f7ffff0e    ....    BL       GPIO_Init ; 0x80022d2
        0x080024b6:    2018        .       MOVS     r0,#0x18
        0x080024b8:    f88d001b    ....    STRB     r0,[sp,#0x1b]
        0x080024bc:    f44f4020    O. @    MOV      r0,#0xa000
        0x080024c0:    f8ad0018    ....    STRH     r0,[sp,#0x18]
        0x080024c4:    2003        .       MOVS     r0,#3
        0x080024c6:    f88d001a    ....    STRB     r0,[sp,#0x1a]
        0x080024ca:    a906        ..      ADD      r1,sp,#0x18
        0x080024cc:    481c        .H      LDR      r0,[pc,#112] ; [0x8002540] = 0x40010c00
        0x080024ce:    f7ffff00    ....    BL       GPIO_Init ; 0x80022d2
        0x080024d2:    2048        H       MOVS     r0,#0x48
        0x080024d4:    f88d001b    ....    STRB     r0,[sp,#0x1b]
        0x080024d8:    f44f4080    O..@    MOV      r0,#0x4000
        0x080024dc:    f8ad0018    ....    STRH     r0,[sp,#0x18]
        0x080024e0:    2003        .       MOVS     r0,#3
        0x080024e2:    f88d001a    ....    STRB     r0,[sp,#0x1a]
        0x080024e6:    a906        ..      ADD      r1,sp,#0x18
        0x080024e8:    4815        .H      LDR      r0,[pc,#84] ; [0x8002540] = 0x40010c00
        0x080024ea:    f7fffef2    ....    BL       GPIO_Init ; 0x80022d2
        0x080024ee:    4815        .H      LDR      r0,[pc,#84] ; [0x8002544] = 0x40003800
        0x080024f0:    f000fc68    ..h.    BL       SPI_I2S_DeInit ; 0x8002dc4
        0x080024f4:    2000        .       MOVS     r0,#0
        0x080024f6:    f8ad0010    ....    STRH     r0,[sp,#0x10]
        0x080024fa:    f8ad000c    ....    STRH     r0,[sp,#0xc]
        0x080024fe:    f8ad000a    ....    STRH     r0,[sp,#0xa]
        0x08002502:    2007        .       MOVS     r0,#7
        0x08002504:    f8ad0014    ....    STRH     r0,[sp,#0x14]
        0x08002508:    2000        .       MOVS     r0,#0
        0x0800250a:    f8ad0008    ....    STRH     r0,[sp,#8]
        0x0800250e:    f8ad0004    ....    STRH     r0,[sp,#4]
        0x08002512:    f8ad0012    ....    STRH     r0,[sp,#0x12]
        0x08002516:    f44f7082    O..p    MOV      r0,#0x104
        0x0800251a:    f8ad0006    ....    STRH     r0,[sp,#6]
        0x0800251e:    f44f7000    O..p    MOV      r0,#0x200
        0x08002522:    f8ad000e    ....    STRH     r0,[sp,#0xe]
        0x08002526:    a901        ..      ADD      r1,sp,#4
        0x08002528:    4806        .H      LDR      r0,[pc,#24] ; [0x8002544] = 0x40003800
        0x0800252a:    f000fc85    ....    BL       SPI_Init ; 0x8002e38
        0x0800252e:    2101        .!      MOVS     r1,#1
        0x08002530:    4804        .H      LDR      r0,[pc,#16] ; [0x8002544] = 0x40003800
        0x08002532:    f000fc3b    ..;.    BL       SPI_Cmd ; 0x8002dac
        0x08002536:    2001        .       MOVS     r0,#1
        0x08002538:    f000fcdc    ....    BL       SPI_W_SS ; 0x8002ef4
        0x0800253c:    b007        ..      ADD      sp,sp,#0x1c
        0x0800253e:    bd00        ..      POP      {pc}
    $d
        0x08002540:    40010c00    ...@    DCD    1073810432
        0x08002544:    40003800    .8.@    DCD    1073756160
    $t
    i.HardFault_Handler
    HardFault_Handler
        0x08002548:    bf00        ..      NOP      
        0x0800254a:    e7fe        ..      B        0x800254a ; HardFault_Handler + 2
    i.IIC_Init
    IIC_Init
        0x0800254c:    b508        ..      PUSH     {r3,lr}
        0x0800254e:    2101        .!      MOVS     r1,#1
        0x08002550:    2008        .       MOVS     r0,#8
        0x08002552:    f000fb2f    ../.    BL       RCC_APB2PeriphClockCmd ; 0x8002bb4
        0x08002556:    2014        .       MOVS     r0,#0x14
        0x08002558:    f88d0003    ....    STRB     r0,[sp,#3]
        0x0800255c:    20c0        .       MOVS     r0,#0xc0
        0x0800255e:    f8ad0000    ....    STRH     r0,[sp,#0]
        0x08002562:    2003        .       MOVS     r0,#3
        0x08002564:    f88d0002    ....    STRB     r0,[sp,#2]
        0x08002568:    4669        iF      MOV      r1,sp
        0x0800256a:    4804        .H      LDR      r0,[pc,#16] ; [0x800257c] = 0x40010c00
        0x0800256c:    f7fffeb1    ....    BL       GPIO_Init ; 0x80022d2
        0x08002570:    21c0        .!      MOVS     r1,#0xc0
        0x08002572:    4802        .H      LDR      r0,[pc,#8] ; [0x800257c] = 0x40010c00
        0x08002574:    f7ffff4c    ..L.    BL       GPIO_SetBits ; 0x8002410
        0x08002578:    bd08        ..      POP      {r3,pc}
    $d
        0x0800257a:    0000        ..      DCW    0
        0x0800257c:    40010c00    ...@    DCD    1073810432
    $t
    i.IIC_RD_SDA
    IIC_RD_SDA
        0x08002580:    b510        ..      PUSH     {r4,lr}
        0x08002582:    2180        .!      MOVS     r1,#0x80
        0x08002584:    4804        .H      LDR      r0,[pc,#16] ; [0x8002598] = 0x40010c00
        0x08002586:    f7ffff2f    ../.    BL       GPIO_ReadInputDataBit ; 0x80023e8
        0x0800258a:    4604        .F      MOV      r4,r0
        0x0800258c:    200a        .       MOVS     r0,#0xa
        0x0800258e:    f7fff8e9    ....    BL       Delay_us ; 0x8001764
        0x08002592:    4620         F      MOV      r0,r4
        0x08002594:    bd10        ..      POP      {r4,pc}
    $d
        0x08002596:    0000        ..      DCW    0
        0x08002598:    40010c00    ...@    DCD    1073810432
    $t
    i.IIC_ReceiveAck
    IIC_ReceiveAck
        0x0800259c:    b510        ..      PUSH     {r4,lr}
        0x0800259e:    4604        .F      MOV      r4,r0
        0x080025a0:    2001        .       MOVS     r0,#1
        0x080025a2:    f000f8ab    ....    BL       IIC_W_SDA ; 0x80026fc
        0x080025a6:    e004        ..      B        0x80025b2 ; IIC_ReceiveAck + 22
        0x080025a8:    1e60        `.      SUBS     r0,r4,#1
        0x080025aa:    b204        ..      SXTH     r4,r0
        0x080025ac:    200a        .       MOVS     r0,#0xa
        0x080025ae:    f7fff8d9    ....    BL       Delay_us ; 0x8001764
        0x080025b2:    2c00        .,      CMP      r4,#0
        0x080025b4:    dd03        ..      BLE      0x80025be ; IIC_ReceiveAck + 34
        0x080025b6:    f7ffffe3    ....    BL       IIC_RD_SDA ; 0x8002580
        0x080025ba:    2800        .(      CMP      r0,#0
        0x080025bc:    d1f4        ..      BNE      0x80025a8 ; IIC_ReceiveAck + 12
        0x080025be:    2001        .       MOVS     r0,#1
        0x080025c0:    f000f88e    ....    BL       IIC_W_SCL ; 0x80026e0
        0x080025c4:    2c00        .,      CMP      r4,#0
        0x080025c6:    dd02        ..      BLE      0x80025ce ; IIC_ReceiveAck + 50
        0x080025c8:    f7ffffda    ....    BL       IIC_RD_SDA ; 0x8002580
        0x080025cc:    b158        X.      CBZ      r0,0x80025e6 ; IIC_ReceiveAck + 74
        0x080025ce:    2000        .       MOVS     r0,#0
        0x080025d0:    f000f886    ....    BL       IIC_W_SCL ; 0x80026e0
        0x080025d4:    bf00        ..      NOP      
        0x080025d6:    227d        }"      MOVS     r2,#0x7d
        0x080025d8:    a105        ..      ADR      r1,{pc}+0x18 ; 0x80025f0
        0x080025da:    a009        ..      ADR      r0,{pc}+0x26 ; 0x8002600
        0x080025dc:    f7fff860    ..`.    BL       CMD_USART_Printf ; 0x80016a0
        0x080025e0:    bf00        ..      NOP      
        0x080025e2:    2001        .       MOVS     r0,#1
        0x080025e4:    bd10        ..      POP      {r4,pc}
        0x080025e6:    2000        .       MOVS     r0,#0
        0x080025e8:    f000f87a    ..z.    BL       IIC_W_SCL ; 0x80026e0
        0x080025ec:    2000        .       MOVS     r0,#0
        0x080025ee:    e7f9        ..      B        0x80025e4 ; IIC_ReceiveAck + 72
    $d
        0x080025f0:    64726148    Hard    DCD    1685217608
        0x080025f4:    65726177    ware    DCD    1701994871
        0x080025f8:    4349495c    \IIC    DCD    1128876380
        0x080025fc:    0000632e    .c..    DCD    25390
        0x08002600:    3a73255b    [%s:    DCD    980624731
        0x08002604:    205d6425    %d]     DCD    542991397
        0x08002608:    20434949    IIC     DCD    541280585
        0x0800260c:    204b4341    ACK     DCD    541803329
        0x08002610:    656d6974    time    DCD    1701669236
        0x08002614:    0d74756f    out.    DCD    225736047
        0x08002618:    0000000a    ....    DCD    10
    $t
    i.IIC_ReceiveByte
    IIC_ReceiveByte
        0x0800261c:    b570        p.      PUSH     {r4-r6,lr}
        0x0800261e:    2500        .%      MOVS     r5,#0
        0x08002620:    2000        .       MOVS     r0,#0
        0x08002622:    f000f85d    ..].    BL       IIC_W_SCL ; 0x80026e0
        0x08002626:    2001        .       MOVS     r0,#1
        0x08002628:    f000f868    ..h.    BL       IIC_W_SDA ; 0x80026fc
        0x0800262c:    2400        .$      MOVS     r4,#0
        0x0800262e:    e00d        ..      B        0x800264c ; IIC_ReceiveByte + 48
        0x08002630:    2001        .       MOVS     r0,#1
        0x08002632:    f000f855    ..U.    BL       IIC_W_SCL ; 0x80026e0
        0x08002636:    f7ffffa3    ....    BL       IIC_RD_SDA ; 0x8002580
        0x0800263a:    2801        .(      CMP      r0,#1
        0x0800263c:    d102        ..      BNE      0x8002644 ; IIC_ReceiveByte + 40
        0x0800263e:    2080        .       MOVS     r0,#0x80
        0x08002640:    4120         A      ASRS     r0,r0,r4
        0x08002642:    4305        .C      ORRS     r5,r5,r0
        0x08002644:    2000        .       MOVS     r0,#0
        0x08002646:    f000f84b    ..K.    BL       IIC_W_SCL ; 0x80026e0
        0x0800264a:    1c64        d.      ADDS     r4,r4,#1
        0x0800264c:    2c08        .,      CMP      r4,#8
        0x0800264e:    dbef        ..      BLT      0x8002630 ; IIC_ReceiveByte + 20
        0x08002650:    4628        (F      MOV      r0,r5
        0x08002652:    bd70        p.      POP      {r4-r6,pc}
    i.IIC_SendAck
    IIC_SendAck
        0x08002654:    b510        ..      PUSH     {r4,lr}
        0x08002656:    4604        .F      MOV      r4,r0
        0x08002658:    4620         F      MOV      r0,r4
        0x0800265a:    f000f84f    ..O.    BL       IIC_W_SDA ; 0x80026fc
        0x0800265e:    2001        .       MOVS     r0,#1
        0x08002660:    f000f83e    ..>.    BL       IIC_W_SCL ; 0x80026e0
        0x08002664:    2000        .       MOVS     r0,#0
        0x08002666:    f000f83b    ..;.    BL       IIC_W_SCL ; 0x80026e0
        0x0800266a:    2001        .       MOVS     r0,#1
        0x0800266c:    f000f846    ..F.    BL       IIC_W_SDA ; 0x80026fc
        0x08002670:    bd10        ..      POP      {r4,pc}
    i.IIC_SendByte
    IIC_SendByte
        0x08002672:    b570        p.      PUSH     {r4-r6,lr}
        0x08002674:    4605        .F      MOV      r5,r0
        0x08002676:    2400        .$      MOVS     r4,#0
        0x08002678:    e00f        ..      B        0x800269a ; IIC_SendByte + 40
        0x0800267a:    2000        .       MOVS     r0,#0
        0x0800267c:    f000f830    ..0.    BL       IIC_W_SCL ; 0x80026e0
        0x08002680:    2180        .!      MOVS     r1,#0x80
        0x08002682:    4121        !A      ASRS     r1,r1,r4
        0x08002684:    ea010005    ....    AND      r0,r1,r5
        0x08002688:    f000f838    ..8.    BL       IIC_W_SDA ; 0x80026fc
        0x0800268c:    2001        .       MOVS     r0,#1
        0x0800268e:    f000f827    ..'.    BL       IIC_W_SCL ; 0x80026e0
        0x08002692:    2000        .       MOVS     r0,#0
        0x08002694:    f000f824    ..$.    BL       IIC_W_SCL ; 0x80026e0
        0x08002698:    1c64        d.      ADDS     r4,r4,#1
        0x0800269a:    2c08        .,      CMP      r4,#8
        0x0800269c:    dbed        ..      BLT      0x800267a ; IIC_SendByte + 8
        0x0800269e:    2001        .       MOVS     r0,#1
        0x080026a0:    f000f82c    ..,.    BL       IIC_W_SDA ; 0x80026fc
        0x080026a4:    bd70        p.      POP      {r4-r6,pc}
    i.IIC_Start
    IIC_Start
        0x080026a6:    b510        ..      PUSH     {r4,lr}
        0x080026a8:    2001        .       MOVS     r0,#1
        0x080026aa:    f000f827    ..'.    BL       IIC_W_SDA ; 0x80026fc
        0x080026ae:    2001        .       MOVS     r0,#1
        0x080026b0:    f000f816    ....    BL       IIC_W_SCL ; 0x80026e0
        0x080026b4:    2000        .       MOVS     r0,#0
        0x080026b6:    f000f821    ..!.    BL       IIC_W_SDA ; 0x80026fc
        0x080026ba:    2000        .       MOVS     r0,#0
        0x080026bc:    f000f810    ....    BL       IIC_W_SCL ; 0x80026e0
        0x080026c0:    bd10        ..      POP      {r4,pc}
    i.IIC_Stop
    IIC_Stop
        0x080026c2:    b510        ..      PUSH     {r4,lr}
        0x080026c4:    2000        .       MOVS     r0,#0
        0x080026c6:    f000f80b    ....    BL       IIC_W_SCL ; 0x80026e0
        0x080026ca:    2000        .       MOVS     r0,#0
        0x080026cc:    f000f816    ....    BL       IIC_W_SDA ; 0x80026fc
        0x080026d0:    2001        .       MOVS     r0,#1
        0x080026d2:    f000f805    ....    BL       IIC_W_SCL ; 0x80026e0
        0x080026d6:    2001        .       MOVS     r0,#1
        0x080026d8:    f000f810    ....    BL       IIC_W_SDA ; 0x80026fc
        0x080026dc:    bd10        ..      POP      {r4,pc}
        0x080026de:    0000        ..      MOVS     r0,r0
    i.IIC_W_SCL
    IIC_W_SCL
        0x080026e0:    b510        ..      PUSH     {r4,lr}
        0x080026e2:    4604        .F      MOV      r4,r0
        0x080026e4:    4622        "F      MOV      r2,r4
        0x080026e6:    2140        @!      MOVS     r1,#0x40
        0x080026e8:    4803        .H      LDR      r0,[pc,#12] ; [0x80026f8] = 0x40010c00
        0x080026ea:    f7fffe93    ....    BL       GPIO_WriteBit ; 0x8002414
        0x080026ee:    200a        .       MOVS     r0,#0xa
        0x080026f0:    f7fff838    ..8.    BL       Delay_us ; 0x8001764
        0x080026f4:    bd10        ..      POP      {r4,pc}
    $d
        0x080026f6:    0000        ..      DCW    0
        0x080026f8:    40010c00    ...@    DCD    1073810432
    $t
    i.IIC_W_SDA
    IIC_W_SDA
        0x080026fc:    b510        ..      PUSH     {r4,lr}
        0x080026fe:    4604        .F      MOV      r4,r0
        0x08002700:    4622        "F      MOV      r2,r4
        0x08002702:    2180        .!      MOVS     r1,#0x80
        0x08002704:    4803        .H      LDR      r0,[pc,#12] ; [0x8002714] = 0x40010c00
        0x08002706:    f7fffe85    ....    BL       GPIO_WriteBit ; 0x8002414
        0x0800270a:    200a        .       MOVS     r0,#0xa
        0x0800270c:    f7fff82a    ..*.    BL       Delay_us ; 0x8001764
        0x08002710:    bd10        ..      POP      {r4,pc}
    $d
        0x08002712:    0000        ..      DCW    0
        0x08002714:    40010c00    ...@    DCD    1073810432
    $t
    i.InterFlash_ErasePage
    InterFlash_ErasePage
        0x08002718:    b570        p.      PUSH     {r4-r6,lr}
        0x0800271a:    4604        .F      MOV      r4,r0
        0x0800271c:    f7fffdba    ....    BL       FLASH_Unlock ; 0x8002294
        0x08002720:    4620         F      MOV      r0,r4
        0x08002722:    f7fffd37    ..7.    BL       FLASH_ErasePage ; 0x8002194
        0x08002726:    4605        .F      MOV      r5,r0
        0x08002728:    f7fffd74    ..t.    BL       FLASH_Lock ; 0x8002214
        0x0800272c:    4628        (F      MOV      r0,r5
        0x0800272e:    bd70        p.      POP      {r4-r6,pc}
    i.InterFlash_RecvBin
    InterFlash_RecvBin
        0x08002730:    b510        ..      PUSH     {r4,lr}
        0x08002732:    2400        .$      MOVS     r4,#0
        0x08002734:    e021        !.      B        0x800277a ; InterFlash_RecvBin + 74
        0x08002736:    f001f8c1    ....    BL       Xmodem_RecvData_1K ; 0x80038bc
        0x0800273a:    4604        .F      MOV      r4,r0
        0x0800273c:    2c1c        .,      CMP      r4,#0x1c
        0x0800273e:    d107        ..      BNE      0x8002750 ; InterFlash_RecvBin + 32
        0x08002740:    bf00        ..      NOP      
        0x08002742:    2289        ."      MOVS     r2,#0x89
        0x08002744:    a10d        ..      ADR      r1,{pc}+0x38 ; 0x800277c
        0x08002746:    a013        ..      ADR      r0,{pc}+0x4e ; 0x8002794
        0x08002748:    f7feffaa    ....    BL       CMD_USART_Printf ; 0x80016a0
        0x0800274c:    bf00        ..      NOP      
        0x0800274e:    bd10        ..      POP      {r4,pc}
        0x08002750:    2c1a        .,      CMP      r4,#0x1a
        0x08002752:    d10d        ..      BNE      0x8002770 ; InterFlash_RecvBin + 64
        0x08002754:    481b        .H      LDR      r0,[pc,#108] ; [0x80027c4] = 0x20000514
        0x08002756:    f8900400    ....    LDRB     r0,[r0,#0x400]
        0x0800275a:    f0000007    ....    AND      r0,r0,#7
        0x0800275e:    b938        8.      CBNZ     r0,0x8002770 ; InterFlash_RecvBin + 64
        0x08002760:    bf00        ..      NOP      
        0x08002762:    228e        ."      MOVS     r2,#0x8e
        0x08002764:    a105        ..      ADR      r1,{pc}+0x18 ; 0x800277c
        0x08002766:    a018        ..      ADR      r0,{pc}+0x62 ; 0x80027c8
        0x08002768:    f7feff9a    ....    BL       CMD_USART_Printf ; 0x80016a0
        0x0800276c:    bf00        ..      NOP      
        0x0800276e:    e7ee        ..      B        0x800274e ; InterFlash_RecvBin + 30
        0x08002770:    f000f846    ..F.    BL       InterFlash_UpdatePage ; 0x8002800
        0x08002774:    2c1a        .,      CMP      r4,#0x1a
        0x08002776:    d100        ..      BNE      0x800277a ; InterFlash_RecvBin + 74
        0x08002778:    e7e9        ..      B        0x800274e ; InterFlash_RecvBin + 30
        0x0800277a:    e7dc        ..      B        0x8002736 ; InterFlash_RecvBin + 6
    $d
        0x0800277c:    64726148    Hard    DCD    1685217608
        0x08002780:    65726177    ware    DCD    1701994871
        0x08002784:    746e495c    \Int    DCD    1953384796
        0x08002788:    6c467265    erFl    DCD    1816556133
        0x0800278c:    2e687361    ash.    DCD    778597217
        0x08002790:    00000063    c...    DCD    99
        0x08002794:    3a73255b    [%s:    DCD    980624731
        0x08002798:    205d6425    %d]     DCD    542991397
        0x0800279c:    e58fbae5    ....    DCD    3851401957
        0x080027a0:    87e5b78f    ....    DCD    2279978895
        0x080027a4:    9994e9ba    ....    DCD    2576673210
        0x080027a8:    e48cbcef    ....    DCD    3834428655
        0x080027ac:    8ae5bbb8    ....    DCD    2330311608
        0x080027b0:    93bbe7a8    ....    DCD    2478565288
        0x080027b4:    e49f9de6    ....    DCD    3835665894
        0x080027b8:    bee8a0bc    ....    DCD    3202916540
        0x080027bc:    0a0d2093    . ..    DCD    168632467
        0x080027c0:    00000000    ....    DCD    0
        0x080027c4:    20000514    ...     DCD    536872212
        0x080027c8:    3a73255b    [%s:    DCD    980624731
        0x080027cc:    205d6425    %d]     DCD    542991397
        0x080027d0:    e7b5a1e9    ....    DCD    3887440361
        0x080027d4:    86e593bc    ....    DCD    2263192508
        0x080027d8:    ba8ce5b2    ....    DCD    3129796018
        0x080027dc:    e5adb8e4    ....    DCD    3853367524
        0x080027e0:    97e6b2b7    ....    DCD    2548478647
        0x080027e4:    809ce9a0    ....    DCD    2157767072
        0x080027e8:    e581a6e8    ....    DCD    3850479336
        0x080027ec:    85e59986    ....    DCD    2246416774
        0x080027f0:    849ae7a5    ....    DCD    2224744357
        0x080027f4:    e6b095e6    ....    DCD    3870332390
        0x080027f8:    0d20ae8d    .. .    DCD    220245645
        0x080027fc:    0000000a    ....    DCD    10
    $t
    i.InterFlash_UpdatePage
    InterFlash_UpdatePage
        0x08002800:    b510        ..      PUSH     {r4,lr}
        0x08002802:    2400        .$      MOVS     r4,#0
        0x08002804:    4810        .H      LDR      r0,[pc,#64] ; [0x8002848] = 0x20000514
        0x08002806:    f8900400    ....    LDRB     r0,[r0,#0x400]
        0x0800280a:    f0000007    ....    AND      r0,r0,#7
        0x0800280e:    b950        P.      CBNZ     r0,0x8002826 ; InterFlash_UpdatePage + 38
        0x08002810:    480d        .H      LDR      r0,[pc,#52] ; [0x8002848] = 0x20000514
        0x08002812:    f8d00400    ....    LDR      r0,[r0,#0x400]
        0x08002816:    2101        .!      MOVS     r1,#1
        0x08002818:    ebc100d0    ....    RSB      r0,r1,r0,LSR #3
        0x0800281c:    490b        .I      LDR      r1,[pc,#44] ; [0x800284c] = 0x8005000
        0x0800281e:    144a        J.      ASRS     r2,r1,#17
        0x08002820:    fb021400    ....    MLA      r4,r2,r0,r1
        0x08002824:    e007        ..      B        0x8002836 ; InterFlash_UpdatePage + 54
        0x08002826:    4808        .H      LDR      r0,[pc,#32] ; [0x8002848] = 0x20000514
        0x08002828:    f8d00400    ....    LDR      r0,[r0,#0x400]
        0x0800282c:    08c0        ..      LSRS     r0,r0,#3
        0x0800282e:    4907        .I      LDR      r1,[pc,#28] ; [0x800284c] = 0x8005000
        0x08002830:    144a        J.      ASRS     r2,r1,#17
        0x08002832:    fb021400    ....    MLA      r4,r2,r0,r1
        0x08002836:    4620         F      MOV      r0,r4
        0x08002838:    f7ffff6e    ..n.    BL       InterFlash_ErasePage ; 0x8002718
        0x0800283c:    4902        .I      LDR      r1,[pc,#8] ; [0x8002848] = 0x20000514
        0x0800283e:    4620         F      MOV      r0,r4
        0x08002840:    f000f86e    ..n.    BL       InterFlash_WritePage ; 0x8002920
        0x08002844:    bd10        ..      POP      {r4,pc}
    $d
        0x08002846:    0000        ..      DCW    0
        0x08002848:    20000514    ...     DCD    536872212
        0x0800284c:    08005000    .P..    DCD    134238208
    $t
    i.InterFlash_WriteBuf_Word
    InterFlash_WriteBuf_Word
        0x08002850:    e92d47f0    -..G    PUSH     {r4-r10,lr}
        0x08002854:    4606        .F      MOV      r6,r0
        0x08002856:    460f        .F      MOV      r7,r1
        0x08002858:    4690        .F      MOV      r8,r2
        0x0800285a:    f04f0900    O...    MOV      r9,#0
        0x0800285e:    f7fffd19    ....    BL       FLASH_Unlock ; 0x8002294
        0x08002862:    2400        .$      MOVS     r4,#0
        0x08002864:    e020         .      B        0x80028a8 ; InterFlash_WriteBuf_Word + 88
        0x08002866:    eb060984    ....    ADD      r9,r6,r4,LSL #2
        0x0800286a:    4812        .H      LDR      r0,[pc,#72] ; [0x80028b4] = 0x800ffff
        0x0800286c:    4581        .E      CMP      r9,r0
        0x0800286e:    d908        ..      BLS      0x8002882 ; InterFlash_WriteBuf_Word + 50
        0x08002870:    bf00        ..      NOP      
        0x08002872:    225a        Z"      MOVS     r2,#0x5a
        0x08002874:    a110        ..      ADR      r1,{pc}+0x44 ; 0x80028b8
        0x08002876:    a016        ..      ADR      r0,{pc}+0x5a ; 0x80028d0
        0x08002878:    f7feff12    ....    BL       CMD_USART_Printf ; 0x80016a0
        0x0800287c:    bf00        ..      NOP      
        0x0800287e:    bf00        ..      NOP      
        0x08002880:    e7fe        ..      B        0x8002880 ; InterFlash_WriteBuf_Word + 48
        0x08002882:    f8571024    W.$.    LDR      r1,[r7,r4,LSL #2]
        0x08002886:    4648        HF      MOV      r0,r9
        0x08002888:    f7fffcce    ....    BL       FLASH_ProgramWord ; 0x8002228
        0x0800288c:    4605        .F      MOV      r5,r0
        0x0800288e:    2d04        .-      CMP      r5,#4
        0x08002890:    d009        ..      BEQ      0x80028a6 ; InterFlash_WriteBuf_Word + 86
        0x08002892:    bf00        ..      NOP      
        0x08002894:    2260        `"      MOVS     r2,#0x60
        0x08002896:    a108        ..      ADR      r1,{pc}+0x22 ; 0x80028b8
        0x08002898:    a017        ..      ADR      r0,{pc}+0x60 ; 0x80028f8
        0x0800289a:    f7feff01    ....    BL       CMD_USART_Printf ; 0x80016a0
        0x0800289e:    bf00        ..      NOP      
        0x080028a0:    4628        (F      MOV      r0,r5
        0x080028a2:    e8bd87f0    ....    POP      {r4-r10,pc}
        0x080028a6:    1c64        d.      ADDS     r4,r4,#1
        0x080028a8:    4544        DE      CMP      r4,r8
        0x080028aa:    d3dc        ..      BCC      0x8002866 ; InterFlash_WriteBuf_Word + 22
        0x080028ac:    f7fffcb2    ....    BL       FLASH_Lock ; 0x8002214
        0x080028b0:    4628        (F      MOV      r0,r5
        0x080028b2:    e7f6        ..      B        0x80028a2 ; InterFlash_WriteBuf_Word + 82
    $d
        0x080028b4:    0800ffff    ....    DCD    134283263
        0x080028b8:    64726148    Hard    DCD    1685217608
        0x080028bc:    65726177    ware    DCD    1701994871
        0x080028c0:    746e495c    \Int    DCD    1953384796
        0x080028c4:    6c467265    erFl    DCD    1816556133
        0x080028c8:    2e687361    ash.    DCD    778597217
        0x080028cc:    00000063    c...    DCD    99
        0x080028d0:    3a73255b    [%s:    DCD    980624731
        0x080028d4:    205d6425    %d]     DCD    542991397
        0x080028d8:    65746e69    inte    DCD    1702129257
        0x080028dc:    6c616e72    rnal    DCD    1818324594
        0x080028e0:    616c6620     fla    DCD    1634493984
        0x080028e4:    6f206873    sh o    DCD    1864394867
        0x080028e8:    20726576    ver     DCD    544367990
        0x080028ec:    74697277    writ    DCD    1953067639
        0x080028f0:    0d6e6574    ten.    DCD    225338740
        0x080028f4:    0000000a    ....    DCD    10
        0x080028f8:    3a73255b    [%s:    DCD    980624731
        0x080028fc:    205d6425    %d]     DCD    542991397
        0x08002900:    65746e69    inte    DCD    1702129257
        0x08002904:    6c616e72    rnal    DCD    1818324594
        0x08002908:    616c6620     fla    DCD    1634493984
        0x0800290c:    77206873    sh w    DCD    1998612595
        0x08002910:    65746972    rite    DCD    1702127986
        0x08002914:    72726520     err    DCD    1920099616
        0x08002918:    0a0d726f    or..    DCD    168653423
        0x0800291c:    00000000    ....    DCD    0
    $t
    i.InterFlash_WritePage
    InterFlash_WritePage
        0x08002920:    b570        p.      PUSH     {r4-r6,lr}
        0x08002922:    4604        .F      MOV      r4,r0
        0x08002924:    460d        .F      MOV      r5,r1
        0x08002926:    f44f7280    O..r    MOV      r2,#0x100
        0x0800292a:    4629        )F      MOV      r1,r5
        0x0800292c:    4620         F      MOV      r0,r4
        0x0800292e:    f7ffff8f    ....    BL       InterFlash_WriteBuf_Word ; 0x8002850
        0x08002932:    bd70        p.      POP      {r4-r6,pc}
    i.MemManage_Handler
    MemManage_Handler
        0x08002934:    bf00        ..      NOP      
        0x08002936:    e7fe        ..      B        0x8002936 ; MemManage_Handler + 2
    i.MyUSART_Init
    MyUSART_Init
        0x08002938:    b510        ..      PUSH     {r4,lr}
        0x0800293a:    f7fefe4d    ..M.    BL       CMD_USART_Init ; 0x80015d8
        0x0800293e:    4802        .H      LDR      r0,[pc,#8] ; [0x8002948] = 0x20000028
        0x08002940:    f000fa00    ....    BL       RingBuffer_Init ; 0x8002d44
        0x08002944:    bd10        ..      POP      {r4,pc}
    $d
        0x08002946:    0000        ..      DCW    0
        0x08002948:    20000028    (..     DCD    536870952
    $t
    i.NMI_Handler
    NMI_Handler
        0x0800294c:    4770        pG      BX       lr
        0x0800294e:    0000        ..      MOVS     r0,r0
    i.NVIC_Init
    NVIC_Init
        0x08002950:    b570        p.      PUSH     {r4-r6,lr}
        0x08002952:    2100        .!      MOVS     r1,#0
        0x08002954:    2300        .#      MOVS     r3,#0
        0x08002956:    220f        ."      MOVS     r2,#0xf
        0x08002958:    78c4        .x      LDRB     r4,[r0,#3]
        0x0800295a:    b304        ..      CBZ      r4,0x800299e ; NVIC_Init + 78
        0x0800295c:    4c15        .L      LDR      r4,[pc,#84] ; [0x80029b4] = 0xe000ed0c
        0x0800295e:    6824        $h      LDR      r4,[r4,#0]
        0x08002960:    f40464e0    ...d    AND      r4,r4,#0x700
        0x08002964:    f5c464e0    ...d    RSB      r4,r4,#0x700
        0x08002968:    0a21        !.      LSRS     r1,r4,#8
        0x0800296a:    f1c10304    ....    RSB      r3,r1,#4
        0x0800296e:    40ca        .@      LSRS     r2,r2,r1
        0x08002970:    7844        Dx      LDRB     r4,[r0,#1]
        0x08002972:    fa04f103    ....    LSL      r1,r4,r3
        0x08002976:    7884        .x      LDRB     r4,[r0,#2]
        0x08002978:    4014        .@      ANDS     r4,r4,r2
        0x0800297a:    4321        !C      ORRS     r1,r1,r4
        0x0800297c:    0109        ..      LSLS     r1,r1,#4
        0x0800297e:    4c0e        .L      LDR      r4,[pc,#56] ; [0x80029b8] = 0xe000e400
        0x08002980:    7806        .x      LDRB     r6,[r0,#0]
        0x08002982:    55a1        .U      STRB     r1,[r4,r6]
        0x08002984:    7804        .x      LDRB     r4,[r0,#0]
        0x08002986:    f004051f    ....    AND      r5,r4,#0x1f
        0x0800298a:    2401        .$      MOVS     r4,#1
        0x0800298c:    40ac        .@      LSLS     r4,r4,r5
        0x0800298e:    7805        .x      LDRB     r5,[r0,#0]
        0x08002990:    116d        m.      ASRS     r5,r5,#5
        0x08002992:    00ad        ..      LSLS     r5,r5,#2
        0x08002994:    f10525e0    ...%    ADD      r5,r5,#0xe000e000
        0x08002998:    f8c54100    ...A    STR      r4,[r5,#0x100]
        0x0800299c:    e009        ..      B        0x80029b2 ; NVIC_Init + 98
        0x0800299e:    7804        .x      LDRB     r4,[r0,#0]
        0x080029a0:    f004051f    ....    AND      r5,r4,#0x1f
        0x080029a4:    2401        .$      MOVS     r4,#1
        0x080029a6:    40ac        .@      LSLS     r4,r4,r5
        0x080029a8:    4d04        .M      LDR      r5,[pc,#16] ; [0x80029bc] = 0xe000e180
        0x080029aa:    7806        .x      LDRB     r6,[r0,#0]
        0x080029ac:    1176        v.      ASRS     r6,r6,#5
        0x080029ae:    f8454026    E.&@    STR      r4,[r5,r6,LSL #2]
        0x080029b2:    bd70        p.      POP      {r4-r6,pc}
    $d
        0x080029b4:    e000ed0c    ....    DCD    3758157068
        0x080029b8:    e000e400    ....    DCD    3758154752
        0x080029bc:    e000e180    ....    DCD    3758154112
    $t
    i.NVIC_PriorityGroupConfig
    NVIC_PriorityGroupConfig
        0x080029c0:    4902        .I      LDR      r1,[pc,#8] ; [0x80029cc] = 0x5fa0000
        0x080029c2:    4301        .C      ORRS     r1,r1,r0
        0x080029c4:    4a02        .J      LDR      r2,[pc,#8] ; [0x80029d0] = 0xe000ed0c
        0x080029c6:    6011        .`      STR      r1,[r2,#0]
        0x080029c8:    4770        pG      BX       lr
    $d
        0x080029ca:    0000        ..      DCW    0
        0x080029cc:    05fa0000    ....    DCD    100270080
        0x080029d0:    e000ed0c    ....    DCD    3758157068
    $t
    i.OnlineOTA_ConfigInfo
    OnlineOTA_ConfigInfo
        0x080029d4:    b510        ..      PUSH     {r4,lr}
        0x080029d6:    2000        .       MOVS     r0,#0
        0x080029d8:    4907        .I      LDR      r1,[pc,#28] ; [0x80029f8] = 0x2000043c
        0x080029da:    7008        .p      STRB     r0,[r1,#0]
        0x080029dc:    221f        ."      MOVS     r2,#0x1f
        0x080029de:    3124        $1      ADDS     r1,r1,#0x24
        0x080029e0:    f1a10023    ..#.    SUB      r0,r1,#0x23
        0x080029e4:    f7fdfbae    ....    BL       __aeabi_memcpy ; 0x8000144
        0x080029e8:    2100        .!      MOVS     r1,#0
        0x080029ea:    4803        .H      LDR      r0,[pc,#12] ; [0x80029f8] = 0x2000043c
        0x080029ec:    f8801020    .. .    STRB     r1,[r0,#0x20]
        0x080029f0:    f000fa9c    ....    BL       Saving_OTAInfo ; 0x8002f2c
        0x080029f4:    bd10        ..      POP      {r4,pc}
    $d
        0x080029f6:    0000        ..      DCW    0
        0x080029f8:    2000043c    <..     DCD    536871996
    $t
    i.OnlineOTA_UpdateAPP
    OnlineOTA_UpdateAPP
        0x080029fc:    e92d47f0    -..G    PUSH     {r4-r10,lr}
        0x08002a00:    f5ad6d80    ...m    SUB      sp,sp,#0x400
        0x08002a04:    f04f0900    O...    MOV      r9,#0
        0x08002a08:    f44f6180    O..a    MOV      r1,#0x400
        0x08002a0c:    4668        hF      MOV      r0,sp
        0x08002a0e:    f7fdfbb2    ....    BL       __aeabi_memclr ; 0x8000176
        0x08002a12:    46ca        .F      MOV      r10,r9
        0x08002a14:    2500        .%      MOVS     r5,#0
        0x08002a16:    2600        .&      MOVS     r6,#0
        0x08002a18:    2704        .'      MOVS     r7,#4
        0x08002a1a:    4c2c        ,L      LDR      r4,[pc,#176] ; [0x8002acc] = 0x20000460
        0x08002a1c:    bf00        ..      NOP      
        0x08002a1e:    2211        ."      MOVS     r2,#0x11
        0x08002a20:    a12b        +.      ADR      r1,{pc}+0xb0 ; 0x8002ad0
        0x08002a22:    a031        1.      ADR      r0,{pc}+0xc6 ; 0x8002ae8
        0x08002a24:    f7fefe3c    ..<.    BL       CMD_USART_Printf ; 0x80016a0
        0x08002a28:    bf00        ..      NOP      
        0x08002a2a:    6a20         j      LDR      r0,[r4,#0x20]
        0x08002a2c:    b958        X.      CBNZ     r0,0x8002a46 ; OnlineOTA_UpdateAPP + 74
        0x08002a2e:    bf00        ..      NOP      
        0x08002a30:    2213        ."      MOVS     r2,#0x13
        0x08002a32:    a127        '.      ADR      r1,{pc}+0x9e ; 0x8002ad0
        0x08002a34:    a039        9.      ADR      r0,{pc}+0xe8 ; 0x8002b1c
        0x08002a36:    f7fefe33    ..3.    BL       CMD_USART_Printf ; 0x80016a0
        0x08002a3a:    bf00        ..      NOP      
        0x08002a3c:    2000        .       MOVS     r0,#0
        0x08002a3e:    f50d6d80    ...m    ADD      sp,sp,#0x400
        0x08002a42:    e8bd87f0    ....    POP      {r4-r10,pc}
        0x08002a46:    6a20         j      LDR      r0,[r4,#0x20]
        0x08002a48:    f5b04f30    ..0O    CMP      r0,#0xb000
        0x08002a4c:    d908        ..      BLS      0x8002a60 ; OnlineOTA_UpdateAPP + 100
        0x08002a4e:    bf00        ..      NOP      
        0x08002a50:    2217        ."      MOVS     r2,#0x17
        0x08002a52:    a11f        ..      ADR      r1,{pc}+0x7e ; 0x8002ad0
        0x08002a54:    a03b        ;.      ADR      r0,{pc}+0xf0 ; 0x8002b44
        0x08002a56:    f7fefe23    ..#.    BL       CMD_USART_Printf ; 0x80016a0
        0x08002a5a:    bf00        ..      NOP      
        0x08002a5c:    2000        .       MOVS     r0,#0
        0x08002a5e:    e7ee        ..      B        0x8002a3e ; OnlineOTA_UpdateAPP + 66
        0x08002a60:    f04f0a00    O...    MOV      r10,#0
        0x08002a64:    4655        UF      MOV      r5,r10
        0x08002a66:    4e41        AN      LDR      r6,[pc,#260] ; [0x8002b6c] = 0x8005000
        0x08002a68:    4c18        .L      LDR      r4,[pc,#96] ; [0x8002acc] = 0x20000460
        0x08002a6a:    6a20         j      LDR      r0,[r4,#0x20]
        0x08002a6c:    f20030ff    ...0    ADD      r0,r0,#0x3ff
        0x08002a70:    ea4f2990    O..)    LSR      r9,r0,#10
        0x08002a74:    f04f0800    O...    MOV      r8,#0
        0x08002a78:    e023        #.      B        0x8002ac2 ; OnlineOTA_UpdateAPP + 198
        0x08002a7a:    f44f6180    O..a    MOV      r1,#0x400
        0x08002a7e:    4668        hF      MOV      r0,sp
        0x08002a80:    f7fdfb79    ..y.    BL       __aeabi_memclr ; 0x8000176
        0x08002a84:    2304        .#      MOVS     r3,#4
        0x08002a86:    021a        ..      LSLS     r2,r3,#8
        0x08002a88:    4669        iF      MOV      r1,sp
        0x08002a8a:    4628        (F      MOV      r0,r5
        0x08002a8c:    f000fdbe    ....    BL       W25Q64_ReadPages ; 0x800360c
        0x08002a90:    4630        0F      MOV      r0,r6
        0x08002a92:    f7fffe41    ..A.    BL       InterFlash_ErasePage ; 0x8002718
        0x08002a96:    4607        .F      MOV      r7,r0
        0x08002a98:    2f04        ./      CMP      r7,#4
        0x08002a9a:    d001        ..      BEQ      0x8002aa0 ; OnlineOTA_UpdateAPP + 164
        0x08002a9c:    2000        .       MOVS     r0,#0
        0x08002a9e:    e7ce        ..      B        0x8002a3e ; OnlineOTA_UpdateAPP + 66
        0x08002aa0:    4669        iF      MOV      r1,sp
        0x08002aa2:    4630        0F      MOV      r0,r6
        0x08002aa4:    f7ffff3c    ..<.    BL       InterFlash_WritePage ; 0x8002920
        0x08002aa8:    4607        .F      MOV      r7,r0
        0x08002aaa:    2f04        ./      CMP      r7,#4
        0x08002aac:    d001        ..      BEQ      0x8002ab2 ; OnlineOTA_UpdateAPP + 182
        0x08002aae:    2000        .       MOVS     r0,#0
        0x08002ab0:    e7c5        ..      B        0x8002a3e ; OnlineOTA_UpdateAPP + 66
        0x08002ab2:    f5056580    ...e    ADD      r5,r5,#0x400
        0x08002ab6:    f5066680    ...f    ADD      r6,r6,#0x400
        0x08002aba:    f1080001    ....    ADD      r0,r8,#1
        0x08002abe:    f00008ff    ....    AND      r8,r0,#0xff
        0x08002ac2:    45c8        .E      CMP      r8,r9
        0x08002ac4:    d3d9        ..      BCC      0x8002a7a ; OnlineOTA_UpdateAPP + 126
        0x08002ac6:    2001        .       MOVS     r0,#1
        0x08002ac8:    e7b9        ..      B        0x8002a3e ; OnlineOTA_UpdateAPP + 66
    $d
        0x08002aca:    0000        ..      DCW    0
        0x08002acc:    20000460    `..     DCD    536872032
        0x08002ad0:    6c697455    Util    DCD    1818850389
        0x08002ad4:    65697469    itie    DCD    1701409897
        0x08002ad8:    6e4f5c73    s\On    DCD    1850694771
        0x08002adc:    656e696c    line    DCD    1701734764
        0x08002ae0:    2e41544f    OTA.    DCD    776033359
        0x08002ae4:    00000063    c...    DCD    99
        0x08002ae8:    3a73255b    [%s:    DCD    980624731
        0x08002aec:    205d6425    %d]     DCD    542991397
        0x08002af0:    e58687e5    ....    DCD    3850799077
        0x08002af4:    b0e587a4    ....    DCD    2967832484
        0x08002af8:    8fe53086    .0..    DCD    2414162054
        0x08002afc:    96a4e5b7    ....    DCD    2527389111
        0x08002b00:    e598ade5    ....    DCD    3851988453
        0x08002b04:    86e5979d    ....    DCD    2263193501
        0x08002b08:    a585e599    ....    DCD    2777015705
        0x08002b0c:    e98586e5    ....    DCD    3917842149
        0x08002b10:    6c46a883    ..Fl    DCD    1816569987
        0x08002b14:    20687361    ash     DCD    543716193
        0x08002b18:    00000a0d    ....    DCD    2573
        0x08002b1c:    3a73255b    [%s:    DCD    980624731
        0x08002b20:    205d6425    %d]     DCD    542991397
        0x08002b24:    b78fe530    0...    DCD    3079660848
        0x08002b28:    e598ade5    ....    DCD    3851988453
        0x08002b2c:    9de5a882    ....    DCD    2649073794
        0x08002b30:    a1b2e697    ....    DCD    2712856215
        0x08002b34:    e7899ce6    ....    DCD    3884555494
        0x08002b38:    bae58ba8    ....    DCD    3135605672
        0x08002b3c:    0a0d208f    . ..    DCD    168632463
        0x08002b40:    00000000    ....    DCD    0
        0x08002b44:    3a73255b    [%s:    DCD    980624731
        0x08002b48:    205d6425    %d]     DCD    542991397
        0x08002b4c:    b78fe530    0...    DCD    3079660848
        0x08002b50:    e598ade5    ....    DCD    3851988453
        0x08002b54:    9de5a882    ....    DCD    2649073794
        0x08002b58:    8ba8e797    ....    DCD    2343102359
        0x08002b5c:    e88fbae5    ....    DCD    3901733605
        0x08002b60:    a4e587bf    ....    DCD    2766505919
        0x08002b64:    0a0d20a7    . ..    DCD    168632487
        0x08002b68:    00000000    ....    DCD    0
        0x08002b6c:    08005000    .P..    DCD    134238208
    $t
    i.PendSV_Handler
    PendSV_Handler
        0x08002b70:    4770        pG      BX       lr
        0x08002b72:    0000        ..      MOVS     r0,r0
    i.RCC_APB1PeriphClockCmd
    RCC_APB1PeriphClockCmd
        0x08002b74:    b129        ).      CBZ      r1,0x8002b82 ; RCC_APB1PeriphClockCmd + 14
        0x08002b76:    4a06        .J      LDR      r2,[pc,#24] ; [0x8002b90] = 0x40021000
        0x08002b78:    69d2        .i      LDR      r2,[r2,#0x1c]
        0x08002b7a:    4302        .C      ORRS     r2,r2,r0
        0x08002b7c:    4b04        .K      LDR      r3,[pc,#16] ; [0x8002b90] = 0x40021000
        0x08002b7e:    61da        .a      STR      r2,[r3,#0x1c]
        0x08002b80:    e004        ..      B        0x8002b8c ; RCC_APB1PeriphClockCmd + 24
        0x08002b82:    4a03        .J      LDR      r2,[pc,#12] ; [0x8002b90] = 0x40021000
        0x08002b84:    69d2        .i      LDR      r2,[r2,#0x1c]
        0x08002b86:    4382        .C      BICS     r2,r2,r0
        0x08002b88:    4b01        .K      LDR      r3,[pc,#4] ; [0x8002b90] = 0x40021000
        0x08002b8a:    61da        .a      STR      r2,[r3,#0x1c]
        0x08002b8c:    4770        pG      BX       lr
    $d
        0x08002b8e:    0000        ..      DCW    0
        0x08002b90:    40021000    ...@    DCD    1073876992
    $t
    i.RCC_APB1PeriphResetCmd
    RCC_APB1PeriphResetCmd
        0x08002b94:    b129        ).      CBZ      r1,0x8002ba2 ; RCC_APB1PeriphResetCmd + 14
        0x08002b96:    4a06        .J      LDR      r2,[pc,#24] ; [0x8002bb0] = 0x40021000
        0x08002b98:    6912        .i      LDR      r2,[r2,#0x10]
        0x08002b9a:    4302        .C      ORRS     r2,r2,r0
        0x08002b9c:    4b04        .K      LDR      r3,[pc,#16] ; [0x8002bb0] = 0x40021000
        0x08002b9e:    611a        .a      STR      r2,[r3,#0x10]
        0x08002ba0:    e004        ..      B        0x8002bac ; RCC_APB1PeriphResetCmd + 24
        0x08002ba2:    4a03        .J      LDR      r2,[pc,#12] ; [0x8002bb0] = 0x40021000
        0x08002ba4:    6912        .i      LDR      r2,[r2,#0x10]
        0x08002ba6:    4382        .C      BICS     r2,r2,r0
        0x08002ba8:    4b01        .K      LDR      r3,[pc,#4] ; [0x8002bb0] = 0x40021000
        0x08002baa:    611a        .a      STR      r2,[r3,#0x10]
        0x08002bac:    4770        pG      BX       lr
    $d
        0x08002bae:    0000        ..      DCW    0
        0x08002bb0:    40021000    ...@    DCD    1073876992
    $t
    i.RCC_APB2PeriphClockCmd
    RCC_APB2PeriphClockCmd
        0x08002bb4:    b129        ).      CBZ      r1,0x8002bc2 ; RCC_APB2PeriphClockCmd + 14
        0x08002bb6:    4a06        .J      LDR      r2,[pc,#24] ; [0x8002bd0] = 0x40021000
        0x08002bb8:    6992        .i      LDR      r2,[r2,#0x18]
        0x08002bba:    4302        .C      ORRS     r2,r2,r0
        0x08002bbc:    4b04        .K      LDR      r3,[pc,#16] ; [0x8002bd0] = 0x40021000
        0x08002bbe:    619a        .a      STR      r2,[r3,#0x18]
        0x08002bc0:    e004        ..      B        0x8002bcc ; RCC_APB2PeriphClockCmd + 24
        0x08002bc2:    4a03        .J      LDR      r2,[pc,#12] ; [0x8002bd0] = 0x40021000
        0x08002bc4:    6992        .i      LDR      r2,[r2,#0x18]
        0x08002bc6:    4382        .C      BICS     r2,r2,r0
        0x08002bc8:    4b01        .K      LDR      r3,[pc,#4] ; [0x8002bd0] = 0x40021000
        0x08002bca:    619a        .a      STR      r2,[r3,#0x18]
        0x08002bcc:    4770        pG      BX       lr
    $d
        0x08002bce:    0000        ..      DCW    0
        0x08002bd0:    40021000    ...@    DCD    1073876992
    $t
    i.RCC_APB2PeriphResetCmd
    RCC_APB2PeriphResetCmd
        0x08002bd4:    b129        ).      CBZ      r1,0x8002be2 ; RCC_APB2PeriphResetCmd + 14
        0x08002bd6:    4a06        .J      LDR      r2,[pc,#24] ; [0x8002bf0] = 0x40021000
        0x08002bd8:    68d2        .h      LDR      r2,[r2,#0xc]
        0x08002bda:    4302        .C      ORRS     r2,r2,r0
        0x08002bdc:    4b04        .K      LDR      r3,[pc,#16] ; [0x8002bf0] = 0x40021000
        0x08002bde:    60da        .`      STR      r2,[r3,#0xc]
        0x08002be0:    e004        ..      B        0x8002bec ; RCC_APB2PeriphResetCmd + 24
        0x08002be2:    4a03        .J      LDR      r2,[pc,#12] ; [0x8002bf0] = 0x40021000
        0x08002be4:    68d2        .h      LDR      r2,[r2,#0xc]
        0x08002be6:    4382        .C      BICS     r2,r2,r0
        0x08002be8:    4b01        .K      LDR      r3,[pc,#4] ; [0x8002bf0] = 0x40021000
        0x08002bea:    60da        .`      STR      r2,[r3,#0xc]
        0x08002bec:    4770        pG      BX       lr
    $d
        0x08002bee:    0000        ..      DCW    0
        0x08002bf0:    40021000    ...@    DCD    1073876992
    $t
    i.RCC_GetClocksFreq
    RCC_GetClocksFreq
        0x08002bf4:    b530        0.      PUSH     {r4,r5,lr}
        0x08002bf6:    2100        .!      MOVS     r1,#0
        0x08002bf8:    2200        ."      MOVS     r2,#0
        0x08002bfa:    2400        .$      MOVS     r4,#0
        0x08002bfc:    2300        .#      MOVS     r3,#0
        0x08002bfe:    4d2d        -M      LDR      r5,[pc,#180] ; [0x8002cb4] = 0x40021000
        0x08002c00:    686d        mh      LDR      r5,[r5,#4]
        0x08002c02:    f005010c    ....    AND      r1,r5,#0xc
        0x08002c06:    b121        !.      CBZ      r1,0x8002c12 ; RCC_GetClocksFreq + 30
        0x08002c08:    2904        .)      CMP      r1,#4
        0x08002c0a:    d005        ..      BEQ      0x8002c18 ; RCC_GetClocksFreq + 36
        0x08002c0c:    2908        .)      CMP      r1,#8
        0x08002c0e:    d123        #.      BNE      0x8002c58 ; RCC_GetClocksFreq + 100
        0x08002c10:    e005        ..      B        0x8002c1e ; RCC_GetClocksFreq + 42
        0x08002c12:    4d29        )M      LDR      r5,[pc,#164] ; [0x8002cb8] = 0x7a1200
        0x08002c14:    6005        .`      STR      r5,[r0,#0]
        0x08002c16:    e022        ".      B        0x8002c5e ; RCC_GetClocksFreq + 106
        0x08002c18:    4d27        'M      LDR      r5,[pc,#156] ; [0x8002cb8] = 0x7a1200
        0x08002c1a:    6005        .`      STR      r5,[r0,#0]
        0x08002c1c:    e01f        ..      B        0x8002c5e ; RCC_GetClocksFreq + 106
        0x08002c1e:    4d25        %M      LDR      r5,[pc,#148] ; [0x8002cb4] = 0x40021000
        0x08002c20:    686d        mh      LDR      r5,[r5,#4]
        0x08002c22:    f4051270    ..p.    AND      r2,r5,#0x3c0000
        0x08002c26:    4d23        #M      LDR      r5,[pc,#140] ; [0x8002cb4] = 0x40021000
        0x08002c28:    686d        mh      LDR      r5,[r5,#4]
        0x08002c2a:    f4053480    ...4    AND      r4,r5,#0x10000
        0x08002c2e:    2502        .%      MOVS     r5,#2
        0x08002c30:    eb054292    ...B    ADD      r2,r5,r2,LSR #18
        0x08002c34:    b91c        ..      CBNZ     r4,0x8002c3e ; RCC_GetClocksFreq + 74
        0x08002c36:    4d21        !M      LDR      r5,[pc,#132] ; [0x8002cbc] = 0x3d0900
        0x08002c38:    4355        UC      MULS     r5,r2,r5
        0x08002c3a:    6005        .`      STR      r5,[r0,#0]
        0x08002c3c:    e00b        ..      B        0x8002c56 ; RCC_GetClocksFreq + 98
        0x08002c3e:    4d1d        .M      LDR      r5,[pc,#116] ; [0x8002cb4] = 0x40021000
        0x08002c40:    686d        mh      LDR      r5,[r5,#4]
        0x08002c42:    f4053500    ...5    AND      r5,r5,#0x20000
        0x08002c46:    b11d        ..      CBZ      r5,0x8002c50 ; RCC_GetClocksFreq + 92
        0x08002c48:    4d1c        .M      LDR      r5,[pc,#112] ; [0x8002cbc] = 0x3d0900
        0x08002c4a:    4355        UC      MULS     r5,r2,r5
        0x08002c4c:    6005        .`      STR      r5,[r0,#0]
        0x08002c4e:    e002        ..      B        0x8002c56 ; RCC_GetClocksFreq + 98
        0x08002c50:    4d19        .M      LDR      r5,[pc,#100] ; [0x8002cb8] = 0x7a1200
        0x08002c52:    4355        UC      MULS     r5,r2,r5
        0x08002c54:    6005        .`      STR      r5,[r0,#0]
        0x08002c56:    e002        ..      B        0x8002c5e ; RCC_GetClocksFreq + 106
        0x08002c58:    4d17        .M      LDR      r5,[pc,#92] ; [0x8002cb8] = 0x7a1200
        0x08002c5a:    6005        .`      STR      r5,[r0,#0]
        0x08002c5c:    bf00        ..      NOP      
        0x08002c5e:    bf00        ..      NOP      
        0x08002c60:    4d14        .M      LDR      r5,[pc,#80] ; [0x8002cb4] = 0x40021000
        0x08002c62:    686d        mh      LDR      r5,[r5,#4]
        0x08002c64:    f00501f0    ....    AND      r1,r5,#0xf0
        0x08002c68:    0909        ..      LSRS     r1,r1,#4
        0x08002c6a:    4d15        .M      LDR      r5,[pc,#84] ; [0x8002cc0] = 0x20000000
        0x08002c6c:    5c6b        k\      LDRB     r3,[r5,r1]
        0x08002c6e:    6805        .h      LDR      r5,[r0,#0]
        0x08002c70:    40dd        .@      LSRS     r5,r5,r3
        0x08002c72:    6045        E`      STR      r5,[r0,#4]
        0x08002c74:    4d0f        .M      LDR      r5,[pc,#60] ; [0x8002cb4] = 0x40021000
        0x08002c76:    686d        mh      LDR      r5,[r5,#4]
        0x08002c78:    f40561e0    ...a    AND      r1,r5,#0x700
        0x08002c7c:    0a09        ..      LSRS     r1,r1,#8
        0x08002c7e:    4d10        .M      LDR      r5,[pc,#64] ; [0x8002cc0] = 0x20000000
        0x08002c80:    5c6b        k\      LDRB     r3,[r5,r1]
        0x08002c82:    6845        Eh      LDR      r5,[r0,#4]
        0x08002c84:    40dd        .@      LSRS     r5,r5,r3
        0x08002c86:    6085        .`      STR      r5,[r0,#8]
        0x08002c88:    4d0a        .M      LDR      r5,[pc,#40] ; [0x8002cb4] = 0x40021000
        0x08002c8a:    686d        mh      LDR      r5,[r5,#4]
        0x08002c8c:    f4055160    ..`Q    AND      r1,r5,#0x3800
        0x08002c90:    0ac9        ..      LSRS     r1,r1,#11
        0x08002c92:    4d0b        .M      LDR      r5,[pc,#44] ; [0x8002cc0] = 0x20000000
        0x08002c94:    5c6b        k\      LDRB     r3,[r5,r1]
        0x08002c96:    6845        Eh      LDR      r5,[r0,#4]
        0x08002c98:    40dd        .@      LSRS     r5,r5,r3
        0x08002c9a:    60c5        .`      STR      r5,[r0,#0xc]
        0x08002c9c:    4d05        .M      LDR      r5,[pc,#20] ; [0x8002cb4] = 0x40021000
        0x08002c9e:    686d        mh      LDR      r5,[r5,#4]
        0x08002ca0:    f4054140    ..@A    AND      r1,r5,#0xc000
        0x08002ca4:    0b89        ..      LSRS     r1,r1,#14
        0x08002ca6:    4d07        .M      LDR      r5,[pc,#28] ; [0x8002cc4] = 0x20000010
        0x08002ca8:    5c6b        k\      LDRB     r3,[r5,r1]
        0x08002caa:    68c5        .h      LDR      r5,[r0,#0xc]
        0x08002cac:    fbb5f5f3    ....    UDIV     r5,r5,r3
        0x08002cb0:    6105        .a      STR      r5,[r0,#0x10]
        0x08002cb2:    bd30        0.      POP      {r4,r5,pc}
    $d
        0x08002cb4:    40021000    ...@    DCD    1073876992
        0x08002cb8:    007a1200    ..z.    DCD    8000000
        0x08002cbc:    003d0900    ..=.    DCD    4000000
        0x08002cc0:    20000000    ...     DCD    536870912
        0x08002cc4:    20000010    ...     DCD    536870928
    $t
    i.Read_RingBuffer
    Read_RingBuffer
        0x08002cc8:    b5f0        ..      PUSH     {r4-r7,lr}
        0x08002cca:    4604        .F      MOV      r4,r0
        0x08002ccc:    460d        .F      MOV      r5,r1
        0x08002cce:    461e        .F      MOV      r6,r3
        0x08002cd0:    b12c        ,.      CBZ      r4,0x8002cde ; Read_RingBuffer + 22
        0x08002cd2:    b124        $.      CBZ      r4,0x8002cde ; Read_RingBuffer + 22
        0x08002cd4:    4620         F      MOV      r0,r4
        0x08002cd6:    f001fb7f    ....    BL       is_RingBuffer_Empty ; 0x80043d8
        0x08002cda:    b900        ..      CBNZ     r0,0x8002cde ; Read_RingBuffer + 22
        0x08002cdc:    b90d        ..      CBNZ     r5,0x8002ce2 ; Read_RingBuffer + 26
        0x08002cde:    2000        .       MOVS     r0,#0
        0x08002ce0:    bdf0        ..      POP      {r4-r7,pc}
        0x08002ce2:    f8b40404    ....    LDRH     r0,[r4,#0x404]
        0x08002ce6:    4290        .B      CMP      r0,r2
        0x08002ce8:    d201        ..      BCS      0x8002cee ; Read_RingBuffer + 38
        0x08002cea:    f8b42404    ...$    LDRH     r2,[r4,#0x404]
        0x08002cee:    42b2        .B      CMP      r2,r6
        0x08002cf0:    d300        ..      BCC      0x8002cf4 ; Read_RingBuffer + 44
        0x08002cf2:    4632        2F      MOV      r2,r6
        0x08002cf4:    f8b43406    ...4    LDRH     r3,[r4,#0x406]
        0x08002cf8:    2000        .       MOVS     r0,#0
        0x08002cfa:    e00a        ..      B        0x8002d12 ; Read_RingBuffer + 74
        0x08002cfc:    5ce1        .\      LDRB     r1,[r4,r3]
        0x08002cfe:    5429        )T      STRB     r1,[r5,r0]
        0x08002d00:    1c59        Y.      ADDS     r1,r3,#1
        0x08002d02:    f8d47400    ...t    LDR      r7,[r4,#0x400]
        0x08002d06:    fbb1fcf7    ....    UDIV     r12,r1,r7
        0x08002d0a:    fb07131c    ....    MLS      r3,r7,r12,r1
        0x08002d0e:    1c41        A.      ADDS     r1,r0,#1
        0x08002d10:    b2c8        ..      UXTB     r0,r1
        0x08002d12:    4290        .B      CMP      r0,r2
        0x08002d14:    d3f2        ..      BCC      0x8002cfc ; Read_RingBuffer + 52
        0x08002d16:    f8b40404    ....    LDRH     r0,[r4,#0x404]
        0x08002d1a:    1a80        ..      SUBS     r0,r0,r2
        0x08002d1c:    f8a40404    ....    STRH     r0,[r4,#0x404]
        0x08002d20:    f8a43406    ...4    STRH     r3,[r4,#0x406]
        0x08002d24:    2001        .       MOVS     r0,#1
        0x08002d26:    e7db        ..      B        0x8002ce0 ; Read_RingBuffer + 24
    i.Read_SavingOTAInfo
    Read_SavingOTAInfo
        0x08002d28:    b510        ..      PUSH     {r4,lr}
        0x08002d2a:    21d8        .!      MOVS     r1,#0xd8
        0x08002d2c:    4804        .H      LDR      r0,[pc,#16] ; [0x8002d40] = 0x2000043c
        0x08002d2e:    f7fdfa22    ..".    BL       __aeabi_memclr ; 0x8000176
        0x08002d32:    23d8        .#      MOVS     r3,#0xd8
        0x08002d34:    4a02        .J      LDR      r2,[pc,#8] ; [0x8002d40] = 0x2000043c
        0x08002d36:    4619        .F      MOV      r1,r3
        0x08002d38:    2000        .       MOVS     r0,#0
        0x08002d3a:    f7fdff87    ....    BL       AT24C02_Read ; 0x8000c4c
        0x08002d3e:    bd10        ..      POP      {r4,pc}
    $d
        0x08002d40:    2000043c    <..     DCD    536871996
    $t
    i.RingBuffer_Init
    RingBuffer_Init
        0x08002d44:    4601        .F      MOV      r1,r0
        0x08002d46:    f44f6080    O..`    MOV      r0,#0x400
        0x08002d4a:    f5016180    ...a    ADD      r1,r1,#0x400
        0x08002d4e:    6008        .`      STR      r0,[r1,#0]
        0x08002d50:    2000        .       MOVS     r0,#0
        0x08002d52:    8088        ..      STRH     r0,[r1,#4]
        0x08002d54:    80c8        ..      STRH     r0,[r1,#6]
        0x08002d56:    8108        ..      STRH     r0,[r1,#8]
        0x08002d58:    60c8        .`      STR      r0,[r1,#0xc]
        0x08002d5a:    7408        .t      STRB     r0,[r1,#0x10]
        0x08002d5c:    f5a16180    ...a    SUB      r1,r1,#0x400
        0x08002d60:    2001        .       MOVS     r0,#1
        0x08002d62:    4770        pG      BX       lr
    i.RingBuffer_ReadFrame
    RingBuffer_ReadFrame
        0x08002d64:    e92d41f0    -..A    PUSH     {r4-r8,lr}
        0x08002d68:    4604        .F      MOV      r4,r0
        0x08002d6a:    4688        .F      MOV      r8,r1
        0x08002d6c:    4616        .F      MOV      r6,r2
        0x08002d6e:    f8d4540c    ...T    LDR      r5,[r4,#0x40c]
        0x08002d72:    b115        ..      CBZ      r5,0x8002d7a ; RingBuffer_ReadFrame + 22
        0x08002d74:    f8940410    ....    LDRB     r0,[r4,#0x410]
        0x08002d78:    b908        ..      CBNZ     r0,0x8002d7e ; RingBuffer_ReadFrame + 26
        0x08002d7a:    e8bd81f0    ....    POP      {r4-r8,pc}
        0x08002d7e:    886f        o.      LDRH     r7,[r5,#2]
        0x08002d80:    4633        3F      MOV      r3,r6
        0x08002d82:    463a        :F      MOV      r2,r7
        0x08002d84:    4641        AF      MOV      r1,r8
        0x08002d86:    4620         F      MOV      r0,r4
        0x08002d88:    f7ffff9e    ....    BL       Read_RingBuffer ; 0x8002cc8
        0x08002d8c:    f8d4040c    ....    LDR      r0,[r4,#0x40c]
        0x08002d90:    6840        @h      LDR      r0,[r0,#4]
        0x08002d92:    f8c4040c    ....    STR      r0,[r4,#0x40c]
        0x08002d96:    b115        ..      CBZ      r5,0x8002d9e ; RingBuffer_ReadFrame + 58
        0x08002d98:    4628        (F      MOV      r0,r5
        0x08002d9a:    f001faed    ....    BL       free ; 0x8004378
        0x08002d9e:    f8940410    ....    LDRB     r0,[r4,#0x410]
        0x08002da2:    1e40        @.      SUBS     r0,r0,#1
        0x08002da4:    f8840410    ....    STRB     r0,[r4,#0x410]
        0x08002da8:    bf00        ..      NOP      
        0x08002daa:    e7e6        ..      B        0x8002d7a ; RingBuffer_ReadFrame + 22
    i.SPI_Cmd
    SPI_Cmd
        0x08002dac:    b121        !.      CBZ      r1,0x8002db8 ; SPI_Cmd + 12
        0x08002dae:    8802        ..      LDRH     r2,[r0,#0]
        0x08002db0:    f0420240    B.@.    ORR      r2,r2,#0x40
        0x08002db4:    8002        ..      STRH     r2,[r0,#0]
        0x08002db6:    e004        ..      B        0x8002dc2 ; SPI_Cmd + 22
        0x08002db8:    8802        ..      LDRH     r2,[r0,#0]
        0x08002dba:    f64f73bf    O..s    MOV      r3,#0xffbf
        0x08002dbe:    401a        .@      ANDS     r2,r2,r3
        0x08002dc0:    8002        ..      STRH     r2,[r0,#0]
        0x08002dc2:    4770        pG      BX       lr
    i.SPI_I2S_DeInit
    SPI_I2S_DeInit
        0x08002dc4:    b510        ..      PUSH     {r4,lr}
        0x08002dc6:    4604        .F      MOV      r4,r0
        0x08002dc8:    4811        .H      LDR      r0,[pc,#68] ; [0x8002e10] = 0x40013000
        0x08002dca:    4284        .B      CMP      r4,r0
        0x08002dcc:    d108        ..      BNE      0x8002de0 ; SPI_I2S_DeInit + 28
        0x08002dce:    2101        .!      MOVS     r1,#1
        0x08002dd0:    1480        ..      ASRS     r0,r0,#18
        0x08002dd2:    f7fffeff    ....    BL       RCC_APB2PeriphResetCmd ; 0x8002bd4
        0x08002dd6:    2100        .!      MOVS     r1,#0
        0x08002dd8:    14a0        ..      ASRS     r0,r4,#18
        0x08002dda:    f7fffefb    ....    BL       RCC_APB2PeriphResetCmd ; 0x8002bd4
        0x08002dde:    e016        ..      B        0x8002e0e ; SPI_I2S_DeInit + 74
        0x08002de0:    480c        .H      LDR      r0,[pc,#48] ; [0x8002e14] = 0x40003800
        0x08002de2:    4284        .B      CMP      r4,r0
        0x08002de4:    d108        ..      BNE      0x8002df8 ; SPI_I2S_DeInit + 52
        0x08002de6:    2101        .!      MOVS     r1,#1
        0x08002de8:    1400        ..      ASRS     r0,r0,#16
        0x08002dea:    f7fffed3    ....    BL       RCC_APB1PeriphResetCmd ; 0x8002b94
        0x08002dee:    2100        .!      MOVS     r1,#0
        0x08002df0:    1420         .      ASRS     r0,r4,#16
        0x08002df2:    f7fffecf    ....    BL       RCC_APB1PeriphResetCmd ; 0x8002b94
        0x08002df6:    e00a        ..      B        0x8002e0e ; SPI_I2S_DeInit + 74
        0x08002df8:    4807        .H      LDR      r0,[pc,#28] ; [0x8002e18] = 0x40003c00
        0x08002dfa:    4284        .B      CMP      r4,r0
        0x08002dfc:    d107        ..      BNE      0x8002e0e ; SPI_I2S_DeInit + 74
        0x08002dfe:    2101        .!      MOVS     r1,#1
        0x08002e00:    13c0        ..      ASRS     r0,r0,#15
        0x08002e02:    f7fffec7    ....    BL       RCC_APB1PeriphResetCmd ; 0x8002b94
        0x08002e06:    2100        .!      MOVS     r1,#0
        0x08002e08:    13e0        ..      ASRS     r0,r4,#15
        0x08002e0a:    f7fffec3    ....    BL       RCC_APB1PeriphResetCmd ; 0x8002b94
        0x08002e0e:    bd10        ..      POP      {r4,pc}
    $d
        0x08002e10:    40013000    .0.@    DCD    1073819648
        0x08002e14:    40003800    .8.@    DCD    1073756160
        0x08002e18:    40003c00    .<.@    DCD    1073757184
    $t
    i.SPI_I2S_GetFlagStatus
    SPI_I2S_GetFlagStatus
        0x08002e1c:    4602        .F      MOV      r2,r0
        0x08002e1e:    2000        .       MOVS     r0,#0
        0x08002e20:    8913        ..      LDRH     r3,[r2,#8]
        0x08002e22:    400b        .@      ANDS     r3,r3,r1
        0x08002e24:    b10b        ..      CBZ      r3,0x8002e2a ; SPI_I2S_GetFlagStatus + 14
        0x08002e26:    2001        .       MOVS     r0,#1
        0x08002e28:    e000        ..      B        0x8002e2c ; SPI_I2S_GetFlagStatus + 16
        0x08002e2a:    2000        .       MOVS     r0,#0
        0x08002e2c:    4770        pG      BX       lr
    i.SPI_I2S_ReceiveData
    SPI_I2S_ReceiveData
        0x08002e2e:    4601        .F      MOV      r1,r0
        0x08002e30:    8988        ..      LDRH     r0,[r1,#0xc]
        0x08002e32:    4770        pG      BX       lr
    i.SPI_I2S_SendData
    SPI_I2S_SendData
        0x08002e34:    8181        ..      STRH     r1,[r0,#0xc]
        0x08002e36:    4770        pG      BX       lr
    i.SPI_Init
    SPI_Init
        0x08002e38:    b510        ..      PUSH     {r4,lr}
        0x08002e3a:    2200        ."      MOVS     r2,#0
        0x08002e3c:    8802        ..      LDRH     r2,[r0,#0]
        0x08002e3e:    f4025241    ..AR    AND      r2,r2,#0x3040
        0x08002e42:    880b        ..      LDRH     r3,[r1,#0]
        0x08002e44:    884c        L.      LDRH     r4,[r1,#2]
        0x08002e46:    4323        #C      ORRS     r3,r3,r4
        0x08002e48:    888c        ..      LDRH     r4,[r1,#4]
        0x08002e4a:    4323        #C      ORRS     r3,r3,r4
        0x08002e4c:    88cc        ..      LDRH     r4,[r1,#6]
        0x08002e4e:    4323        #C      ORRS     r3,r3,r4
        0x08002e50:    890c        ..      LDRH     r4,[r1,#8]
        0x08002e52:    4323        #C      ORRS     r3,r3,r4
        0x08002e54:    894c        L.      LDRH     r4,[r1,#0xa]
        0x08002e56:    4323        #C      ORRS     r3,r3,r4
        0x08002e58:    898c        ..      LDRH     r4,[r1,#0xc]
        0x08002e5a:    4323        #C      ORRS     r3,r3,r4
        0x08002e5c:    89cc        ..      LDRH     r4,[r1,#0xe]
        0x08002e5e:    4323        #C      ORRS     r3,r3,r4
        0x08002e60:    431a        .C      ORRS     r2,r2,r3
        0x08002e62:    8002        ..      STRH     r2,[r0,#0]
        0x08002e64:    8b83        ..      LDRH     r3,[r0,#0x1c]
        0x08002e66:    f24f74ff    O..t    MOV      r4,#0xf7ff
        0x08002e6a:    4023        #@      ANDS     r3,r3,r4
        0x08002e6c:    8383        ..      STRH     r3,[r0,#0x1c]
        0x08002e6e:    8a0b        ..      LDRH     r3,[r1,#0x10]
        0x08002e70:    8203        ..      STRH     r3,[r0,#0x10]
        0x08002e72:    bd10        ..      POP      {r4,pc}
    i.SPI_Read
    SPI_Read
        0x08002e74:    e92d41f0    -..A    PUSH     {r4-r8,lr}
        0x08002e78:    4604        .F      MOV      r4,r0
        0x08002e7a:    460e        .F      MOV      r6,r1
        0x08002e7c:    4617        .F      MOV      r7,r2
        0x08002e7e:    b90c        ..      CBNZ     r4,0x8002e84 ; SPI_Read + 16
        0x08002e80:    e8bd81f0    ....    POP      {r4-r8,pc}
        0x08002e84:    42be        .B      CMP      r6,r7
        0x08002e86:    d301        ..      BCC      0x8002e8c ; SPI_Read + 24
        0x08002e88:    4638        8F      MOV      r0,r7
        0x08002e8a:    e000        ..      B        0x8002e8e ; SPI_Read + 26
        0x08002e8c:    4630        0F      MOV      r0,r6
        0x08002e8e:    4680        .F      MOV      r8,r0
        0x08002e90:    2500        .%      MOVS     r5,#0
        0x08002e92:    e004        ..      B        0x8002e9e ; SPI_Read + 42
        0x08002e94:    20ff        .       MOVS     r0,#0xff
        0x08002e96:    f000f811    ....    BL       SPI_SwapByte ; 0x8002ebc
        0x08002e9a:    5560        `U      STRB     r0,[r4,r5]
        0x08002e9c:    1c6d        m.      ADDS     r5,r5,#1
        0x08002e9e:    4545        EE      CMP      r5,r8
        0x08002ea0:    d3f8        ..      BCC      0x8002e94 ; SPI_Read + 32
        0x08002ea2:    bf00        ..      NOP      
        0x08002ea4:    e7ec        ..      B        0x8002e80 ; SPI_Read + 12
    i.SPI_Start
    SPI_Start
        0x08002ea6:    b510        ..      PUSH     {r4,lr}
        0x08002ea8:    2000        .       MOVS     r0,#0
        0x08002eaa:    f000f823    ..#.    BL       SPI_W_SS ; 0x8002ef4
        0x08002eae:    bd10        ..      POP      {r4,pc}
    i.SPI_Stop
    SPI_Stop
        0x08002eb0:    b510        ..      PUSH     {r4,lr}
        0x08002eb2:    2001        .       MOVS     r0,#1
        0x08002eb4:    f000f81e    ....    BL       SPI_W_SS ; 0x8002ef4
        0x08002eb8:    bd10        ..      POP      {r4,pc}
        0x08002eba:    0000        ..      MOVS     r0,r0
    i.SPI_SwapByte
    SPI_SwapByte
        0x08002ebc:    b510        ..      PUSH     {r4,lr}
        0x08002ebe:    4604        .F      MOV      r4,r0
        0x08002ec0:    bf00        ..      NOP      
        0x08002ec2:    2102        .!      MOVS     r1,#2
        0x08002ec4:    480a        .H      LDR      r0,[pc,#40] ; [0x8002ef0] = 0x40003800
        0x08002ec6:    f7ffffa9    ....    BL       SPI_I2S_GetFlagStatus ; 0x8002e1c
        0x08002eca:    2801        .(      CMP      r0,#1
        0x08002ecc:    d1f9        ..      BNE      0x8002ec2 ; SPI_SwapByte + 6
        0x08002ece:    4621        !F      MOV      r1,r4
        0x08002ed0:    4807        .H      LDR      r0,[pc,#28] ; [0x8002ef0] = 0x40003800
        0x08002ed2:    f7ffffaf    ....    BL       SPI_I2S_SendData ; 0x8002e34
        0x08002ed6:    bf00        ..      NOP      
        0x08002ed8:    2101        .!      MOVS     r1,#1
        0x08002eda:    4805        .H      LDR      r0,[pc,#20] ; [0x8002ef0] = 0x40003800
        0x08002edc:    f7ffff9e    ....    BL       SPI_I2S_GetFlagStatus ; 0x8002e1c
        0x08002ee0:    2801        .(      CMP      r0,#1
        0x08002ee2:    d1f9        ..      BNE      0x8002ed8 ; SPI_SwapByte + 28
        0x08002ee4:    4802        .H      LDR      r0,[pc,#8] ; [0x8002ef0] = 0x40003800
        0x08002ee6:    f7ffffa2    ....    BL       SPI_I2S_ReceiveData ; 0x8002e2e
        0x08002eea:    b2c0        ..      UXTB     r0,r0
        0x08002eec:    bd10        ..      POP      {r4,pc}
    $d
        0x08002eee:    0000        ..      DCW    0
        0x08002ef0:    40003800    .8.@    DCD    1073756160
    $t
    i.SPI_W_SS
    SPI_W_SS
        0x08002ef4:    b510        ..      PUSH     {r4,lr}
        0x08002ef6:    4604        .F      MOV      r4,r0
        0x08002ef8:    4622        "F      MOV      r2,r4
        0x08002efa:    f44f5180    O..Q    MOV      r1,#0x1000
        0x08002efe:    4802        .H      LDR      r0,[pc,#8] ; [0x8002f08] = 0x40010c00
        0x08002f00:    f7fffa88    ....    BL       GPIO_WriteBit ; 0x8002414
        0x08002f04:    bd10        ..      POP      {r4,pc}
    $d
        0x08002f06:    0000        ..      DCW    0
        0x08002f08:    40010c00    ...@    DCD    1073810432
    $t
    i.SPI_Write
    SPI_Write
        0x08002f0c:    b570        p.      PUSH     {r4-r6,lr}
        0x08002f0e:    4604        .F      MOV      r4,r0
        0x08002f10:    460e        .F      MOV      r6,r1
        0x08002f12:    b904        ..      CBNZ     r4,0x8002f16 ; SPI_Write + 10
        0x08002f14:    bd70        p.      POP      {r4-r6,pc}
        0x08002f16:    2500        .%      MOVS     r5,#0
        0x08002f18:    e003        ..      B        0x8002f22 ; SPI_Write + 22
        0x08002f1a:    5d60        `]      LDRB     r0,[r4,r5]
        0x08002f1c:    f7ffffce    ....    BL       SPI_SwapByte ; 0x8002ebc
        0x08002f20:    1c6d        m.      ADDS     r5,r5,#1
        0x08002f22:    42b5        .B      CMP      r5,r6
        0x08002f24:    d3f9        ..      BCC      0x8002f1a ; SPI_Write + 14
        0x08002f26:    bf00        ..      NOP      
        0x08002f28:    e7f4        ..      B        0x8002f14 ; SPI_Write + 8
    i.SVC_Handler
    SVC_Handler
        0x08002f2a:    4770        pG      BX       lr
    i.Saving_OTAInfo
    Saving_OTAInfo
        0x08002f2c:    b510        ..      PUSH     {r4,lr}
        0x08002f2e:    22d8        ."      MOVS     r2,#0xd8
        0x08002f30:    4902        .I      LDR      r1,[pc,#8] ; [0x8002f3c] = 0x2000043c
        0x08002f32:    2000        .       MOVS     r0,#0
        0x08002f34:    f7fdfedc    ....    BL       AT24C02_Write ; 0x8000cf0
        0x08002f38:    bd10        ..      POP      {r4,pc}
    $d
        0x08002f3a:    0000        ..      DCW    0
        0x08002f3c:    2000043c    <..     DCD    536871996
    $t
    i.SetSysClock
    SetSysClock
        0x08002f40:    b510        ..      PUSH     {r4,lr}
        0x08002f42:    f000f801    ....    BL       SetSysClockTo72 ; 0x8002f48
        0x08002f46:    bd10        ..      POP      {r4,pc}
    i.SetSysClockTo72
    SetSysClockTo72
        0x08002f48:    b50c        ..      PUSH     {r2,r3,lr}
        0x08002f4a:    2000        .       MOVS     r0,#0
        0x08002f4c:    9001        ..      STR      r0,[sp,#4]
        0x08002f4e:    9000        ..      STR      r0,[sp,#0]
        0x08002f50:    4833        3H      LDR      r0,[pc,#204] ; [0x8003020] = 0x40021000
        0x08002f52:    6800        .h      LDR      r0,[r0,#0]
        0x08002f54:    f4403080    @..0    ORR      r0,r0,#0x10000
        0x08002f58:    4931        1I      LDR      r1,[pc,#196] ; [0x8003020] = 0x40021000
        0x08002f5a:    6008        .`      STR      r0,[r1,#0]
        0x08002f5c:    bf00        ..      NOP      
        0x08002f5e:    4830        0H      LDR      r0,[pc,#192] ; [0x8003020] = 0x40021000
        0x08002f60:    6800        .h      LDR      r0,[r0,#0]
        0x08002f62:    f4003000    ...0    AND      r0,r0,#0x20000
        0x08002f66:    9000        ..      STR      r0,[sp,#0]
        0x08002f68:    9801        ..      LDR      r0,[sp,#4]
        0x08002f6a:    1c40        @.      ADDS     r0,r0,#1
        0x08002f6c:    9001        ..      STR      r0,[sp,#4]
        0x08002f6e:    9800        ..      LDR      r0,[sp,#0]
        0x08002f70:    b918        ..      CBNZ     r0,0x8002f7a ; SetSysClockTo72 + 50
        0x08002f72:    9801        ..      LDR      r0,[sp,#4]
        0x08002f74:    f5b06fa0    ...o    CMP      r0,#0x500
        0x08002f78:    d1f1        ..      BNE      0x8002f5e ; SetSysClockTo72 + 22
        0x08002f7a:    4829        )H      LDR      r0,[pc,#164] ; [0x8003020] = 0x40021000
        0x08002f7c:    6800        .h      LDR      r0,[r0,#0]
        0x08002f7e:    f4003000    ...0    AND      r0,r0,#0x20000
        0x08002f82:    b110        ..      CBZ      r0,0x8002f8a ; SetSysClockTo72 + 66
        0x08002f84:    2001        .       MOVS     r0,#1
        0x08002f86:    9000        ..      STR      r0,[sp,#0]
        0x08002f88:    e001        ..      B        0x8002f8e ; SetSysClockTo72 + 70
        0x08002f8a:    2000        .       MOVS     r0,#0
        0x08002f8c:    9000        ..      STR      r0,[sp,#0]
        0x08002f8e:    9800        ..      LDR      r0,[sp,#0]
        0x08002f90:    2801        .(      CMP      r0,#1
        0x08002f92:    d143        C.      BNE      0x800301c ; SetSysClockTo72 + 212
        0x08002f94:    4823        #H      LDR      r0,[pc,#140] ; [0x8003024] = 0x40022000
        0x08002f96:    6800        .h      LDR      r0,[r0,#0]
        0x08002f98:    f0400010    @...    ORR      r0,r0,#0x10
        0x08002f9c:    4921        !I      LDR      r1,[pc,#132] ; [0x8003024] = 0x40022000
        0x08002f9e:    6008        .`      STR      r0,[r1,#0]
        0x08002fa0:    4608        .F      MOV      r0,r1
        0x08002fa2:    6800        .h      LDR      r0,[r0,#0]
        0x08002fa4:    f0200003     ...    BIC      r0,r0,#3
        0x08002fa8:    6008        .`      STR      r0,[r1,#0]
        0x08002faa:    4608        .F      MOV      r0,r1
        0x08002fac:    6800        .h      LDR      r0,[r0,#0]
        0x08002fae:    f0400002    @...    ORR      r0,r0,#2
        0x08002fb2:    6008        .`      STR      r0,[r1,#0]
        0x08002fb4:    481a        .H      LDR      r0,[pc,#104] ; [0x8003020] = 0x40021000
        0x08002fb6:    6840        @h      LDR      r0,[r0,#4]
        0x08002fb8:    4919        .I      LDR      r1,[pc,#100] ; [0x8003020] = 0x40021000
        0x08002fba:    6048        H`      STR      r0,[r1,#4]
        0x08002fbc:    4608        .F      MOV      r0,r1
        0x08002fbe:    6840        @h      LDR      r0,[r0,#4]
        0x08002fc0:    6048        H`      STR      r0,[r1,#4]
        0x08002fc2:    4608        .F      MOV      r0,r1
        0x08002fc4:    6840        @h      LDR      r0,[r0,#4]
        0x08002fc6:    f4406080    @..`    ORR      r0,r0,#0x400
        0x08002fca:    6048        H`      STR      r0,[r1,#4]
        0x08002fcc:    4608        .F      MOV      r0,r1
        0x08002fce:    6840        @h      LDR      r0,[r0,#4]
        0x08002fd0:    f420107c     .|.    BIC      r0,r0,#0x3f0000
        0x08002fd4:    6048        H`      STR      r0,[r1,#4]
        0x08002fd6:    4608        .F      MOV      r0,r1
        0x08002fd8:    6840        @h      LDR      r0,[r0,#4]
        0x08002fda:    f44010e8    @...    ORR      r0,r0,#0x1d0000
        0x08002fde:    6048        H`      STR      r0,[r1,#4]
        0x08002fe0:    4608        .F      MOV      r0,r1
        0x08002fe2:    6800        .h      LDR      r0,[r0,#0]
        0x08002fe4:    f0407080    @..p    ORR      r0,r0,#0x1000000
        0x08002fe8:    6008        .`      STR      r0,[r1,#0]
        0x08002fea:    bf00        ..      NOP      
        0x08002fec:    480c        .H      LDR      r0,[pc,#48] ; [0x8003020] = 0x40021000
        0x08002fee:    6800        .h      LDR      r0,[r0,#0]
        0x08002ff0:    f0007000    ...p    AND      r0,r0,#0x2000000
        0x08002ff4:    2800        .(      CMP      r0,#0
        0x08002ff6:    d0f9        ..      BEQ      0x8002fec ; SetSysClockTo72 + 164
        0x08002ff8:    4809        .H      LDR      r0,[pc,#36] ; [0x8003020] = 0x40021000
        0x08002ffa:    6840        @h      LDR      r0,[r0,#4]
        0x08002ffc:    f0200003     ...    BIC      r0,r0,#3
        0x08003000:    4907        .I      LDR      r1,[pc,#28] ; [0x8003020] = 0x40021000
        0x08003002:    6048        H`      STR      r0,[r1,#4]
        0x08003004:    4608        .F      MOV      r0,r1
        0x08003006:    6840        @h      LDR      r0,[r0,#4]
        0x08003008:    f0400002    @...    ORR      r0,r0,#2
        0x0800300c:    6048        H`      STR      r0,[r1,#4]
        0x0800300e:    bf00        ..      NOP      
        0x08003010:    4803        .H      LDR      r0,[pc,#12] ; [0x8003020] = 0x40021000
        0x08003012:    6840        @h      LDR      r0,[r0,#4]
        0x08003014:    f000000c    ....    AND      r0,r0,#0xc
        0x08003018:    2808        .(      CMP      r0,#8
        0x0800301a:    d1f9        ..      BNE      0x8003010 ; SetSysClockTo72 + 200
        0x0800301c:    bd0c        ..      POP      {r2,r3,pc}
    $d
        0x0800301e:    0000        ..      DCW    0
        0x08003020:    40021000    ...@    DCD    1073876992
        0x08003024:    40022000    . .@    DCD    1073881088
    $t
    i.Set_APPVersion
    Set_APPVersion
        0x08003028:    b510        ..      PUSH     {r4,lr}
        0x0800302a:    b08a        ..      SUB      sp,sp,#0x28
        0x0800302c:    2120         !      MOVS     r1,#0x20
        0x0800302e:    a802        ..      ADD      r0,sp,#8
        0x08003030:    f7fdf8a1    ....    BL       __aeabi_memclr ; 0x8000176
        0x08003034:    2400        .$      MOVS     r4,#0
        0x08003036:    bf00        ..      NOP      
        0x08003038:    2282        ."      MOVS     r2,#0x82
        0x0800303a:    a118        ..      ADR      r1,{pc}+0x62 ; 0x800309c
        0x0800303c:    a01b        ..      ADR      r0,{pc}+0x70 ; 0x80030ac
        0x0800303e:    f7fefb2f    ../.    BL       CMD_USART_Printf ; 0x80016a0
        0x08003042:    bf00        ..      NOP      
        0x08003044:    2120         !      MOVS     r1,#0x20
        0x08003046:    a802        ..      ADD      r0,sp,#8
        0x08003048:    f000fbb0    ....    BL       WaitForInput ; 0x80037ac
        0x0800304c:    bf00        ..      NOP      
        0x0800304e:    ab02        ..      ADD      r3,sp,#8
        0x08003050:    2285        ."      MOVS     r2,#0x85
        0x08003052:    a112        ..      ADR      r1,{pc}+0x4a ; 0x800309c
        0x08003054:    a01e        ..      ADR      r0,{pc}+0x7c ; 0x80030d0
        0x08003056:    f7fefb23    ..#.    BL       CMD_USART_Printf ; 0x80016a0
        0x0800305a:    bf00        ..      NOP      
        0x0800305c:    aa01        ..      ADD      r2,sp,#4
        0x0800305e:    a120         .      ADR      r1,{pc}+0x82 ; 0x80030e0
        0x08003060:    a802        ..      ADD      r0,sp,#8
        0x08003062:    f7fdf89b    ....    BL       __0sscanf ; 0x800019c
        0x08003066:    b2c4        ..      UXTB     r4,r0
        0x08003068:    b944        D.      CBNZ     r4,0x800307c ; Set_APPVersion + 84
        0x0800306a:    bf00        ..      NOP      
        0x0800306c:    2289        ."      MOVS     r2,#0x89
        0x0800306e:    a10b        ..      ADR      r1,{pc}+0x2e ; 0x800309c
        0x08003070:    a025        %.      ADR      r0,{pc}+0x98 ; 0x8003108
        0x08003072:    f7fefb15    ....    BL       CMD_USART_Printf ; 0x80016a0
        0x08003076:    bf00        ..      NOP      
        0x08003078:    b00a        ..      ADD      sp,sp,#0x28
        0x0800307a:    bd10        ..      POP      {r4,pc}
        0x0800307c:    2220         "      MOVS     r2,#0x20
        0x0800307e:    a902        ..      ADD      r1,sp,#8
        0x08003080:    482a        *H      LDR      r0,[pc,#168] ; [0x800312c] = 0x2000043d
        0x08003082:    f7fdf85f    .._.    BL       __aeabi_memcpy ; 0x8000144
        0x08003086:    f7ffff51    ..Q.    BL       Saving_OTAInfo ; 0x8002f2c
        0x0800308a:    bf00        ..      NOP      
        0x0800308c:    228f        ."      MOVS     r2,#0x8f
        0x0800308e:    a103        ..      ADR      r1,{pc}+0xe ; 0x800309c
        0x08003090:    a027        '.      ADR      r0,{pc}+0xa0 ; 0x8003130
        0x08003092:    f7fefb05    ....    BL       CMD_USART_Printf ; 0x80016a0
        0x08003096:    bf00        ..      NOP      
        0x08003098:    bf00        ..      NOP      
        0x0800309a:    e7ed        ..      B        0x8003078 ; Set_APPVersion + 80
    $d
        0x0800309c:    64726148    Hard    DCD    1685217608
        0x080030a0:    65726177    ware    DCD    1701994871
        0x080030a4:    6f6f425c    \Boo    DCD    1869562460
        0x080030a8:    00632e74    t.c.    DCD    6499956
        0x080030ac:    3a73255b    [%s:    DCD    980624731
        0x080030b0:    205d6425    %d]     DCD    542991397
        0x080030b4:    e8b7afe8    ....    DCD    3904352232
        0x080030b8:    85e593be    ....    DCD    2246415294
        0x080030bc:    8889e7a5    ....    DCD    2290739109
        0x080030c0:    e4ac9ce6    ....    DCD    3836517606
        0x080030c4:    81e6a1bf    ....    DCD    2179375551
        0x080030c8:    0d203aaf    .: .    DCD    220215983
        0x080030cc:    0000000a    ....    DCD    10
        0x080030d0:    3a73255b    [%s:    DCD    980624731
        0x080030d4:    205d6425    %d]     DCD    542991397
        0x080030d8:    0a0d7325    %s..    DCD    168653605
        0x080030dc:    00000000    ....    DCD    0
        0x080030e0:    2d524556    VER-    DCD    760366422
        0x080030e4:    2e642a25    %*d.    DCD    778316325
        0x080030e8:    2e642a25    %*d.    DCD    778316325
        0x080030ec:    2d642a25    %*d-    DCD    761539109
        0x080030f0:    64342a25    %*4d    DCD    1681140261
        0x080030f4:    322a252d    -%*2    DCD    841622829
        0x080030f8:    2a252d64    d-%*    DCD    707079524
        0x080030fc:    252d6432    2d-%    DCD    623731762
        0x08003100:    2e64322a    *2d.    DCD    778318378
        0x08003104:    00643225    %2d.    DCD    6566437
        0x08003108:    3a73255b    [%s:    DCD    980624731
        0x0800310c:    205d6425    %d]     DCD    542991397
        0x08003110:    e68889e7    ....    DCD    3867707879
        0x08003114:    bfe4ac9c    ....    DCD    3219434652
        0x08003118:    af81e6a1    ....    DCD    2944525985
        0x0800311c:    e5bca0e6    ....    DCD    3854344422
        0x08003120:    9ce68fbc    ....    DCD    2632355772
        0x08003124:    afafe889    ....    DCD    2947541129
        0x08003128:    000a0d20     ...    DCD    658720
        0x0800312c:    2000043d    =..     DCD    536871997
        0x08003130:    3a73255b    [%s:    DCD    980624731
        0x08003134:    205d6425    %d]     DCD    542991397
        0x08003138:    e68889e7    ....    DCD    3867707879
        0x0800313c:    aee8ac9c    ....    DCD    2934484124
        0x08003140:    aebde7be    ....    DCD    2931681214
        0x08003144:    e59088e6    ....    DCD    3851454694
        0x08003148:    0d209f8a    .. .    DCD    220241802
        0x0800314c:    0000000a    ....    DCD    10
    $t
    i.SysTick_Handler
    SysTick_Handler
        0x08003150:    4770        pG      BX       lr
        0x08003152:    0000        ..      MOVS     r0,r0
    i.SystemInit
    SystemInit
        0x08003154:    b510        ..      PUSH     {r4,lr}
        0x08003156:    4813        .H      LDR      r0,[pc,#76] ; [0x80031a4] = 0x40021000
        0x08003158:    6800        .h      LDR      r0,[r0,#0]
        0x0800315a:    f0400001    @...    ORR      r0,r0,#1
        0x0800315e:    4911        .I      LDR      r1,[pc,#68] ; [0x80031a4] = 0x40021000
        0x08003160:    6008        .`      STR      r0,[r1,#0]
        0x08003162:    4608        .F      MOV      r0,r1
        0x08003164:    6840        @h      LDR      r0,[r0,#4]
        0x08003166:    4910        .I      LDR      r1,[pc,#64] ; [0x80031a8] = 0xf8ff0000
        0x08003168:    4008        .@      ANDS     r0,r0,r1
        0x0800316a:    490e        .I      LDR      r1,[pc,#56] ; [0x80031a4] = 0x40021000
        0x0800316c:    6048        H`      STR      r0,[r1,#4]
        0x0800316e:    4608        .F      MOV      r0,r1
        0x08003170:    6800        .h      LDR      r0,[r0,#0]
        0x08003172:    490e        .I      LDR      r1,[pc,#56] ; [0x80031ac] = 0xfef6ffff
        0x08003174:    4008        .@      ANDS     r0,r0,r1
        0x08003176:    490b        .I      LDR      r1,[pc,#44] ; [0x80031a4] = 0x40021000
        0x08003178:    6008        .`      STR      r0,[r1,#0]
        0x0800317a:    4608        .F      MOV      r0,r1
        0x0800317c:    6800        .h      LDR      r0,[r0,#0]
        0x0800317e:    f4202080     ..     BIC      r0,r0,#0x40000
        0x08003182:    6008        .`      STR      r0,[r1,#0]
        0x08003184:    4608        .F      MOV      r0,r1
        0x08003186:    6840        @h      LDR      r0,[r0,#4]
        0x08003188:    f42000fe     ...    BIC      r0,r0,#0x7f0000
        0x0800318c:    6048        H`      STR      r0,[r1,#4]
        0x0800318e:    f44f001f    O...    MOV      r0,#0x9f0000
        0x08003192:    6088        .`      STR      r0,[r1,#8]
        0x08003194:    f7fffed4    ....    BL       SetSysClock ; 0x8002f40
        0x08003198:    f04f6000    O..`    MOV      r0,#0x8000000
        0x0800319c:    4904        .I      LDR      r1,[pc,#16] ; [0x80031b0] = 0xe000ed08
        0x0800319e:    6008        .`      STR      r0,[r1,#0]
        0x080031a0:    bd10        ..      POP      {r4,pc}
    $d
        0x080031a2:    0000        ..      DCW    0
        0x080031a4:    40021000    ...@    DCD    1073876992
        0x080031a8:    f8ff0000    ....    DCD    4177461248
        0x080031ac:    fef6ffff    ....    DCD    4277600255
        0x080031b0:    e000ed08    ....    DCD    3758157064
    $t
    i.USART2_IRQHandler
    USART2_IRQHandler
        0x080031b4:    b508        ..      PUSH     {r3,lr}
        0x080031b6:    f2405125    @.%Q    MOV      r1,#0x525
        0x080031ba:    4819        .H      LDR      r0,[pc,#100] ; [0x8003220] = 0x40004400
        0x080031bc:    f000f89f    ....    BL       USART_GetITStatus ; 0x80032fe
        0x080031c0:    2801        .(      CMP      r0,#1
        0x080031c2:    d116        ..      BNE      0x80031f2 ; USART2_IRQHandler + 62
        0x080031c4:    4816        .H      LDR      r0,[pc,#88] ; [0x8003220] = 0x40004400
        0x080031c6:    f000f981    ....    BL       USART_ReceiveData ; 0x80034cc
        0x080031ca:    b2c0        ..      UXTB     r0,r0
        0x080031cc:    9000        ..      STR      r0,[sp,#0]
        0x080031ce:    4815        .H      LDR      r0,[pc,#84] ; [0x8003224] = 0x20000014
        0x080031d0:    8800        ..      LDRH     r0,[r0,#0]
        0x080031d2:    f5b07f80    ....    CMP      r0,#0x100
        0x080031d6:    dc0b        ..      BGT      0x80031f0 ; USART2_IRQHandler + 60
        0x080031d8:    2201        ."      MOVS     r2,#1
        0x080031da:    4669        iF      MOV      r1,sp
        0x080031dc:    4812        .H      LDR      r0,[pc,#72] ; [0x8003228] = 0x20000028
        0x080031de:    f000faf7    ....    BL       Write_RingBuffer ; 0x80037d0
        0x080031e2:    4912        .I      LDR      r1,[pc,#72] ; [0x800322c] = 0x20000018
        0x080031e4:    6008        .`      STR      r0,[r1,#0]
        0x080031e6:    480f        .H      LDR      r0,[pc,#60] ; [0x8003224] = 0x20000014
        0x080031e8:    8800        ..      LDRH     r0,[r0,#0]
        0x080031ea:    1c40        @.      ADDS     r0,r0,#1
        0x080031ec:    490d        .I      LDR      r1,[pc,#52] ; [0x8003224] = 0x20000014
        0x080031ee:    8008        ..      STRH     r0,[r1,#0]
        0x080031f0:    bf00        ..      NOP      
        0x080031f2:    f2404124    @.$A    MOV      r1,#0x424
        0x080031f6:    480a        .H      LDR      r0,[pc,#40] ; [0x8003220] = 0x40004400
        0x080031f8:    f000f881    ....    BL       USART_GetITStatus ; 0x80032fe
        0x080031fc:    2801        .(      CMP      r0,#1
        0x080031fe:    d10d        ..      BNE      0x800321c ; USART2_IRQHandler + 104
        0x08003200:    4807        .H      LDR      r0,[pc,#28] ; [0x8003220] = 0x40004400
        0x08003202:    f000f963    ..c.    BL       USART_ReceiveData ; 0x80034cc
        0x08003206:    4809        .H      LDR      r0,[pc,#36] ; [0x800322c] = 0x20000018
        0x08003208:    6800        .h      LDR      r0,[r0,#0]
        0x0800320a:    b120         .      CBZ      r0,0x8003216 ; USART2_IRQHandler + 98
        0x0800320c:    4805        .H      LDR      r0,[pc,#20] ; [0x8003224] = 0x20000014
        0x0800320e:    8801        ..      LDRH     r1,[r0,#0]
        0x08003210:    4805        .H      LDR      r0,[pc,#20] ; [0x8003228] = 0x20000028
        0x08003212:    f000f964    ..d.    BL       Update_FCBList ; 0x80034de
        0x08003216:    2000        .       MOVS     r0,#0
        0x08003218:    4902        .I      LDR      r1,[pc,#8] ; [0x8003224] = 0x20000014
        0x0800321a:    8008        ..      STRH     r0,[r1,#0]
        0x0800321c:    bd08        ..      POP      {r3,pc}
    $d
        0x0800321e:    0000        ..      DCW    0
        0x08003220:    40004400    .D.@    DCD    1073759232
        0x08003224:    20000014    ...     DCD    536870932
        0x08003228:    20000028    (..     DCD    536870952
        0x0800322c:    20000018    ...     DCD    536870936
    $t
    i.USART_Cmd
    USART_Cmd
        0x08003230:    b121        !.      CBZ      r1,0x800323c ; USART_Cmd + 12
        0x08003232:    8982        ..      LDRH     r2,[r0,#0xc]
        0x08003234:    f4425200    B..R    ORR      r2,r2,#0x2000
        0x08003238:    8182        ..      STRH     r2,[r0,#0xc]
        0x0800323a:    e004        ..      B        0x8003246 ; USART_Cmd + 22
        0x0800323c:    8982        ..      LDRH     r2,[r0,#0xc]
        0x0800323e:    f64d73ff    M..s    MOV      r3,#0xdfff
        0x08003242:    401a        .@      ANDS     r2,r2,r3
        0x08003244:    8182        ..      STRH     r2,[r0,#0xc]
        0x08003246:    4770        pG      BX       lr
    i.USART_DeInit
    USART_DeInit
        0x08003248:    b510        ..      PUSH     {r4,lr}
        0x0800324a:    4604        .F      MOV      r4,r0
        0x0800324c:    4820         H      LDR      r0,[pc,#128] ; [0x80032d0] = 0x40013800
        0x0800324e:    4284        .B      CMP      r4,r0
        0x08003250:    d109        ..      BNE      0x8003266 ; USART_DeInit + 30
        0x08003252:    2101        .!      MOVS     r1,#1
        0x08003254:    0388        ..      LSLS     r0,r1,#14
        0x08003256:    f7fffcbd    ....    BL       RCC_APB2PeriphResetCmd ; 0x8002bd4
        0x0800325a:    2100        .!      MOVS     r1,#0
        0x0800325c:    f44f4080    O..@    MOV      r0,#0x4000
        0x08003260:    f7fffcb8    ....    BL       RCC_APB2PeriphResetCmd ; 0x8002bd4
        0x08003264:    e032        2.      B        0x80032cc ; USART_DeInit + 132
        0x08003266:    481b        .H      LDR      r0,[pc,#108] ; [0x80032d4] = 0x40004400
        0x08003268:    4284        .B      CMP      r4,r0
        0x0800326a:    d109        ..      BNE      0x8003280 ; USART_DeInit + 56
        0x0800326c:    2101        .!      MOVS     r1,#1
        0x0800326e:    0448        H.      LSLS     r0,r1,#17
        0x08003270:    f7fffc90    ....    BL       RCC_APB1PeriphResetCmd ; 0x8002b94
        0x08003274:    2100        .!      MOVS     r1,#0
        0x08003276:    f44f3000    O..0    MOV      r0,#0x20000
        0x0800327a:    f7fffc8b    ....    BL       RCC_APB1PeriphResetCmd ; 0x8002b94
        0x0800327e:    e025        %.      B        0x80032cc ; USART_DeInit + 132
        0x08003280:    4815        .H      LDR      r0,[pc,#84] ; [0x80032d8] = 0x40004800
        0x08003282:    4284        .B      CMP      r4,r0
        0x08003284:    d109        ..      BNE      0x800329a ; USART_DeInit + 82
        0x08003286:    2101        .!      MOVS     r1,#1
        0x08003288:    0488        ..      LSLS     r0,r1,#18
        0x0800328a:    f7fffc83    ....    BL       RCC_APB1PeriphResetCmd ; 0x8002b94
        0x0800328e:    2100        .!      MOVS     r1,#0
        0x08003290:    f44f2080    O..     MOV      r0,#0x40000
        0x08003294:    f7fffc7e    ..~.    BL       RCC_APB1PeriphResetCmd ; 0x8002b94
        0x08003298:    e018        ..      B        0x80032cc ; USART_DeInit + 132
        0x0800329a:    4810        .H      LDR      r0,[pc,#64] ; [0x80032dc] = 0x40004c00
        0x0800329c:    4284        .B      CMP      r4,r0
        0x0800329e:    d109        ..      BNE      0x80032b4 ; USART_DeInit + 108
        0x080032a0:    2101        .!      MOVS     r1,#1
        0x080032a2:    04c8        ..      LSLS     r0,r1,#19
        0x080032a4:    f7fffc76    ..v.    BL       RCC_APB1PeriphResetCmd ; 0x8002b94
        0x080032a8:    2100        .!      MOVS     r1,#0
        0x080032aa:    f44f2000    O..     MOV      r0,#0x80000
        0x080032ae:    f7fffc71    ..q.    BL       RCC_APB1PeriphResetCmd ; 0x8002b94
        0x080032b2:    e00b        ..      B        0x80032cc ; USART_DeInit + 132
        0x080032b4:    480a        .H      LDR      r0,[pc,#40] ; [0x80032e0] = 0x40005000
        0x080032b6:    4284        .B      CMP      r4,r0
        0x080032b8:    d108        ..      BNE      0x80032cc ; USART_DeInit + 132
        0x080032ba:    2101        .!      MOVS     r1,#1
        0x080032bc:    0508        ..      LSLS     r0,r1,#20
        0x080032be:    f7fffc69    ..i.    BL       RCC_APB1PeriphResetCmd ; 0x8002b94
        0x080032c2:    2100        .!      MOVS     r1,#0
        0x080032c4:    f44f1080    O...    MOV      r0,#0x100000
        0x080032c8:    f7fffc64    ..d.    BL       RCC_APB1PeriphResetCmd ; 0x8002b94
        0x080032cc:    bd10        ..      POP      {r4,pc}
    $d
        0x080032ce:    0000        ..      DCW    0
        0x080032d0:    40013800    .8.@    DCD    1073821696
        0x080032d4:    40004400    .D.@    DCD    1073759232
        0x080032d8:    40004800    .H.@    DCD    1073760256
        0x080032dc:    40004c00    .L.@    DCD    1073761280
        0x080032e0:    40005000    .P.@    DCD    1073762304
    $t
    i.USART_GetFlagStatus
    USART_GetFlagStatus
        0x080032e4:    4602        .F      MOV      r2,r0
        0x080032e6:    2000        .       MOVS     r0,#0
        0x080032e8:    f5b17f00    ....    CMP      r1,#0x200
        0x080032ec:    d100        ..      BNE      0x80032f0 ; USART_GetFlagStatus + 12
        0x080032ee:    bf00        ..      NOP      
        0x080032f0:    8813        ..      LDRH     r3,[r2,#0]
        0x080032f2:    400b        .@      ANDS     r3,r3,r1
        0x080032f4:    b10b        ..      CBZ      r3,0x80032fa ; USART_GetFlagStatus + 22
        0x080032f6:    2001        .       MOVS     r0,#1
        0x080032f8:    e000        ..      B        0x80032fc ; USART_GetFlagStatus + 24
        0x080032fa:    2000        .       MOVS     r0,#0
        0x080032fc:    4770        pG      BX       lr
    i.USART_GetITStatus
    USART_GetITStatus
        0x080032fe:    b570        p.      PUSH     {r4-r6,lr}
        0x08003300:    4602        .F      MOV      r2,r0
        0x08003302:    2400        .$      MOVS     r4,#0
        0x08003304:    2300        .#      MOVS     r3,#0
        0x08003306:    2500        .%      MOVS     r5,#0
        0x08003308:    2000        .       MOVS     r0,#0
        0x0800330a:    f640166a    @.j.    MOV      r6,#0x96a
        0x0800330e:    42b1        .B      CMP      r1,r6
        0x08003310:    d100        ..      BNE      0x8003314 ; USART_GetITStatus + 22
        0x08003312:    bf00        ..      NOP      
        0x08003314:    f3c11542    ..B.    UBFX     r5,r1,#5,#3
        0x08003318:    f001031f    ....    AND      r3,r1,#0x1f
        0x0800331c:    2601        .&      MOVS     r6,#1
        0x0800331e:    fa06f303    ....    LSL      r3,r6,r3
        0x08003322:    2d01        .-      CMP      r5,#1
        0x08003324:    d102        ..      BNE      0x800332c ; USART_GetITStatus + 46
        0x08003326:    8996        ..      LDRH     r6,[r2,#0xc]
        0x08003328:    4033        3@      ANDS     r3,r3,r6
        0x0800332a:    e006        ..      B        0x800333a ; USART_GetITStatus + 60
        0x0800332c:    2d02        .-      CMP      r5,#2
        0x0800332e:    d102        ..      BNE      0x8003336 ; USART_GetITStatus + 56
        0x08003330:    8a16        ..      LDRH     r6,[r2,#0x10]
        0x08003332:    4033        3@      ANDS     r3,r3,r6
        0x08003334:    e001        ..      B        0x800333a ; USART_GetITStatus + 60
        0x08003336:    8a96        ..      LDRH     r6,[r2,#0x14]
        0x08003338:    4033        3@      ANDS     r3,r3,r6
        0x0800333a:    120c        ..      ASRS     r4,r1,#8
        0x0800333c:    2601        .&      MOVS     r6,#1
        0x0800333e:    fa06f404    ....    LSL      r4,r6,r4
        0x08003342:    8816        ..      LDRH     r6,[r2,#0]
        0x08003344:    4034        4@      ANDS     r4,r4,r6
        0x08003346:    b113        ..      CBZ      r3,0x800334e ; USART_GetITStatus + 80
        0x08003348:    b10c        ..      CBZ      r4,0x800334e ; USART_GetITStatus + 80
        0x0800334a:    2001        .       MOVS     r0,#1
        0x0800334c:    e000        ..      B        0x8003350 ; USART_GetITStatus + 82
        0x0800334e:    2000        .       MOVS     r0,#0
        0x08003350:    bd70        p.      POP      {r4-r6,pc}
        0x08003352:    0000        ..      MOVS     r0,r0
    i.USART_IAP
    USART_IAP
        0x08003354:    b510        ..      PUSH     {r4,lr}
        0x08003356:    bf00        ..      NOP      
        0x08003358:    2277        w"      MOVS     r2,#0x77
        0x0800335a:    a106        ..      ADR      r1,{pc}+0x1a ; 0x8003374
        0x0800335c:    a009        ..      ADR      r0,{pc}+0x28 ; 0x8003384
        0x0800335e:    f7fef99f    ....    BL       CMD_USART_Printf ; 0x80016a0
        0x08003362:    bf00        ..      NOP      
        0x08003364:    f2404104    @..A    MOV      r1,#0x404
        0x08003368:    480e        .H      LDR      r0,[pc,#56] ; [0x80033a4] = 0x20000514
        0x0800336a:    f7fcff04    ....    BL       __aeabi_memclr ; 0x8000176
        0x0800336e:    f7fff9df    ....    BL       InterFlash_RecvBin ; 0x8002730
        0x08003372:    bd10        ..      POP      {r4,pc}
    $d
        0x08003374:    64726148    Hard    DCD    1685217608
        0x08003378:    65726177    ware    DCD    1701994871
        0x0800337c:    6f6f425c    \Boo    DCD    1869562460
        0x08003380:    00632e74    t.c.    DCD    6499956
        0x08003384:    3a73255b    [%s:    DCD    980624731
        0x08003388:    205d6425    %d]     DCD    542991397
        0x0800338c:    e4b7afe8    ....    DCD    3837243368
        0x08003390:    bce48ab8    ....    DCD    3169094328
        0x08003394:    6e6962a0    .bin    DCD    1852400288
        0x08003398:    e48796e6    ....    DCD    3834091238
        0x0800339c:    0d20b6bb    .. .    DCD    220247739
        0x080033a0:    0000000a    ....    DCD    10
        0x080033a4:    20000514    ...     DCD    536872212
    $t
    i.USART_ITConfig
    USART_ITConfig
        0x080033a8:    b5f0        ..      PUSH     {r4-r7,lr}
        0x080033aa:    4603        .F      MOV      r3,r0
        0x080033ac:    2400        .$      MOVS     r4,#0
        0x080033ae:    2600        .&      MOVS     r6,#0
        0x080033b0:    2500        .%      MOVS     r5,#0
        0x080033b2:    2000        .       MOVS     r0,#0
        0x080033b4:    f640176a    @.j.    MOV      r7,#0x96a
        0x080033b8:    42b9        .B      CMP      r1,r7
        0x080033ba:    d100        ..      BNE      0x80033be ; USART_ITConfig + 22
        0x080033bc:    bf00        ..      NOP      
        0x080033be:    4618        .F      MOV      r0,r3
        0x080033c0:    f3c11442    ..B.    UBFX     r4,r1,#5,#3
        0x080033c4:    f001061f    ....    AND      r6,r1,#0x1f
        0x080033c8:    2701        .'      MOVS     r7,#1
        0x080033ca:    fa07f506    ....    LSL      r5,r7,r6
        0x080033ce:    2c01        .,      CMP      r4,#1
        0x080033d0:    d101        ..      BNE      0x80033d6 ; USART_ITConfig + 46
        0x080033d2:    300c        .0      ADDS     r0,r0,#0xc
        0x080033d4:    e004        ..      B        0x80033e0 ; USART_ITConfig + 56
        0x080033d6:    2c02        .,      CMP      r4,#2
        0x080033d8:    d101        ..      BNE      0x80033de ; USART_ITConfig + 54
        0x080033da:    3010        .0      ADDS     r0,r0,#0x10
        0x080033dc:    e000        ..      B        0x80033e0 ; USART_ITConfig + 56
        0x080033de:    3014        .0      ADDS     r0,r0,#0x14
        0x080033e0:    b11a        ..      CBZ      r2,0x80033ea ; USART_ITConfig + 66
        0x080033e2:    6807        .h      LDR      r7,[r0,#0]
        0x080033e4:    432f        /C      ORRS     r7,r7,r5
        0x080033e6:    6007        .`      STR      r7,[r0,#0]
        0x080033e8:    e002        ..      B        0x80033f0 ; USART_ITConfig + 72
        0x080033ea:    6807        .h      LDR      r7,[r0,#0]
        0x080033ec:    43af        .C      BICS     r7,r7,r5
        0x080033ee:    6007        .`      STR      r7,[r0,#0]
        0x080033f0:    bdf0        ..      POP      {r4-r7,pc}
        0x080033f2:    0000        ..      MOVS     r0,r0
    i.USART_Init
    USART_Init
        0x080033f4:    e92d47f0    -..G    PUSH     {r4-r10,lr}
        0x080033f8:    b086        ..      SUB      sp,sp,#0x18
        0x080033fa:    4605        .F      MOV      r5,r0
        0x080033fc:    460e        .F      MOV      r6,r1
        0x080033fe:    2400        .$      MOVS     r4,#0
        0x08003400:    46a2        .F      MOV      r10,r4
        0x08003402:    bf00        ..      NOP      
        0x08003404:    46a1        .F      MOV      r9,r4
        0x08003406:    2700        .'      MOVS     r7,#0
        0x08003408:    89b0        ..      LDRH     r0,[r6,#0xc]
        0x0800340a:    b100        ..      CBZ      r0,0x800340e ; USART_Init + 26
        0x0800340c:    bf00        ..      NOP      
        0x0800340e:    462f        /F      MOV      r7,r5
        0x08003410:    8a2c        ,.      LDRH     r4,[r5,#0x10]
        0x08003412:    f64c70ff    L..p    MOV      r0,#0xcfff
        0x08003416:    4004        .@      ANDS     r4,r4,r0
        0x08003418:    88f0        ..      LDRH     r0,[r6,#6]
        0x0800341a:    4304        .C      ORRS     r4,r4,r0
        0x0800341c:    822c        ,.      STRH     r4,[r5,#0x10]
        0x0800341e:    89ac        ..      LDRH     r4,[r5,#0xc]
        0x08003420:    f64e10f3    N...    MOV      r0,#0xe9f3
        0x08003424:    4004        .@      ANDS     r4,r4,r0
        0x08003426:    88b0        ..      LDRH     r0,[r6,#4]
        0x08003428:    8931        1.      LDRH     r1,[r6,#8]
        0x0800342a:    4308        .C      ORRS     r0,r0,r1
        0x0800342c:    8971        q.      LDRH     r1,[r6,#0xa]
        0x0800342e:    4308        .C      ORRS     r0,r0,r1
        0x08003430:    4304        .C      ORRS     r4,r4,r0
        0x08003432:    81ac        ..      STRH     r4,[r5,#0xc]
        0x08003434:    8aac        ..      LDRH     r4,[r5,#0x14]
        0x08003436:    f64f40ff    O..@    MOV      r0,#0xfcff
        0x0800343a:    4004        .@      ANDS     r4,r4,r0
        0x0800343c:    89b0        ..      LDRH     r0,[r6,#0xc]
        0x0800343e:    4304        .C      ORRS     r4,r4,r0
        0x08003440:    82ac        ..      STRH     r4,[r5,#0x14]
        0x08003442:    a801        ..      ADD      r0,sp,#4
        0x08003444:    f7fffbd6    ....    BL       RCC_GetClocksFreq ; 0x8002bf4
        0x08003448:    481f        .H      LDR      r0,[pc,#124] ; [0x80034c8] = 0x40013800
        0x0800344a:    4287        .B      CMP      r7,r0
        0x0800344c:    d102        ..      BNE      0x8003454 ; USART_Init + 96
        0x0800344e:    f8dda010    ....    LDR      r10,[sp,#0x10]
        0x08003452:    e001        ..      B        0x8003458 ; USART_Init + 100
        0x08003454:    f8dda00c    ....    LDR      r10,[sp,#0xc]
        0x08003458:    89a8        ..      LDRH     r0,[r5,#0xc]
        0x0800345a:    f4004000    ...@    AND      r0,r0,#0x8000
        0x0800345e:    b140        @.      CBZ      r0,0x8003472 ; USART_Init + 126
        0x08003460:    eb0a00ca    ....    ADD      r0,r10,r10,LSL #3
        0x08003464:    eb00100a    ....    ADD      r0,r0,r10,LSL #4
        0x08003468:    6831        1h      LDR      r1,[r6,#0]
        0x0800346a:    0049        I.      LSLS     r1,r1,#1
        0x0800346c:    fbb0f8f1    ....    UDIV     r8,r0,r1
        0x08003470:    e007        ..      B        0x8003482 ; USART_Init + 142
        0x08003472:    eb0a00ca    ....    ADD      r0,r10,r10,LSL #3
        0x08003476:    eb00100a    ....    ADD      r0,r0,r10,LSL #4
        0x0800347a:    6831        1h      LDR      r1,[r6,#0]
        0x0800347c:    0089        ..      LSLS     r1,r1,#2
        0x0800347e:    fbb0f8f1    ....    UDIV     r8,r0,r1
        0x08003482:    2064        d       MOVS     r0,#0x64
        0x08003484:    fbb8f0f0    ....    UDIV     r0,r8,r0
        0x08003488:    0104        ..      LSLS     r4,r0,#4
        0x0800348a:    0920         .      LSRS     r0,r4,#4
        0x0800348c:    2164        d!      MOVS     r1,#0x64
        0x0800348e:    fb018910    ....    MLS      r9,r1,r0,r8
        0x08003492:    89a8        ..      LDRH     r0,[r5,#0xc]
        0x08003494:    f4004000    ...@    AND      r0,r0,#0x8000
        0x08003498:    b140        @.      CBZ      r0,0x80034ac ; USART_Init + 184
        0x0800349a:    2032        2       MOVS     r0,#0x32
        0x0800349c:    eb0000c9    ....    ADD      r0,r0,r9,LSL #3
        0x080034a0:    fbb0f0f1    ....    UDIV     r0,r0,r1
        0x080034a4:    f0000007    ....    AND      r0,r0,#7
        0x080034a8:    4304        .C      ORRS     r4,r4,r0
        0x080034aa:    e008        ..      B        0x80034be ; USART_Init + 202
        0x080034ac:    2032        2       MOVS     r0,#0x32
        0x080034ae:    eb001009    ....    ADD      r0,r0,r9,LSL #4
        0x080034b2:    2164        d!      MOVS     r1,#0x64
        0x080034b4:    fbb0f0f1    ....    UDIV     r0,r0,r1
        0x080034b8:    f000000f    ....    AND      r0,r0,#0xf
        0x080034bc:    4304        .C      ORRS     r4,r4,r0
        0x080034be:    812c        ,.      STRH     r4,[r5,#8]
        0x080034c0:    b006        ..      ADD      sp,sp,#0x18
        0x080034c2:    e8bd87f0    ....    POP      {r4-r10,pc}
    $d
        0x080034c6:    0000        ..      DCW    0
        0x080034c8:    40013800    .8.@    DCD    1073821696
    $t
    i.USART_ReceiveData
    USART_ReceiveData
        0x080034cc:    4601        .F      MOV      r1,r0
        0x080034ce:    8888        ..      LDRH     r0,[r1,#4]
        0x080034d0:    f3c00008    ....    UBFX     r0,r0,#0,#9
        0x080034d4:    4770        pG      BX       lr
    i.USART_SendData
    USART_SendData
        0x080034d6:    f3c10208    ....    UBFX     r2,r1,#0,#9
        0x080034da:    8082        ..      STRH     r2,[r0,#4]
        0x080034dc:    4770        pG      BX       lr
    i.Update_FCBList
    Update_FCBList
        0x080034de:    e92d41f0    -..A    PUSH     {r4-r8,lr}
        0x080034e2:    4604        .F      MOV      r4,r0
        0x080034e4:    460f        .F      MOV      r7,r1
        0x080034e6:    f8940410    ....    LDRB     r0,[r4,#0x410]
        0x080034ea:    281e        .(      CMP      r0,#0x1e
        0x080034ec:    db01        ..      BLT      0x80034f2 ; Update_FCBList + 20
        0x080034ee:    e8bd81f0    ....    POP      {r4-r8,pc}
        0x080034f2:    f8b40408    ....    LDRH     r0,[r4,#0x408]
        0x080034f6:    1bc0        ..      SUBS     r0,r0,r7
        0x080034f8:    fa1ff880    ....    UXTH     r8,r0
        0x080034fc:    4639        9F      MOV      r1,r7
        0x080034fe:    4640        @F      MOV      r0,r8
        0x08003500:    f7fef907    ....    BL       Create_FCBListItem ; 0x8001712
        0x08003504:    4605        .F      MOV      r5,r0
        0x08003506:    b905        ..      CBNZ     r5,0x800350a ; Update_FCBList + 44
        0x08003508:    e7f1        ..      B        0x80034ee ; Update_FCBList + 16
        0x0800350a:    f8d4640c    ...d    LDR      r6,[r4,#0x40c]
        0x0800350e:    b916        ..      CBNZ     r6,0x8003516 ; Update_FCBList + 56
        0x08003510:    f8c4540c    ...T    STR      r5,[r4,#0x40c]
        0x08003514:    e005        ..      B        0x8003522 ; Update_FCBList + 68
        0x08003516:    e000        ..      B        0x800351a ; Update_FCBList + 60
        0x08003518:    6876        vh      LDR      r6,[r6,#4]
        0x0800351a:    6870        ph      LDR      r0,[r6,#4]
        0x0800351c:    2800        .(      CMP      r0,#0
        0x0800351e:    d1fb        ..      BNE      0x8003518 ; Update_FCBList + 58
        0x08003520:    6075        u`      STR      r5,[r6,#4]
        0x08003522:    f8940410    ....    LDRB     r0,[r4,#0x410]
        0x08003526:    1c40        @.      ADDS     r0,r0,#1
        0x08003528:    f8840410    ....    STRB     r0,[r4,#0x410]
        0x0800352c:    bf00        ..      NOP      
        0x0800352e:    e7de        ..      B        0x80034ee ; Update_FCBList + 16
    i.UsageFault_Handler
    UsageFault_Handler
        0x08003530:    bf00        ..      NOP      
        0x08003532:    e7fe        ..      B        0x8003532 ; UsageFault_Handler + 2
    i.W25Q64_BlockErase_64K
    W25Q64_BlockErase_64K
        0x08003534:    b510        ..      PUSH     {r4,lr}
        0x08003536:    4604        .F      MOV      r4,r0
        0x08003538:    2064        d       MOVS     r0,#0x64
        0x0800353a:    f000f8a1    ....    BL       W25Q64_WaitNotBusy ; 0x8003680
        0x0800353e:    f000f8d9    ....    BL       W25Q64_WriteEnable ; 0x80036f4
        0x08003542:    f7fffcb0    ....    BL       SPI_Start ; 0x8002ea6
        0x08003546:    20d8        .       MOVS     r0,#0xd8
        0x08003548:    f7fffcb8    ....    BL       SPI_SwapByte ; 0x8002ebc
        0x0800354c:    f3c44007    ...@    UBFX     r0,r4,#16,#8
        0x08003550:    f7fffcb4    ....    BL       SPI_SwapByte ; 0x8002ebc
        0x08003554:    f3c42007    ...     UBFX     r0,r4,#8,#8
        0x08003558:    f7fffcb0    ....    BL       SPI_SwapByte ; 0x8002ebc
        0x0800355c:    b2e0        ..      UXTB     r0,r4
        0x0800355e:    f7fffcad    ....    BL       SPI_SwapByte ; 0x8002ebc
        0x08003562:    f7fffca5    ....    BL       SPI_Stop ; 0x8002eb0
        0x08003566:    2064        d       MOVS     r0,#0x64
        0x08003568:    f000f88a    ....    BL       W25Q64_WaitNotBusy ; 0x8003680
        0x0800356c:    bd10        ..      POP      {r4,pc}
    i.W25Q64_Init
    W25Q64_Init
        0x0800356e:    b510        ..      PUSH     {r4,lr}
        0x08003570:    f7feff8a    ....    BL       HWSPI_Init ; 0x8002488
        0x08003574:    bd10        ..      POP      {r4,pc}
        0x08003576:    0000        ..      MOVS     r0,r0
    i.W25Q64_ReadData
    W25Q64_ReadData
        0x08003578:    e92d41f0    -..A    PUSH     {r4-r8,lr}
        0x0800357c:    4604        .F      MOV      r4,r0
        0x0800357e:    460d        .F      MOV      r5,r1
        0x08003580:    4616        .F      MOV      r6,r2
        0x08003582:    461f        .F      MOV      r7,r3
        0x08003584:    b945        E.      CBNZ     r5,0x8003598 ; W25Q64_ReadData + 32
        0x08003586:    bf00        ..      NOP      
        0x08003588:    2289        ."      MOVS     r2,#0x89
        0x0800358a:    a114        ..      ADR      r1,{pc}+0x52 ; 0x80035dc
        0x0800358c:    a018        ..      ADR      r0,{pc}+0x64 ; 0x80035f0
        0x0800358e:    f7fef887    ....    BL       CMD_USART_Printf ; 0x80016a0
        0x08003592:    bf00        ..      NOP      
        0x08003594:    e8bd81f0    ....    POP      {r4-r8,pc}
        0x08003598:    42be        .B      CMP      r6,r7
        0x0800359a:    d301        ..      BCC      0x80035a0 ; W25Q64_ReadData + 40
        0x0800359c:    4638        8F      MOV      r0,r7
        0x0800359e:    e000        ..      B        0x80035a2 ; W25Q64_ReadData + 42
        0x080035a0:    4630        0F      MOV      r0,r6
        0x080035a2:    4680        .F      MOV      r8,r0
        0x080035a4:    2064        d       MOVS     r0,#0x64
        0x080035a6:    f000f86b    ..k.    BL       W25Q64_WaitNotBusy ; 0x8003680
        0x080035aa:    f7fffc7c    ..|.    BL       SPI_Start ; 0x8002ea6
        0x080035ae:    2003        .       MOVS     r0,#3
        0x080035b0:    f7fffc84    ....    BL       SPI_SwapByte ; 0x8002ebc
        0x080035b4:    f3c44007    ...@    UBFX     r0,r4,#16,#8
        0x080035b8:    f7fffc80    ....    BL       SPI_SwapByte ; 0x8002ebc
        0x080035bc:    f3c42007    ...     UBFX     r0,r4,#8,#8
        0x080035c0:    f7fffc7c    ..|.    BL       SPI_SwapByte ; 0x8002ebc
        0x080035c4:    b2e0        ..      UXTB     r0,r4
        0x080035c6:    f7fffc79    ..y.    BL       SPI_SwapByte ; 0x8002ebc
        0x080035ca:    4642        BF      MOV      r2,r8
        0x080035cc:    4631        1F      MOV      r1,r6
        0x080035ce:    4628        (F      MOV      r0,r5
        0x080035d0:    f7fffc50    ..P.    BL       SPI_Read ; 0x8002e74
        0x080035d4:    f7fffc6c    ..l.    BL       SPI_Stop ; 0x8002eb0
        0x080035d8:    bf00        ..      NOP      
        0x080035da:    e7db        ..      B        0x8003594 ; W25Q64_ReadData + 28
    $d
        0x080035dc:    64726148    Hard    DCD    1685217608
        0x080035e0:    65726177    ware    DCD    1701994871
        0x080035e4:    3532575c    \W25    DCD    892491612
        0x080035e8:    2e343651    Q64.    DCD    775173713
        0x080035ec:    00000063    c...    DCD    99
        0x080035f0:    3a73255b    [%s:    DCD    980624731
        0x080035f4:    205d6425    %d]     DCD    542991397
        0x080035f8:    76636572    recv    DCD    1986225522
        0x080035fc:    20667542    Buf     DCD    543585602
        0x08003600:    4e207369    is N    DCD    1310749545
        0x08003604:    0d4c4c55    ULL.    DCD    223104085
        0x08003608:    0000000a    ....    DCD    10
    $t
    i.W25Q64_ReadPages
    W25Q64_ReadPages
        0x0800360c:    e92d47f0    -..G    PUSH     {r4-r10,lr}
        0x08003610:    4606        .F      MOV      r6,r0
        0x08003612:    460f        .F      MOV      r7,r1
        0x08003614:    4690        .F      MOV      r8,r2
        0x08003616:    461c        .F      MOV      r4,r3
        0x08003618:    b947        G.      CBNZ     r7,0x800362c ; W25Q64_ReadPages + 32
        0x0800361a:    bf00        ..      NOP      
        0x0800361c:    22a5        ."      MOVS     r2,#0xa5
        0x0800361e:    a10c        ..      ADR      r1,{pc}+0x32 ; 0x8003650
        0x08003620:    a010        ..      ADR      r0,{pc}+0x44 ; 0x8003664
        0x08003622:    f7fef83d    ..=.    BL       CMD_USART_Printf ; 0x80016a0
        0x08003626:    bf00        ..      NOP      
        0x08003628:    e8bd87f0    ....    POP      {r4-r10,pc}
        0x0800362c:    4635        5F      MOV      r5,r6
        0x0800362e:    ebb82f04    .../    CMP      r8,r4,LSL #8
        0x08003632:    d301        ..      BCC      0x8003638 ; W25Q64_ReadPages + 44
        0x08003634:    0220         .      LSLS     r0,r4,#8
        0x08003636:    e000        ..      B        0x800363a ; W25Q64_ReadPages + 46
        0x08003638:    4640        @F      MOV      r0,r8
        0x0800363a:    4681        .F      MOV      r9,r0
        0x0800363c:    464b        KF      MOV      r3,r9
        0x0800363e:    4642        BF      MOV      r2,r8
        0x08003640:    4639        9F      MOV      r1,r7
        0x08003642:    4628        (F      MOV      r0,r5
        0x08003644:    f7ffff98    ....    BL       W25Q64_ReadData ; 0x8003578
        0x08003648:    f5057580    ...u    ADD      r5,r5,#0x100
        0x0800364c:    bf00        ..      NOP      
        0x0800364e:    e7eb        ..      B        0x8003628 ; W25Q64_ReadPages + 28
    $d
        0x08003650:    64726148    Hard    DCD    1685217608
        0x08003654:    65726177    ware    DCD    1701994871
        0x08003658:    3532575c    \W25    DCD    892491612
        0x0800365c:    2e343651    Q64.    DCD    775173713
        0x08003660:    00000063    c...    DCD    99
        0x08003664:    3a73255b    [%s:    DCD    980624731
        0x08003668:    205d6425    %d]     DCD    542991397
        0x0800366c:    76636572    recv    DCD    1986225522
        0x08003670:    20667542    Buf     DCD    543585602
        0x08003674:    4e207369    is N    DCD    1310749545
        0x08003678:    0d4c4c55    ULL.    DCD    223104085
        0x0800367c:    0000000a    ....    DCD    10
    $t
    i.W25Q64_WaitNotBusy
    W25Q64_WaitNotBusy
        0x08003680:    b510        ..      PUSH     {r4,lr}
        0x08003682:    4604        .F      MOV      r4,r0
        0x08003684:    f7fffc0f    ....    BL       SPI_Start ; 0x8002ea6
        0x08003688:    2005        .       MOVS     r0,#5
        0x0800368a:    f7fffc17    ....    BL       SPI_SwapByte ; 0x8002ebc
        0x0800368e:    e00c        ..      B        0x80036aa ; W25Q64_WaitNotBusy + 42
        0x08003690:    2001        .       MOVS     r0,#1
        0x08003692:    f7fef84f    ..O.    BL       Delay_ms ; 0x8001734
        0x08003696:    1e64        d.      SUBS     r4,r4,#1
        0x08003698:    b93c        <.      CBNZ     r4,0x80036aa ; W25Q64_WaitNotBusy + 42
        0x0800369a:    bf00        ..      NOP      
        0x0800369c:    2223        #"      MOVS     r2,#0x23
        0x0800369e:    a108        ..      ADR      r1,{pc}+0x22 ; 0x80036c0
        0x080036a0:    a00c        ..      ADR      r0,{pc}+0x34 ; 0x80036d4
        0x080036a2:    f7fdfffd    ....    BL       CMD_USART_Printf ; 0x80016a0
        0x080036a6:    bf00        ..      NOP      
        0x080036a8:    e006        ..      B        0x80036b8 ; W25Q64_WaitNotBusy + 56
        0x080036aa:    20ff        .       MOVS     r0,#0xff
        0x080036ac:    f7fffc06    ....    BL       SPI_SwapByte ; 0x8002ebc
        0x080036b0:    f0000001    ....    AND      r0,r0,#1
        0x080036b4:    2800        .(      CMP      r0,#0
        0x080036b6:    d1eb        ..      BNE      0x8003690 ; W25Q64_WaitNotBusy + 16
        0x080036b8:    bf00        ..      NOP      
        0x080036ba:    f7fffbf9    ....    BL       SPI_Stop ; 0x8002eb0
        0x080036be:    bd10        ..      POP      {r4,pc}
    $d
        0x080036c0:    64726148    Hard    DCD    1685217608
        0x080036c4:    65726177    ware    DCD    1701994871
        0x080036c8:    3532575c    \W25    DCD    892491612
        0x080036cc:    2e343651    Q64.    DCD    775173713
        0x080036d0:    00000063    c...    DCD    99
        0x080036d4:    3a73255b    [%s:    DCD    980624731
        0x080036d8:    205d6425    %d]     DCD    542991397
        0x080036dc:    74696177    wait    DCD    1953063287
        0x080036e0:    746f6e20     not    DCD    1953459744
        0x080036e4:    73756220     bus    DCD    1937072672
        0x080036e8:    69742079    y ti    DCD    1769218169
        0x080036ec:    756f656d    meou    DCD    1970234733
        0x080036f0:    000a0d74    t...    DCD    658804
    $t
    i.W25Q64_WriteEnable
    W25Q64_WriteEnable
        0x080036f4:    b510        ..      PUSH     {r4,lr}
        0x080036f6:    f7fffbd6    ....    BL       SPI_Start ; 0x8002ea6
        0x080036fa:    2006        .       MOVS     r0,#6
        0x080036fc:    f7fffbde    ....    BL       SPI_SwapByte ; 0x8002ebc
        0x08003700:    f7fffbd6    ....    BL       SPI_Stop ; 0x8002eb0
        0x08003704:    bd10        ..      POP      {r4,pc}
        0x08003706:    0000        ..      MOVS     r0,r0
    i.W25Q64_WritePage
    W25Q64_WritePage
        0x08003708:    b570        p.      PUSH     {r4-r6,lr}
        0x0800370a:    4604        .F      MOV      r4,r0
        0x0800370c:    460d        .F      MOV      r5,r1
        0x0800370e:    4616        .F      MOV      r6,r2
        0x08003710:    f5b67f80    ....    CMP      r6,#0x100
        0x08003714:    d800        ..      BHI      0x8003718 ; W25Q64_WritePage + 16
        0x08003716:    b93d        =.      CBNZ     r5,0x8003728 ; W25Q64_WritePage + 32
        0x08003718:    bf00        ..      NOP      
        0x0800371a:    2266        f"      MOVS     r2,#0x66
        0x0800371c:    a112        ..      ADR      r1,{pc}+0x4c ; 0x8003768
        0x0800371e:    a017        ..      ADR      r0,{pc}+0x5e ; 0x800377c
        0x08003720:    f7fdffbe    ....    BL       CMD_USART_Printf ; 0x80016a0
        0x08003724:    bf00        ..      NOP      
        0x08003726:    bd70        p.      POP      {r4-r6,pc}
        0x08003728:    2064        d       MOVS     r0,#0x64
        0x0800372a:    f7ffffa9    ....    BL       W25Q64_WaitNotBusy ; 0x8003680
        0x0800372e:    f7ffffe1    ....    BL       W25Q64_WriteEnable ; 0x80036f4
        0x08003732:    f7fffbb8    ....    BL       SPI_Start ; 0x8002ea6
        0x08003736:    2002        .       MOVS     r0,#2
        0x08003738:    f7fffbc0    ....    BL       SPI_SwapByte ; 0x8002ebc
        0x0800373c:    f3c44007    ...@    UBFX     r0,r4,#16,#8
        0x08003740:    f7fffbbc    ....    BL       SPI_SwapByte ; 0x8002ebc
        0x08003744:    f3c42007    ...     UBFX     r0,r4,#8,#8
        0x08003748:    f7fffbb8    ....    BL       SPI_SwapByte ; 0x8002ebc
        0x0800374c:    b2e0        ..      UXTB     r0,r4
        0x0800374e:    f7fffbb5    ....    BL       SPI_SwapByte ; 0x8002ebc
        0x08003752:    4631        1F      MOV      r1,r6
        0x08003754:    4628        (F      MOV      r0,r5
        0x08003756:    f7fffbd9    ....    BL       SPI_Write ; 0x8002f0c
        0x0800375a:    f7fffba9    ....    BL       SPI_Stop ; 0x8002eb0
        0x0800375e:    2064        d       MOVS     r0,#0x64
        0x08003760:    f7ffff8e    ....    BL       W25Q64_WaitNotBusy ; 0x8003680
        0x08003764:    bf00        ..      NOP      
        0x08003766:    e7de        ..      B        0x8003726 ; W25Q64_WritePage + 30
    $d
        0x08003768:    64726148    Hard    DCD    1685217608
        0x0800376c:    65726177    ware    DCD    1701994871
        0x08003770:    3532575c    \W25    DCD    892491612
        0x08003774:    2e343651    Q64.    DCD    775173713
        0x08003778:    00000063    c...    DCD    99
        0x0800377c:    3a73255b    [%s:    DCD    980624731
        0x08003780:    205d6425    %d]     DCD    542991397
        0x08003784:    74697277    writ    DCD    1953067639
        0x08003788:    61702065    e pa    DCD    1634738277
        0x0800378c:    77206567    ge w    DCD    1998611815
        0x08003790:    676e6f72    rong    DCD    1735290738
        0x08003794:    7562203a    : bu    DCD    1969365050
        0x08003798:    72656666    ffer    DCD    1919247974
        0x0800379c:    20736920     is     DCD    544434464
        0x080037a0:    206f6f74    too     DCD    544173940
        0x080037a4:    0d676962    big.    DCD    224880994
        0x080037a8:    0000000a    ....    DCD    10
    $t
    i.WaitForInput
    WaitForInput
        0x080037ac:    b570        p.      PUSH     {r4-r6,lr}
        0x080037ae:    4604        .F      MOV      r4,r0
        0x080037b0:    460d        .F      MOV      r5,r1
        0x080037b2:    bf00        ..      NOP      
        0x080037b4:    4805        .H      LDR      r0,[pc,#20] ; [0x80037cc] = 0x20000028
        0x080037b6:    f000fe07    ....    BL       is_FCBList_Empty ; 0x80043c8
        0x080037ba:    2800        .(      CMP      r0,#0
        0x080037bc:    d1fa        ..      BNE      0x80037b4 ; WaitForInput + 8
        0x080037be:    462a        *F      MOV      r2,r5
        0x080037c0:    4621        !F      MOV      r1,r4
        0x080037c2:    4802        .H      LDR      r0,[pc,#8] ; [0x80037cc] = 0x20000028
        0x080037c4:    f7ffface    ....    BL       RingBuffer_ReadFrame ; 0x8002d64
        0x080037c8:    bd70        p.      POP      {r4-r6,pc}
    $d
        0x080037ca:    0000        ..      DCW    0
        0x080037cc:    20000028    (..     DCD    536870952
    $t
    i.Write_RingBuffer
    Write_RingBuffer
        0x080037d0:    b5f0        ..      PUSH     {r4-r7,lr}
        0x080037d2:    4603        .F      MOV      r3,r0
        0x080037d4:    460e        .F      MOV      r6,r1
        0x080037d6:    4614        .F      MOV      r4,r2
        0x080037d8:    b123        #.      CBZ      r3,0x80037e4 ; Write_RingBuffer + 20
        0x080037da:    b11b        ..      CBZ      r3,0x80037e4 ; Write_RingBuffer + 20
        0x080037dc:    4618        .F      MOV      r0,r3
        0x080037de:    f000fe03    ....    BL       is_RingBuffer_Full ; 0x80043e8
        0x080037e2:    b108        ..      CBZ      r0,0x80037e8 ; Write_RingBuffer + 24
        0x080037e4:    2000        .       MOVS     r0,#0
        0x080037e6:    bdf0        ..      POP      {r4-r7,pc}
        0x080037e8:    f8b31404    ....    LDRH     r1,[r3,#0x404]
        0x080037ec:    f8d30400    ....    LDR      r0,[r3,#0x400]
        0x080037f0:    1a40        @.      SUBS     r0,r0,r1
        0x080037f2:    42a0        .B      CMP      r0,r4
        0x080037f4:    d201        ..      BCS      0x80037fa ; Write_RingBuffer + 42
        0x080037f6:    2000        .       MOVS     r0,#0
        0x080037f8:    e7f5        ..      B        0x80037e6 ; Write_RingBuffer + 22
        0x080037fa:    f8b35408    ...T    LDRH     r5,[r3,#0x408]
        0x080037fe:    2000        .       MOVS     r0,#0
        0x08003800:    e009        ..      B        0x8003816 ; Write_RingBuffer + 70
        0x08003802:    5c31        1\      LDRB     r1,[r6,r0]
        0x08003804:    5559        YU      STRB     r1,[r3,r5]
        0x08003806:    1c69        i.      ADDS     r1,r5,#1
        0x08003808:    f8d32400    ...$    LDR      r2,[r3,#0x400]
        0x0800380c:    fbb1f7f2    ....    UDIV     r7,r1,r2
        0x08003810:    fb021517    ....    MLS      r5,r2,r7,r1
        0x08003814:    1c40        @.      ADDS     r0,r0,#1
        0x08003816:    42a0        .B      CMP      r0,r4
        0x08003818:    d3f3        ..      BCC      0x8003802 ; Write_RingBuffer + 50
        0x0800381a:    f8b30404    ....    LDRH     r0,[r3,#0x404]
        0x0800381e:    4420         D      ADD      r0,r0,r4
        0x08003820:    f8a30404    ....    STRH     r0,[r3,#0x404]
        0x08003824:    f8a35408    ...T    STRH     r5,[r3,#0x408]
        0x08003828:    2001        .       MOVS     r0,#1
        0x0800382a:    e7dc        ..      B        0x80037e6 ; Write_RingBuffer + 22
    i.Xmodem_CheckCRC
    Xmodem_CheckCRC
        0x0800382c:    b570        p.      PUSH     {r4-r6,lr}
        0x0800382e:    4605        .F      MOV      r5,r0
        0x08003830:    460c        .F      MOV      r4,r1
        0x08003832:    2180        .!      MOVS     r1,#0x80
        0x08003834:    4628        (F      MOV      r0,r5
        0x08003836:    f000f81f    ....    BL       Xmodem_GetCRC16_Buf ; 0x8003878
        0x0800383a:    42a0        .B      CMP      r0,r4
        0x0800383c:    d101        ..      BNE      0x8003842 ; Xmodem_CheckCRC + 22
        0x0800383e:    2001        .       MOVS     r0,#1
        0x08003840:    bd70        p.      POP      {r4-r6,pc}
        0x08003842:    2000        .       MOVS     r0,#0
        0x08003844:    e7fc        ..      B        0x8003840 ; Xmodem_CheckCRC + 20
        0x08003846:    0000        ..      MOVS     r0,r0
    i.Xmodem_CheckNum
    Xmodem_CheckNum
        0x08003848:    4602        .F      MOV      r2,r0
        0x0800384a:    ea020001    ....    AND      r0,r2,r1
        0x0800384e:    b108        ..      CBZ      r0,0x8003854 ; Xmodem_CheckNum + 12
        0x08003850:    201b        .       MOVS     r0,#0x1b
        0x08003852:    4770        pG      BX       lr
        0x08003854:    4807        .H      LDR      r0,[pc,#28] ; [0x8003874] = 0x20000514
        0x08003856:    f8d00400    ....    LDR      r0,[r0,#0x400]
        0x0800385a:    4290        .B      CMP      r0,r2
        0x0800385c:    d201        ..      BCS      0x8003862 ; Xmodem_CheckNum + 26
        0x0800385e:    201c        .       MOVS     r0,#0x1c
        0x08003860:    e7f7        ..      B        0x8003852 ; Xmodem_CheckNum + 10
        0x08003862:    4804        .H      LDR      r0,[pc,#16] ; [0x8003874] = 0x20000514
        0x08003864:    f8d00400    ....    LDR      r0,[r0,#0x400]
        0x08003868:    4290        .B      CMP      r0,r2
        0x0800386a:    d901        ..      BLS      0x8003870 ; Xmodem_CheckNum + 40
        0x0800386c:    201d        .       MOVS     r0,#0x1d
        0x0800386e:    e7f0        ..      B        0x8003852 ; Xmodem_CheckNum + 10
        0x08003870:    201e        .       MOVS     r0,#0x1e
        0x08003872:    e7ee        ..      B        0x8003852 ; Xmodem_CheckNum + 10
    $d
        0x08003874:    20000514    ...     DCD    536872212
    $t
    i.Xmodem_GetCRC16_Buf
    Xmodem_GetCRC16_Buf
        0x08003878:    b530        0.      PUSH     {r4,r5,lr}
        0x0800387a:    4602        .F      MOV      r2,r0
        0x0800387c:    460b        .F      MOV      r3,r1
        0x0800387e:    2000        .       MOVS     r0,#0
        0x08003880:    2100        .!      MOVS     r1,#0
        0x08003882:    e018        ..      B        0x80038b6 ; Xmodem_GetCRC16_Buf + 62
        0x08003884:    5c54        T\      LDRB     r4,[r2,r1]
        0x08003886:    ea802004    ...     EOR      r0,r0,r4,LSL #8
        0x0800388a:    2400        .$      MOVS     r4,#0
        0x0800388c:    e010        ..      B        0x80038b0 ; Xmodem_GetCRC16_Buf + 56
        0x0800388e:    f4004500    ...E    AND      r5,r0,#0x8000
        0x08003892:    b925        %.      CBNZ     r5,0x800389e ; Xmodem_GetCRC16_Buf + 38
        0x08003894:    f64f75ff    O..u    MOV      r5,#0xffff
        0x08003898:    ea050040    ..@.    AND      r0,r5,r0,LSL #1
        0x0800389c:    e006        ..      B        0x80038ac ; Xmodem_GetCRC16_Buf + 52
        0x0800389e:    f64f75ff    O..u    MOV      r5,#0xffff
        0x080038a2:    ea050040    ..@.    AND      r0,r5,r0,LSL #1
        0x080038a6:    f2410521    A.!.    MOV      r5,#0x1021
        0x080038aa:    4068        h@      EORS     r0,r0,r5
        0x080038ac:    1c65        e.      ADDS     r5,r4,#1
        0x080038ae:    b2ec        ..      UXTB     r4,r5
        0x080038b0:    2c08        .,      CMP      r4,#8
        0x080038b2:    dbec        ..      BLT      0x800388e ; Xmodem_GetCRC16_Buf + 22
        0x080038b4:    1c49        I.      ADDS     r1,r1,#1
        0x080038b6:    4299        .B      CMP      r1,r3
        0x080038b8:    d3e4        ..      BCC      0x8003884 ; Xmodem_GetCRC16_Buf + 12
        0x080038ba:    bd30        0.      POP      {r4,r5,pc}
    i.Xmodem_RecvData_1K
    Xmodem_RecvData_1K
        0x080038bc:    e92d41f0    -..A    PUSH     {r4-r8,lr}
        0x080038c0:    b0a0        ..      SUB      sp,sp,#0x80
        0x080038c2:    2180        .!      MOVS     r1,#0x80
        0x080038c4:    4668        hF      MOV      r0,sp
        0x080038c6:    f7fcfc56    ..V.    BL       __aeabi_memclr ; 0x8000176
        0x080038ca:    2400        .$      MOVS     r4,#0
        0x080038cc:    e008        ..      B        0x80038e0 ; Xmodem_RecvData_1K + 36
        0x080038ce:    bf00        ..      NOP      
        0x080038d0:    2043        C       MOVS     r0,#0x43
        0x080038d2:    f7fdfef9    ....    BL       CMD_USART_SendByte ; 0x80016c8
        0x080038d6:    bf00        ..      NOP      
        0x080038d8:    f44f70fa    O..p    MOV      r0,#0x1f4
        0x080038dc:    f7fdff2a    ..*.    BL       Delay_ms ; 0x8001734
        0x080038e0:    4822        "H      LDR      r0,[pc,#136] ; [0x800396c] = 0x20000028
        0x080038e2:    f000fd71    ..q.    BL       is_FCBList_Empty ; 0x80043c8
        0x080038e6:    2800        .(      CMP      r0,#0
        0x080038e8:    d1f1        ..      BNE      0x80038ce ; Xmodem_RecvData_1K + 18
        0x080038ea:    f44f6180    O..a    MOV      r1,#0x400
        0x080038ee:    4820         H      LDR      r0,[pc,#128] ; [0x8003970] = 0x20000514
        0x080038f0:    f7fcfc41    ..A.    BL       __aeabi_memclr ; 0x8000176
        0x080038f4:    2608        .&      MOVS     r6,#8
        0x080038f6:    2500        .%      MOVS     r5,#0
        0x080038f8:    e034        4.      B        0x8003964 ; Xmodem_RecvData_1K + 168
        0x080038fa:    2180        .!      MOVS     r1,#0x80
        0x080038fc:    4668        hF      MOV      r0,sp
        0x080038fe:    f7fcfc3a    ..:.    BL       __aeabi_memclr ; 0x8000176
        0x08003902:    4668        hF      MOV      r0,sp
        0x08003904:    f000f836    ..6.    BL       Xmodem_RecvPacket ; 0x8003974
        0x08003908:    4604        .F      MOV      r4,r0
        0x0800390a:    2c19        .,      CMP      r4,#0x19
        0x0800390c:    d005        ..      BEQ      0x800391a ; Xmodem_RecvData_1K + 94
        0x0800390e:    2c1b        .,      CMP      r4,#0x1b
        0x08003910:    d003        ..      BEQ      0x800391a ; Xmodem_RecvData_1K + 94
        0x08003912:    2c1d        .,      CMP      r4,#0x1d
        0x08003914:    d001        ..      BEQ      0x800391a ; Xmodem_RecvData_1K + 94
        0x08003916:    2c1f        .,      CMP      r4,#0x1f
        0x08003918:    d101        ..      BNE      0x800391e ; Xmodem_RecvData_1K + 98
        0x0800391a:    2001        .       MOVS     r0,#1
        0x0800391c:    e000        ..      B        0x8003920 ; Xmodem_RecvData_1K + 100
        0x0800391e:    2000        .       MOVS     r0,#0
        0x08003920:    4607        .F      MOV      r7,r0
        0x08003922:    b117        ..      CBZ      r7,0x800392a ; Xmodem_RecvData_1K + 110
        0x08003924:    1e68        h.      SUBS     r0,r5,#1
        0x08003926:    b2c5        ..      UXTB     r5,r0
        0x08003928:    e01a        ..      B        0x8003960 ; Xmodem_RecvData_1K + 164
        0x0800392a:    2c1a        .,      CMP      r4,#0x1a
        0x0800392c:    d103        ..      BNE      0x8003936 ; Xmodem_RecvData_1K + 122
        0x0800392e:    4620         F      MOV      r0,r4
        0x08003930:    b020         .      ADD      sp,sp,#0x80
        0x08003932:    e8bd81f0    ....    POP      {r4-r8,pc}
        0x08003936:    2c1c        .,      CMP      r4,#0x1c
        0x08003938:    d101        ..      BNE      0x800393e ; Xmodem_RecvData_1K + 130
        0x0800393a:    4620         F      MOV      r0,r4
        0x0800393c:    e7f8        ..      B        0x8003930 ; Xmodem_RecvData_1K + 116
        0x0800393e:    2c20         ,      CMP      r4,#0x20
        0x08003940:    d10d        ..      BNE      0x800395e ; Xmodem_RecvData_1K + 162
        0x08003942:    480b        .H      LDR      r0,[pc,#44] ; [0x8003970] = 0x20000514
        0x08003944:    eb0018c5    ....    ADD      r8,r0,r5,LSL #7
        0x08003948:    2280        ."      MOVS     r2,#0x80
        0x0800394a:    4669        iF      MOV      r1,sp
        0x0800394c:    4640        @F      MOV      r0,r8
        0x0800394e:    f7fcfbf9    ....    BL       __aeabi_memcpy ; 0x8000144
        0x08003952:    bf00        ..      NOP      
        0x08003954:    2006        .       MOVS     r0,#6
        0x08003956:    f7fdfeb7    ....    BL       CMD_USART_SendByte ; 0x80016c8
        0x0800395a:    bf00        ..      NOP      
        0x0800395c:    bf00        ..      NOP      
        0x0800395e:    bf00        ..      NOP      
        0x08003960:    1c68        h.      ADDS     r0,r5,#1
        0x08003962:    b2c5        ..      UXTB     r5,r0
        0x08003964:    42b5        .B      CMP      r5,r6
        0x08003966:    dbc8        ..      BLT      0x80038fa ; Xmodem_RecvData_1K + 62
        0x08003968:    2020                MOVS     r0,#0x20
        0x0800396a:    e7e1        ..      B        0x8003930 ; Xmodem_RecvData_1K + 116
    $d
        0x0800396c:    20000028    (..     DCD    536870952
        0x08003970:    20000514    ...     DCD    536872212
    $t
    i.Xmodem_RecvPacket
    Xmodem_RecvPacket
        0x08003974:    e92d41f0    -..A    PUSH     {r4-r8,lr}
        0x08003978:    b0a2        ..      SUB      sp,sp,#0x88
        0x0800397a:    4680        .F      MOV      r8,r0
        0x0800397c:    2188        .!      MOVS     r1,#0x88
        0x0800397e:    4668        hF      MOV      r0,sp
        0x08003980:    f7fcfbf9    ....    BL       __aeabi_memclr ; 0x8000176
        0x08003984:    2400        .$      MOVS     r4,#0
        0x08003986:    bf00        ..      NOP      
        0x08003988:    4834        4H      LDR      r0,[pc,#208] ; [0x8003a5c] = 0x20000028
        0x0800398a:    f000fd1d    ....    BL       is_FCBList_Empty ; 0x80043c8
        0x0800398e:    2800        .(      CMP      r0,#0
        0x08003990:    d1fa        ..      BNE      0x8003988 ; Xmodem_RecvPacket + 20
        0x08003992:    2285        ."      MOVS     r2,#0x85
        0x08003994:    4669        iF      MOV      r1,sp
        0x08003996:    4831        1H      LDR      r0,[pc,#196] ; [0x8003a5c] = 0x20000028
        0x08003998:    f7fff9e4    ....    BL       RingBuffer_ReadFrame ; 0x8002d64
        0x0800399c:    f89d0000    ....    LDRB     r0,[sp,#0]
        0x080039a0:    2804        .(      CMP      r0,#4
        0x080039a2:    d108        ..      BNE      0x80039b6 ; Xmodem_RecvPacket + 66
        0x080039a4:    bf00        ..      NOP      
        0x080039a6:    2006        .       MOVS     r0,#6
        0x080039a8:    f7fdfe8e    ....    BL       CMD_USART_SendByte ; 0x80016c8
        0x080039ac:    bf00        ..      NOP      
        0x080039ae:    201a        .       MOVS     r0,#0x1a
        0x080039b0:    b022        ".      ADD      sp,sp,#0x88
        0x080039b2:    e8bd81f0    ....    POP      {r4-r8,pc}
        0x080039b6:    f89d0000    ....    LDRB     r0,[sp,#0]
        0x080039ba:    2801        .(      CMP      r0,#1
        0x080039bc:    d006        ..      BEQ      0x80039cc ; Xmodem_RecvPacket + 88
        0x080039be:    bf00        ..      NOP      
        0x080039c0:    2015        .       MOVS     r0,#0x15
        0x080039c2:    f7fdfe81    ....    BL       CMD_USART_SendByte ; 0x80016c8
        0x080039c6:    bf00        ..      NOP      
        0x080039c8:    2019        .       MOVS     r0,#0x19
        0x080039ca:    e7f1        ..      B        0x80039b0 ; Xmodem_RecvPacket + 60
        0x080039cc:    4824        $H      LDR      r0,[pc,#144] ; [0x8003a60] = 0x20000514
        0x080039ce:    f8d00400    ....    LDR      r0,[r0,#0x400]
        0x080039d2:    1c40        @.      ADDS     r0,r0,#1
        0x080039d4:    4922        "I      LDR      r1,[pc,#136] ; [0x8003a60] = 0x20000514
        0x080039d6:    f8c10400    ....    STR      r0,[r1,#0x400]
        0x080039da:    2280        ."      MOVS     r2,#0x80
        0x080039dc:    f10d0103    ....    ADD      r1,sp,#3
        0x080039e0:    4640        @F      MOV      r0,r8
        0x080039e2:    f7fcfbaf    ....    BL       __aeabi_memcpy ; 0x8000144
        0x080039e6:    f89d6001    ...`    LDRB     r6,[sp,#1]
        0x080039ea:    f89d7002    ...p    LDRB     r7,[sp,#2]
        0x080039ee:    4639        9F      MOV      r1,r7
        0x080039f0:    4630        0F      MOV      r0,r6
        0x080039f2:    f7ffff29    ..).    BL       Xmodem_CheckNum ; 0x8003848
        0x080039f6:    4604        .F      MOV      r4,r0
        0x080039f8:    2c1b        .,      CMP      r4,#0x1b
        0x080039fa:    d106        ..      BNE      0x8003a0a ; Xmodem_RecvPacket + 150
        0x080039fc:    bf00        ..      NOP      
        0x080039fe:    2015        .       MOVS     r0,#0x15
        0x08003a00:    f7fdfe62    ..b.    BL       CMD_USART_SendByte ; 0x80016c8
        0x08003a04:    bf00        ..      NOP      
        0x08003a06:    201b        .       MOVS     r0,#0x1b
        0x08003a08:    e7d2        ..      B        0x80039b0 ; Xmodem_RecvPacket + 60
        0x08003a0a:    2c1d        .,      CMP      r4,#0x1d
        0x08003a0c:    d106        ..      BNE      0x8003a1c ; Xmodem_RecvPacket + 168
        0x08003a0e:    bf00        ..      NOP      
        0x08003a10:    2006        .       MOVS     r0,#6
        0x08003a12:    f7fdfe59    ..Y.    BL       CMD_USART_SendByte ; 0x80016c8
        0x08003a16:    bf00        ..      NOP      
        0x08003a18:    201d        .       MOVS     r0,#0x1d
        0x08003a1a:    e7c9        ..      B        0x80039b0 ; Xmodem_RecvPacket + 60
        0x08003a1c:    2c1c        .,      CMP      r4,#0x1c
        0x08003a1e:    d106        ..      BNE      0x8003a2e ; Xmodem_RecvPacket + 186
        0x08003a20:    bf00        ..      NOP      
        0x08003a22:    2018        .       MOVS     r0,#0x18
        0x08003a24:    f7fdfe50    ..P.    BL       CMD_USART_SendByte ; 0x80016c8
        0x08003a28:    bf00        ..      NOP      
        0x08003a2a:    201c        .       MOVS     r0,#0x1c
        0x08003a2c:    e7c0        ..      B        0x80039b0 ; Xmodem_RecvPacket + 60
        0x08003a2e:    2500        .%      MOVS     r5,#0
        0x08003a30:    f89d0083    ....    LDRB     r0,[sp,#0x83]
        0x08003a34:    ea452500    E..%    ORR      r5,r5,r0,LSL #8
        0x08003a38:    f89d0084    ....    LDRB     r0,[sp,#0x84]
        0x08003a3c:    4305        .C      ORRS     r5,r5,r0
        0x08003a3e:    4629        )F      MOV      r1,r5
        0x08003a40:    4640        @F      MOV      r0,r8
        0x08003a42:    f7fffef3    ....    BL       Xmodem_CheckCRC ; 0x800382c
        0x08003a46:    4604        .F      MOV      r4,r0
        0x08003a48:    b934        4.      CBNZ     r4,0x8003a58 ; Xmodem_RecvPacket + 228
        0x08003a4a:    bf00        ..      NOP      
        0x08003a4c:    2015        .       MOVS     r0,#0x15
        0x08003a4e:    f7fdfe3b    ..;.    BL       CMD_USART_SendByte ; 0x80016c8
        0x08003a52:    bf00        ..      NOP      
        0x08003a54:    201f        .       MOVS     r0,#0x1f
        0x08003a56:    e7ab        ..      B        0x80039b0 ; Xmodem_RecvPacket + 60
        0x08003a58:    2020                MOVS     r0,#0x20
        0x08003a5a:    e7a9        ..      B        0x80039b0 ; Xmodem_RecvPacket + 60
    $d
        0x08003a5c:    20000028    (..     DCD    536870952
        0x08003a60:    20000514    ...     DCD    536872212
    $t
    i.__0vsnprintf
    __0vsnprintf
    __1vsnprintf
    __2vsnprintf
    __c89vsnprintf
    vsnprintf
        0x08003a64:    b57c        |.      PUSH     {r2-r6,lr}
        0x08003a66:    4604        .F      MOV      r4,r0
        0x08003a68:    2000        .       MOVS     r0,#0
        0x08003a6a:    461d        .F      MOV      r5,r3
        0x08003a6c:    4616        .F      MOV      r6,r2
        0x08003a6e:    2900        .)      CMP      r1,#0
        0x08003a70:    d00b        ..      BEQ      0x8003a8a ; __0vsnprintf + 38
        0x08003a72:    1e49        I.      SUBS     r1,r1,#1
        0x08003a74:    e9cd4100    ...A    STRD     r4,r1,[sp,#0]
        0x08003a78:    4b04        .K      LDR      r3,[pc,#16] ; [0x8003a8c] = 0x8004363
        0x08003a7a:    466a        jF      MOV      r2,sp
        0x08003a7c:    4629        )F      MOV      r1,r5
        0x08003a7e:    4630        0F      MOV      r0,r6
        0x08003a80:    f000f8d8    ....    BL       _printf_core ; 0x8003c34
        0x08003a84:    9a00        ..      LDR      r2,[sp,#0]
        0x08003a86:    2100        .!      MOVS     r1,#0
        0x08003a88:    7011        .p      STRB     r1,[r2,#0]
        0x08003a8a:    bd7c        |.      POP      {r2-r6,pc}
    $d
        0x08003a8c:    08004363    cC..    DCD    134234979
    $t
    i.__scatterload_copy
    __scatterload_copy
        0x08003a90:    e002        ..      B        0x8003a98 ; __scatterload_copy + 8
        0x08003a92:    c808        ..      LDM      r0!,{r3}
        0x08003a94:    1f12        ..      SUBS     r2,r2,#4
        0x08003a96:    c108        ..      STM      r1!,{r3}
        0x08003a98:    2a00        .*      CMP      r2,#0
        0x08003a9a:    d1fa        ..      BNE      0x8003a92 ; __scatterload_copy + 2
        0x08003a9c:    4770        pG      BX       lr
    i.__scatterload_null
    __scatterload_null
        0x08003a9e:    4770        pG      BX       lr
    i.__scatterload_zeroinit
    __scatterload_zeroinit
        0x08003aa0:    2000        .       MOVS     r0,#0
        0x08003aa2:    e001        ..      B        0x8003aa8 ; __scatterload_zeroinit + 8
        0x08003aa4:    c101        ..      STM      r1!,{r0}
        0x08003aa6:    1f12        ..      SUBS     r2,r2,#4
        0x08003aa8:    2a00        .*      CMP      r2,#0
        0x08003aaa:    d1fb        ..      BNE      0x8003aa4 ; __scatterload_zeroinit + 4
        0x08003aac:    4770        pG      BX       lr
        0x08003aae:    0000        ..      MOVS     r0,r0
    i._fp_digits
    _fp_digits
        0x08003ab0:    e92d5fff    -.._    PUSH     {r0-r12,lr}
        0x08003ab4:    b082        ..      SUB      sp,sp,#8
        0x08003ab6:    2100        .!      MOVS     r1,#0
        0x08003ab8:    e9dd3004    ...0    LDRD     r3,r0,[sp,#0x10]
        0x08003abc:    0d02        ..      LSRS     r2,r0,#20
        0x08003abe:    f8ddb040    ..@.    LDR      r11,[sp,#0x40]
        0x08003ac2:    4303        .C      ORRS     r3,r3,r0
        0x08003ac4:    d018        ..      BEQ      0x8003af8 ; _fp_digits + 72
        0x08003ac6:    f6445010    D..P    MOV      r0,#0x4d10
        0x08003aca:    f2a232ff    ...2    SUB      r2,r2,#0x3ff
        0x08003ace:    4342        BC      MULS     r2,r0,r2
        0x08003ad0:    1415        ..      ASRS     r5,r2,#16
        0x08003ad2:    9811        ..      LDR      r0,[sp,#0x44]
        0x08003ad4:    2801        .(      CMP      r0,#1
        0x08003ad6:    d01f        ..      BEQ      0x8003b18 ; _fp_digits + 104
        0x08003ad8:    eba5000b    ....    SUB      r0,r5,r11
        0x08003adc:    1c40        @.      ADDS     r0,r0,#1
        0x08003ade:    ea5f0a00    _...    MOVS     r10,r0
        0x08003ae2:    f04f0600    O...    MOV      r6,#0
        0x08003ae6:    4f4e        NO      LDR      r7,[pc,#312] ; [0x8003c20] = 0x40140000
        0x08003ae8:    f8df9138    ..8.    LDR      r9,[pc,#312] ; [0x8003c24] = 0x3ff00000
        0x08003aec:    46b0        .F      MOV      r8,r6
        0x08003aee:    4650        PF      MOV      r0,r10
        0x08003af0:    d515        ..      BPL      0x8003b1e ; _fp_digits + 110
        0x08003af2:    f1ca0400    ....    RSB      r4,r10,#0
        0x08003af6:    e013        ..      B        0x8003b20 ; _fp_digits + 112
        0x08003af8:    9811        ..      LDR      r0,[sp,#0x44]
        0x08003afa:    2401        .$      MOVS     r4,#1
        0x08003afc:    a34a        J.      ADR      r3,{pc}+0x12c ; 0x8003c28
        0x08003afe:    2801        .(      CMP      r0,#1
        0x08003b00:    d101        ..      BNE      0x8003b06 ; _fp_digits + 86
        0x08003b02:    ea6f010b    o...    MVN      r1,r11
        0x08003b06:    9802        ..      LDR      r0,[sp,#8]
        0x08003b08:    9a11        ..      LDR      r2,[sp,#0x44]
        0x08003b0a:    e9c03100    ...1    STRD     r3,r1,[r0,#0]
        0x08003b0e:    e9c04202    ...B    STRD     r4,r2,[r0,#8]
        0x08003b12:    b006        ..      ADD      sp,sp,#0x18
        0x08003b14:    e8bd9ff0    ....    POP      {r4-r12,pc}
        0x08003b18:    f1cb0000    ....    RSB      r0,r11,#0
        0x08003b1c:    e7df        ..      B        0x8003ade ; _fp_digits + 46
        0x08003b1e:    4604        .F      MOV      r4,r0
        0x08003b20:    2100        .!      MOVS     r1,#0
        0x08003b22:    4a40        @J      LDR      r2,[pc,#256] ; [0x8003c24] = 0x3ff00000
        0x08003b24:    1849        I.      ADDS     r1,r1,r1
        0x08003b26:    eb425004    B..P    ADC      r0,r2,r4,LSL #20
        0x08003b2a:    e9cd1000    ....    STRD     r1,r0,[sp,#0]
        0x08003b2e:    e012        ..      B        0x8003b56 ; _fp_digits + 166
        0x08003b30:    07e0        ..      LSLS     r0,r4,#31
        0x08003b32:    d007        ..      BEQ      0x8003b44 ; _fp_digits + 148
        0x08003b34:    4632        2F      MOV      r2,r6
        0x08003b36:    463b        ;F      MOV      r3,r7
        0x08003b38:    4640        @F      MOV      r0,r8
        0x08003b3a:    4649        IF      MOV      r1,r9
        0x08003b3c:    f7fcfd21    ..!.    BL       __aeabi_dmul ; 0x8000582
        0x08003b40:    4680        .F      MOV      r8,r0
        0x08003b42:    4689        .F      MOV      r9,r1
        0x08003b44:    4632        2F      MOV      r2,r6
        0x08003b46:    463b        ;F      MOV      r3,r7
        0x08003b48:    4610        .F      MOV      r0,r2
        0x08003b4a:    4619        .F      MOV      r1,r3
        0x08003b4c:    f7fcfd19    ....    BL       __aeabi_dmul ; 0x8000582
        0x08003b50:    4606        .F      MOV      r6,r0
        0x08003b52:    460f        .F      MOV      r7,r1
        0x08003b54:    1064        d.      ASRS     r4,r4,#1
        0x08003b56:    2c00        .,      CMP      r4,#0
        0x08003b58:    d1ea        ..      BNE      0x8003b30 ; _fp_digits + 128
        0x08003b5a:    e9dd0104    ....    LDRD     r0,r1,[sp,#0x10]
        0x08003b5e:    e9dd2300    ...#    LDRD     r2,r3,[sp,#0]
        0x08003b62:    f1ba0f00    ....    CMP      r10,#0
        0x08003b66:    da06        ..      BGE      0x8003b76 ; _fp_digits + 198
        0x08003b68:    f7fcfd0b    ....    BL       __aeabi_dmul ; 0x8000582
        0x08003b6c:    4642        BF      MOV      r2,r8
        0x08003b6e:    464b        KF      MOV      r3,r9
        0x08003b70:    f7fcfd07    ....    BL       __aeabi_dmul ; 0x8000582
        0x08003b74:    e005        ..      B        0x8003b82 ; _fp_digits + 210
        0x08003b76:    f7fcfd76    ..v.    BL       __aeabi_ddiv ; 0x8000666
        0x08003b7a:    4642        BF      MOV      r2,r8
        0x08003b7c:    464b        KF      MOV      r3,r9
        0x08003b7e:    f7fcfd72    ..r.    BL       __aeabi_ddiv ; 0x8000666
        0x08003b82:    4604        .F      MOV      r4,r0
        0x08003b84:    460e        .F      MOV      r6,r1
        0x08003b86:    2200        ."      MOVS     r2,#0
        0x08003b88:    4b28        (K      LDR      r3,[pc,#160] ; [0x8003c2c] = 0x43f00000
        0x08003b8a:    f7fcfdf3    ....    BL       __aeabi_cdrcmple ; 0x8000774
        0x08003b8e:    d803        ..      BHI      0x8003b98 ; _fp_digits + 232
        0x08003b90:    f04f30ff    O..0    MOV      r0,#0xffffffff
        0x08003b94:    4601        .F      MOV      r1,r0
        0x08003b96:    e007        ..      B        0x8003ba8 ; _fp_digits + 248
        0x08003b98:    2200        ."      MOVS     r2,#0
        0x08003b9a:    4b25        %K      LDR      r3,[pc,#148] ; [0x8003c30] = 0x3fe00000
        0x08003b9c:    4620         F      MOV      r0,r4
        0x08003b9e:    4631        1F      MOV      r1,r6
        0x08003ba0:    f7fcfc48    ..H.    BL       __I$use$fp ; 0x8000434
        0x08003ba4:    f7fcfdce    ....    BL       __aeabi_d2ulz ; 0x8000744
        0x08003ba8:    2410        .$      MOVS     r4,#0x10
        0x08003baa:    e009        ..      B        0x8003bc0 ; _fp_digits + 272
        0x08003bac:    2c00        .,      CMP      r4,#0
        0x08003bae:    db0a        ..      BLT      0x8003bc6 ; _fp_digits + 278
        0x08003bb0:    220a        ."      MOVS     r2,#0xa
        0x08003bb2:    2300        .#      MOVS     r3,#0
        0x08003bb4:    f7fcfbca    ....    BL       __aeabi_uldivmod ; 0x800034c
        0x08003bb8:    9b03        ..      LDR      r3,[sp,#0xc]
        0x08003bba:    3230        02      ADDS     r2,r2,#0x30
        0x08003bbc:    551a        .U      STRB     r2,[r3,r4]
        0x08003bbe:    1e64        d.      SUBS     r4,r4,#1
        0x08003bc0:    ea500201    P...    ORRS     r2,r0,r1
        0x08003bc4:    d1f2        ..      BNE      0x8003bac ; _fp_digits + 252
        0x08003bc6:    1c64        d.      ADDS     r4,r4,#1
        0x08003bc8:    9a03        ..      LDR      r2,[sp,#0xc]
        0x08003bca:    f1c40311    ....    RSB      r3,r4,#0x11
        0x08003bce:    4414        .D      ADD      r4,r4,r2
        0x08003bd0:    9a11        ..      LDR      r2,[sp,#0x44]
        0x08003bd2:    2a01        .*      CMP      r2,#1
        0x08003bd4:    d003        ..      BEQ      0x8003bde ; _fp_digits + 302
        0x08003bd6:    2201        ."      MOVS     r2,#1
        0x08003bd8:    4308        .C      ORRS     r0,r0,r1
        0x08003bda:    d10d        ..      BNE      0x8003bf8 ; _fp_digits + 328
        0x08003bdc:    e00a        ..      B        0x8003bf4 ; _fp_digits + 324
        0x08003bde:    4308        .C      ORRS     r0,r0,r1
        0x08003be0:    d004        ..      BEQ      0x8003bec ; _fp_digits + 316
        0x08003be2:    2000        .       MOVS     r0,#0
        0x08003be4:    f04f0b11    O...    MOV      r11,#0x11
        0x08003be8:    9011        ..      STR      r0,[sp,#0x44]
        0x08003bea:    e772        r.      B        0x8003ad2 ; _fp_digits + 34
        0x08003bec:    eba3050b    ....    SUB      r5,r3,r11
        0x08003bf0:    1e6d        m.      SUBS     r5,r5,#1
        0x08003bf2:    e00d        ..      B        0x8003c10 ; _fp_digits + 352
        0x08003bf4:    455b        [E      CMP      r3,r11
        0x08003bf6:    dd04        ..      BLE      0x8003c02 ; _fp_digits + 338
        0x08003bf8:    f04f0200    O...    MOV      r2,#0
        0x08003bfc:    f1050501    ....    ADD      r5,r5,#1
        0x08003c00:    e004        ..      B        0x8003c0c ; _fp_digits + 348
        0x08003c02:    da03        ..      BGE      0x8003c0c ; _fp_digits + 348
        0x08003c04:    f04f0200    O...    MOV      r2,#0
        0x08003c08:    f1a50501    ....    SUB      r5,r5,#1
        0x08003c0c:    2a00        .*      CMP      r2,#0
        0x08003c0e:    d0ec        ..      BEQ      0x8003bea ; _fp_digits + 314
        0x08003c10:    9802        ..      LDR      r0,[sp,#8]
        0x08003c12:    9911        ..      LDR      r1,[sp,#0x44]
        0x08003c14:    e9c03102    ...1    STRD     r3,r1,[r0,#8]
        0x08003c18:    e9c04500    ...E    STRD     r4,r5,[r0,#0]
        0x08003c1c:    e779        y.      B        0x8003b12 ; _fp_digits + 98
    $d
        0x08003c1e:    0000        ..      DCW    0
        0x08003c20:    40140000    ...@    DCD    1075052544
        0x08003c24:    3ff00000    ...?    DCD    1072693248
        0x08003c28:    00000030    0...    DCD    48
        0x08003c2c:    43f00000    ...C    DCD    1139802112
        0x08003c30:    3fe00000    ...?    DCD    1071644672
    $t
    i._printf_core
    _printf_core
        0x08003c34:    e92d4fff    -..O    PUSH     {r0-r11,lr}
        0x08003c38:    b095        ..      SUB      sp,sp,#0x54
        0x08003c3a:    469b        .F      MOV      r11,r3
        0x08003c3c:    4689        .F      MOV      r9,r1
        0x08003c3e:    4606        .F      MOV      r6,r0
        0x08003c40:    2500        .%      MOVS     r5,#0
        0x08003c42:    e20f        ..      B        0x8004064 ; _printf_core + 1072
        0x08003c44:    2825        %(      CMP      r0,#0x25
        0x08003c46:    d177        w.      BNE      0x8003d38 ; _printf_core + 260
        0x08003c48:    2400        .$      MOVS     r4,#0
        0x08003c4a:    4627        'F      MOV      r7,r4
        0x08003c4c:    4af8        .J      LDR      r2,[pc,#992] ; [0x8004030] = 0x12809
        0x08003c4e:    2101        .!      MOVS     r1,#1
        0x08003c50:    9405        ..      STR      r4,[sp,#0x14]
        0x08003c52:    e000        ..      B        0x8003c56 ; _printf_core + 34
        0x08003c54:    4304        .C      ORRS     r4,r4,r0
        0x08003c56:    f8163f01    ...?    LDRB     r3,[r6,#1]!
        0x08003c5a:    3b20         ;      SUBS     r3,r3,#0x20
        0x08003c5c:    fa01f003    ....    LSL      r0,r1,r3
        0x08003c60:    4210        .B      TST      r0,r2
        0x08003c62:    d1f7        ..      BNE      0x8003c54 ; _printf_core + 32
        0x08003c64:    7830        0x      LDRB     r0,[r6,#0]
        0x08003c66:    282a        *(      CMP      r0,#0x2a
        0x08003c68:    d011        ..      BEQ      0x8003c8e ; _printf_core + 90
        0x08003c6a:    f06f032f    o./.    MVN      r3,#0x2f
        0x08003c6e:    7830        0x      LDRB     r0,[r6,#0]
        0x08003c70:    f1a00230    ..0.    SUB      r2,r0,#0x30
        0x08003c74:    2a09        .*      CMP      r2,#9
        0x08003c76:    d816        ..      BHI      0x8003ca6 ; _printf_core + 114
        0x08003c78:    9a05        ..      LDR      r2,[sp,#0x14]
        0x08003c7a:    f0440402    D...    ORR      r4,r4,#2
        0x08003c7e:    eb020282    ....    ADD      r2,r2,r2,LSL #2
        0x08003c82:    eb030242    ..B.    ADD      r2,r3,r2,LSL #1
        0x08003c86:    4410        .D      ADD      r0,r0,r2
        0x08003c88:    1c76        v.      ADDS     r6,r6,#1
        0x08003c8a:    9005        ..      STR      r0,[sp,#0x14]
        0x08003c8c:    e7ef        ..      B        0x8003c6e ; _printf_core + 58
        0x08003c8e:    f8592b04    Y..+    LDR      r2,[r9],#4
        0x08003c92:    9205        ..      STR      r2,[sp,#0x14]
        0x08003c94:    2a00        .*      CMP      r2,#0
        0x08003c96:    da03        ..      BGE      0x8003ca0 ; _printf_core + 108
        0x08003c98:    4250        PB      RSBS     r0,r2,#0
        0x08003c9a:    f4445400    D..T    ORR      r4,r4,#0x2000
        0x08003c9e:    9005        ..      STR      r0,[sp,#0x14]
        0x08003ca0:    f0440402    D...    ORR      r4,r4,#2
        0x08003ca4:    1c76        v.      ADDS     r6,r6,#1
        0x08003ca6:    7830        0x      LDRB     r0,[r6,#0]
        0x08003ca8:    282e        .(      CMP      r0,#0x2e
        0x08003caa:    d116        ..      BNE      0x8003cda ; _printf_core + 166
        0x08003cac:    f8160f01    ....    LDRB     r0,[r6,#1]!
        0x08003cb0:    f0440404    D...    ORR      r4,r4,#4
        0x08003cb4:    282a        *(      CMP      r0,#0x2a
        0x08003cb6:    d00d        ..      BEQ      0x8003cd4 ; _printf_core + 160
        0x08003cb8:    f06f022f    o./.    MVN      r2,#0x2f
        0x08003cbc:    7830        0x      LDRB     r0,[r6,#0]
        0x08003cbe:    f1a00330    ..0.    SUB      r3,r0,#0x30
        0x08003cc2:    2b09        .+      CMP      r3,#9
        0x08003cc4:    d809        ..      BHI      0x8003cda ; _printf_core + 166
        0x08003cc6:    eb070387    ....    ADD      r3,r7,r7,LSL #2
        0x08003cca:    eb020343    ..C.    ADD      r3,r2,r3,LSL #1
        0x08003cce:    18c7        ..      ADDS     r7,r0,r3
        0x08003cd0:    1c76        v.      ADDS     r6,r6,#1
        0x08003cd2:    e7f3        ..      B        0x8003cbc ; _printf_core + 136
        0x08003cd4:    f8597b04    Y..{    LDR      r7,[r9],#4
        0x08003cd8:    1c76        v.      ADDS     r6,r6,#1
        0x08003cda:    7830        0x      LDRB     r0,[r6,#0]
        0x08003cdc:    286c        l(      CMP      r0,#0x6c
        0x08003cde:    d00f        ..      BEQ      0x8003d00 ; _printf_core + 204
        0x08003ce0:    dc06        ..      BGT      0x8003cf0 ; _printf_core + 188
        0x08003ce2:    284c        L(      CMP      r0,#0x4c
        0x08003ce4:    d017        ..      BEQ      0x8003d16 ; _printf_core + 226
        0x08003ce6:    2868        h(      CMP      r0,#0x68
        0x08003ce8:    d00d        ..      BEQ      0x8003d06 ; _printf_core + 210
        0x08003cea:    286a        j(      CMP      r0,#0x6a
        0x08003cec:    d114        ..      BNE      0x8003d18 ; _printf_core + 228
        0x08003cee:    e004        ..      B        0x8003cfa ; _printf_core + 198
        0x08003cf0:    2874        t(      CMP      r0,#0x74
        0x08003cf2:    d010        ..      BEQ      0x8003d16 ; _printf_core + 226
        0x08003cf4:    287a        z(      CMP      r0,#0x7a
        0x08003cf6:    d10f        ..      BNE      0x8003d18 ; _printf_core + 228
        0x08003cf8:    e00d        ..      B        0x8003d16 ; _printf_core + 226
        0x08003cfa:    f4441400    D...    ORR      r4,r4,#0x200000
        0x08003cfe:    e00a        ..      B        0x8003d16 ; _printf_core + 226
        0x08003d00:    f4441480    D...    ORR      r4,r4,#0x100000
        0x08003d04:    e001        ..      B        0x8003d0a ; _printf_core + 214
        0x08003d06:    f4441440    D.@.    ORR      r4,r4,#0x300000
        0x08003d0a:    7872        rx      LDRB     r2,[r6,#1]
        0x08003d0c:    4282        .B      CMP      r2,r0
        0x08003d0e:    d102        ..      BNE      0x8003d16 ; _printf_core + 226
        0x08003d10:    f5041480    ....    ADD      r4,r4,#0x100000
        0x08003d14:    1c76        v.      ADDS     r6,r6,#1
        0x08003d16:    1c76        v.      ADDS     r6,r6,#1
        0x08003d18:    7830        0x      LDRB     r0,[r6,#0]
        0x08003d1a:    2866        f(      CMP      r0,#0x66
        0x08003d1c:    d00b        ..      BEQ      0x8003d36 ; _printf_core + 258
        0x08003d1e:    dc13        ..      BGT      0x8003d48 ; _printf_core + 276
        0x08003d20:    2858        X(      CMP      r0,#0x58
        0x08003d22:    d077        w.      BEQ      0x8003e14 ; _printf_core + 480
        0x08003d24:    dc09        ..      BGT      0x8003d3a ; _printf_core + 262
        0x08003d26:    2800        .(      CMP      r0,#0
        0x08003d28:    d075        u.      BEQ      0x8003e16 ; _printf_core + 482
        0x08003d2a:    2845        E(      CMP      r0,#0x45
        0x08003d2c:    d0f6        ..      BEQ      0x8003d1c ; _printf_core + 232
        0x08003d2e:    2846        F(      CMP      r0,#0x46
        0x08003d30:    d0f4        ..      BEQ      0x8003d1c ; _printf_core + 232
        0x08003d32:    2847        G(      CMP      r0,#0x47
        0x08003d34:    d11a        ..      BNE      0x8003d6c ; _printf_core + 312
        0x08003d36:    e19d        ..      B        0x8004074 ; _printf_core + 1088
        0x08003d38:    e018        ..      B        0x8003d6c ; _printf_core + 312
        0x08003d3a:    2863        c(      CMP      r0,#0x63
        0x08003d3c:    d035        5.      BEQ      0x8003daa ; _printf_core + 374
        0x08003d3e:    2864        d(      CMP      r0,#0x64
        0x08003d40:    d079        y.      BEQ      0x8003e36 ; _printf_core + 514
        0x08003d42:    2865        e(      CMP      r0,#0x65
        0x08003d44:    d112        ..      BNE      0x8003d6c ; _printf_core + 312
        0x08003d46:    e195        ..      B        0x8004074 ; _printf_core + 1088
        0x08003d48:    2870        p(      CMP      r0,#0x70
        0x08003d4a:    d073        s.      BEQ      0x8003e34 ; _printf_core + 512
        0x08003d4c:    dc08        ..      BGT      0x8003d60 ; _printf_core + 300
        0x08003d4e:    2867        g(      CMP      r0,#0x67
        0x08003d50:    d0f1        ..      BEQ      0x8003d36 ; _printf_core + 258
        0x08003d52:    2869        i(      CMP      r0,#0x69
        0x08003d54:    d06f        o.      BEQ      0x8003e36 ; _printf_core + 514
        0x08003d56:    286e        n(      CMP      r0,#0x6e
        0x08003d58:    d00d        ..      BEQ      0x8003d76 ; _printf_core + 322
        0x08003d5a:    286f        o(      CMP      r0,#0x6f
        0x08003d5c:    d106        ..      BNE      0x8003d6c ; _printf_core + 312
        0x08003d5e:    e0b5        ..      B        0x8003ecc ; _printf_core + 664
        0x08003d60:    2873        s(      CMP      r0,#0x73
        0x08003d62:    d02c        ,.      BEQ      0x8003dbe ; _printf_core + 394
        0x08003d64:    2875        u(      CMP      r0,#0x75
        0x08003d66:    d075        u.      BEQ      0x8003e54 ; _printf_core + 544
        0x08003d68:    2878        x(      CMP      r0,#0x78
        0x08003d6a:    d074        t.      BEQ      0x8003e56 ; _printf_core + 546
        0x08003d6c:    465a        ZF      MOV      r2,r11
        0x08003d6e:    9917        ..      LDR      r1,[sp,#0x5c]
        0x08003d70:    4790        .G      BLX      r2
        0x08003d72:    1c6d        m.      ADDS     r5,r5,#1
        0x08003d74:    e175        u.      B        0x8004062 ; _printf_core + 1070
        0x08003d76:    f3c45002    ...P    UBFX     r0,r4,#20,#3
        0x08003d7a:    2802        .(      CMP      r0,#2
        0x08003d7c:    d009        ..      BEQ      0x8003d92 ; _printf_core + 350
        0x08003d7e:    2803        .(      CMP      r0,#3
        0x08003d80:    d00d        ..      BEQ      0x8003d9e ; _printf_core + 362
        0x08003d82:    f8d91000    ....    LDR      r1,[r9,#0]
        0x08003d86:    2804        .(      CMP      r0,#4
        0x08003d88:    d00d        ..      BEQ      0x8003da6 ; _printf_core + 370
        0x08003d8a:    600d        .`      STR      r5,[r1,#0]
        0x08003d8c:    f1090904    ....    ADD      r9,r9,#4
        0x08003d90:    e167        g.      B        0x8004062 ; _printf_core + 1070
        0x08003d92:    f8d91000    ....    LDR      r1,[r9,#0]
        0x08003d96:    17ea        ..      ASRS     r2,r5,#31
        0x08003d98:    e9c15200    ...R    STRD     r5,r2,[r1,#0]
        0x08003d9c:    e7f6        ..      B        0x8003d8c ; _printf_core + 344
        0x08003d9e:    f8d91000    ....    LDR      r1,[r9,#0]
        0x08003da2:    800d        ..      STRH     r5,[r1,#0]
        0x08003da4:    e7f2        ..      B        0x8003d8c ; _printf_core + 344
        0x08003da6:    700d        .p      STRB     r5,[r1,#0]
        0x08003da8:    e7f0        ..      B        0x8003d8c ; _printf_core + 344
        0x08003daa:    f8191b04    ....    LDRB     r1,[r9],#4
        0x08003dae:    f88d1000    ....    STRB     r1,[sp,#0]
        0x08003db2:    2000        .       MOVS     r0,#0
        0x08003db4:    f88d0001    ....    STRB     r0,[sp,#1]
        0x08003db8:    46ea        .F      MOV      r10,sp
        0x08003dba:    2001        .       MOVS     r0,#1
        0x08003dbc:    e003        ..      B        0x8003dc6 ; _printf_core + 402
        0x08003dbe:    f859ab04    Y...    LDR      r10,[r9],#4
        0x08003dc2:    f04f30ff    O..0    MOV      r0,#0xffffffff
        0x08003dc6:    0761        a.      LSLS     r1,r4,#29
        0x08003dc8:    f04f0100    O...    MOV      r1,#0
        0x08003dcc:    d402        ..      BMI      0x8003dd4 ; _printf_core + 416
        0x08003dce:    e00d        ..      B        0x8003dec ; _printf_core + 440
        0x08003dd0:    f1080101    ....    ADD      r1,r8,#1
        0x08003dd4:    4688        .F      MOV      r8,r1
        0x08003dd6:    42b9        .B      CMP      r1,r7
        0x08003dd8:    da0f        ..      BGE      0x8003dfa ; _printf_core + 454
        0x08003dda:    4580        .E      CMP      r8,r0
        0x08003ddc:    dbf8        ..      BLT      0x8003dd0 ; _printf_core + 412
        0x08003dde:    f81a1008    ....    LDRB     r1,[r10,r8]
        0x08003de2:    2900        .)      CMP      r1,#0
        0x08003de4:    d1f4        ..      BNE      0x8003dd0 ; _printf_core + 412
        0x08003de6:    e008        ..      B        0x8003dfa ; _printf_core + 454
        0x08003de8:    f1080101    ....    ADD      r1,r8,#1
        0x08003dec:    4688        .F      MOV      r8,r1
        0x08003dee:    4281        .B      CMP      r1,r0
        0x08003df0:    dbfa        ..      BLT      0x8003de8 ; _printf_core + 436
        0x08003df2:    f81a1008    ....    LDRB     r1,[r10,r8]
        0x08003df6:    2900        .)      CMP      r1,#0
        0x08003df8:    d1f6        ..      BNE      0x8003de8 ; _printf_core + 436
        0x08003dfa:    9805        ..      LDR      r0,[sp,#0x14]
        0x08003dfc:    465b        [F      MOV      r3,r11
        0x08003dfe:    eba00708    ....    SUB      r7,r0,r8
        0x08003e02:    4621        !F      MOV      r1,r4
        0x08003e04:    4638        8F      MOV      r0,r7
        0x08003e06:    9a17        ..      LDR      r2,[sp,#0x5c]
        0x08003e08:    f000fa94    ....    BL       _printf_pre_padding ; 0x8004334
        0x08003e0c:    4428        (D      ADD      r0,r0,r5
        0x08003e0e:    eb000508    ....    ADD      r5,r0,r8
        0x08003e12:    e007        ..      B        0x8003e24 ; _printf_core + 496
        0x08003e14:    e04d        M.      B        0x8003eb2 ; _printf_core + 638
        0x08003e16:    e129        ).      B        0x800406c ; _printf_core + 1080
        0x08003e18:    e00d        ..      B        0x8003e36 ; _printf_core + 514
        0x08003e1a:    f81a0b01    ....    LDRB     r0,[r10],#1
        0x08003e1e:    465a        ZF      MOV      r2,r11
        0x08003e20:    9917        ..      LDR      r1,[sp,#0x5c]
        0x08003e22:    4790        .G      BLX      r2
        0x08003e24:    f1b80801    ....    SUBS     r8,r8,#1
        0x08003e28:    d2f7        ..      BCS      0x8003e1a ; _printf_core + 486
        0x08003e2a:    465b        [F      MOV      r3,r11
        0x08003e2c:    4621        !F      MOV      r1,r4
        0x08003e2e:    4638        8F      MOV      r0,r7
        0x08003e30:    9a17        ..      LDR      r2,[sp,#0x5c]
        0x08003e32:    e113        ..      B        0x800405c ; _printf_core + 1064
        0x08003e34:    e042        B.      B        0x8003ebc ; _printf_core + 648
        0x08003e36:    220a        ."      MOVS     r2,#0xa
        0x08003e38:    9200        ..      STR      r2,[sp,#0]
        0x08003e3a:    f3c45202    ...R    UBFX     r2,r4,#20,#3
        0x08003e3e:    f04f0a00    O...    MOV      r10,#0
        0x08003e42:    2a02        .*      CMP      r2,#2
        0x08003e44:    d008        ..      BEQ      0x8003e58 ; _printf_core + 548
        0x08003e46:    f859cb04    Y...    LDR      r12,[r9],#4
        0x08003e4a:    2a03        .*      CMP      r2,#3
        0x08003e4c:    ea4f71ec    O..q    ASR      r1,r12,#31
        0x08003e50:    d00a        ..      BEQ      0x8003e68 ; _printf_core + 564
        0x08003e52:    e00d        ..      B        0x8003e70 ; _printf_core + 572
        0x08003e54:    e029        ).      B        0x8003eaa ; _printf_core + 630
        0x08003e56:    e02a        *.      B        0x8003eae ; _printf_core + 634
        0x08003e58:    f1090107    ....    ADD      r1,r9,#7
        0x08003e5c:    f0210207    !...    BIC      r2,r1,#7
        0x08003e60:    e8f2c102    ....    LDRD     r12,r1,[r2],#8
        0x08003e64:    4691        .F      MOV      r9,r2
        0x08003e66:    e009        ..      B        0x8003e7c ; _printf_core + 584
        0x08003e68:    fa0ffc8c    ....    SXTH     r12,r12
        0x08003e6c:    ea4f71ec    O..q    ASR      r1,r12,#31
        0x08003e70:    2a04        .*      CMP      r2,#4
        0x08003e72:    d103        ..      BNE      0x8003e7c ; _printf_core + 584
        0x08003e74:    fa4ffc8c    O...    SXTB     r12,r12
        0x08003e78:    ea4f71ec    O..q    ASR      r1,r12,#31
        0x08003e7c:    2900        .)      CMP      r1,#0
        0x08003e7e:    da07        ..      BGE      0x8003e90 ; _printf_core + 604
        0x08003e80:    460a        .F      MOV      r2,r1
        0x08003e82:    2100        .!      MOVS     r1,#0
        0x08003e84:    f1dc0c00    ....    RSBS     r12,r12,#0
        0x08003e88:    eb610102    a...    SBC      r1,r1,r2
        0x08003e8c:    222d        -"      MOVS     r2,#0x2d
        0x08003e8e:    e002        ..      B        0x8003e96 ; _printf_core + 610
        0x08003e90:    0522        ".      LSLS     r2,r4,#20
        0x08003e92:    d504        ..      BPL      0x8003e9e ; _printf_core + 618
        0x08003e94:    222b        +"      MOVS     r2,#0x2b
        0x08003e96:    f88d2004    ...     STRB     r2,[sp,#4]
        0x08003e9a:    2201        ."      MOVS     r2,#1
        0x08003e9c:    e003        ..      B        0x8003ea6 ; _printf_core + 626
        0x08003e9e:    07e2        ..      LSLS     r2,r4,#31
        0x08003ea0:    d001        ..      BEQ      0x8003ea6 ; _printf_core + 626
        0x08003ea2:    2220         "      MOVS     r2,#0x20
        0x08003ea4:    e7f7        ..      B        0x8003e96 ; _printf_core + 610
        0x08003ea6:    4690        .F      MOV      r8,r2
        0x08003ea8:    e059        Y.      B        0x8003f5e ; _printf_core + 810
        0x08003eaa:    210a        .!      MOVS     r1,#0xa
        0x08003eac:    e002        ..      B        0x8003eb4 ; _printf_core + 640
        0x08003eae:    2210        ."      MOVS     r2,#0x10
        0x08003eb0:    e00d        ..      B        0x8003ece ; _printf_core + 666
        0x08003eb2:    2110        .!      MOVS     r1,#0x10
        0x08003eb4:    f04f0a00    O...    MOV      r10,#0
        0x08003eb8:    9100        ..      STR      r1,[sp,#0]
        0x08003eba:    e00b        ..      B        0x8003ed4 ; _printf_core + 672
        0x08003ebc:    2210        ."      MOVS     r2,#0x10
        0x08003ebe:    f04f0a00    O...    MOV      r10,#0
        0x08003ec2:    f0440404    D...    ORR      r4,r4,#4
        0x08003ec6:    2708        .'      MOVS     r7,#8
        0x08003ec8:    9200        ..      STR      r2,[sp,#0]
        0x08003eca:    e003        ..      B        0x8003ed4 ; _printf_core + 672
        0x08003ecc:    2208        ."      MOVS     r2,#8
        0x08003ece:    f04f0a00    O...    MOV      r10,#0
        0x08003ed2:    9200        ..      STR      r2,[sp,#0]
        0x08003ed4:    f3c45202    ...R    UBFX     r2,r4,#20,#3
        0x08003ed8:    2a02        .*      CMP      r2,#2
        0x08003eda:    d005        ..      BEQ      0x8003ee8 ; _printf_core + 692
        0x08003edc:    f859cb04    Y...    LDR      r12,[r9],#4
        0x08003ee0:    2100        .!      MOVS     r1,#0
        0x08003ee2:    2a03        .*      CMP      r2,#3
        0x08003ee4:    d008        ..      BEQ      0x8003ef8 ; _printf_core + 708
        0x08003ee6:    e009        ..      B        0x8003efc ; _printf_core + 712
        0x08003ee8:    f1090107    ....    ADD      r1,r9,#7
        0x08003eec:    f0210207    !...    BIC      r2,r1,#7
        0x08003ef0:    e8f2c102    ....    LDRD     r12,r1,[r2],#8
        0x08003ef4:    4691        .F      MOV      r9,r2
        0x08003ef6:    e005        ..      B        0x8003f04 ; _printf_core + 720
        0x08003ef8:    fa1ffc8c    ....    UXTH     r12,r12
        0x08003efc:    2a04        .*      CMP      r2,#4
        0x08003efe:    d101        ..      BNE      0x8003f04 ; _printf_core + 720
        0x08003f00:    f00c0cff    ....    AND      r12,r12,#0xff
        0x08003f04:    f04f0800    O...    MOV      r8,#0
        0x08003f08:    0722        ".      LSLS     r2,r4,#28
        0x08003f0a:    d528        (.      BPL      0x8003f5e ; _printf_core + 810
        0x08003f0c:    2870        p(      CMP      r0,#0x70
        0x08003f0e:    d006        ..      BEQ      0x8003f1e ; _printf_core + 746
        0x08003f10:    9b00        ..      LDR      r3,[sp,#0]
        0x08003f12:    f0830310    ....    EOR      r3,r3,#0x10
        0x08003f16:    ea53030a    S...    ORRS     r3,r3,r10
        0x08003f1a:    d005        ..      BEQ      0x8003f28 ; _printf_core + 756
        0x08003f1c:    e00e        ..      B        0x8003f3c ; _printf_core + 776
        0x08003f1e:    2240        @"      MOVS     r2,#0x40
        0x08003f20:    f88d2004    ...     STRB     r2,[sp,#4]
        0x08003f24:    2201        ."      MOVS     r2,#1
        0x08003f26:    e008        ..      B        0x8003f3a ; _printf_core + 774
        0x08003f28:    ea5c0201    \...    ORRS     r2,r12,r1
        0x08003f2c:    d006        ..      BEQ      0x8003f3c ; _printf_core + 776
        0x08003f2e:    2230        0"      MOVS     r2,#0x30
        0x08003f30:    f88d2004    ...     STRB     r2,[sp,#4]
        0x08003f34:    f88d0005    ....    STRB     r0,[sp,#5]
        0x08003f38:    2202        ."      MOVS     r2,#2
        0x08003f3a:    4690        .F      MOV      r8,r2
        0x08003f3c:    9b00        ..      LDR      r3,[sp,#0]
        0x08003f3e:    f0830308    ....    EOR      r3,r3,#8
        0x08003f42:    ea53030a    S...    ORRS     r3,r3,r10
        0x08003f46:    d10a        ..      BNE      0x8003f5e ; _printf_core + 810
        0x08003f48:    ea5c0201    \...    ORRS     r2,r12,r1
        0x08003f4c:    d101        ..      BNE      0x8003f52 ; _printf_core + 798
        0x08003f4e:    0762        b.      LSLS     r2,r4,#29
        0x08003f50:    d505        ..      BPL      0x8003f5e ; _printf_core + 810
        0x08003f52:    2230        0"      MOVS     r2,#0x30
        0x08003f54:    f88d2004    ...     STRB     r2,[sp,#4]
        0x08003f58:    f04f0801    O...    MOV      r8,#1
        0x08003f5c:    1e7f        ..      SUBS     r7,r7,#1
        0x08003f5e:    2858        X(      CMP      r0,#0x58
        0x08003f60:    d004        ..      BEQ      0x8003f6c ; _printf_core + 824
        0x08003f62:    a034        4.      ADR      r0,{pc}+0xd2 ; 0x8004034
        0x08003f64:    9003        ..      STR      r0,[sp,#0xc]
        0x08003f66:    a80e        ..      ADD      r0,sp,#0x38
        0x08003f68:    9002        ..      STR      r0,[sp,#8]
        0x08003f6a:    e00d        ..      B        0x8003f88 ; _printf_core + 852
        0x08003f6c:    a036        6.      ADR      r0,{pc}+0xdc ; 0x8004048
        0x08003f6e:    e7f9        ..      B        0x8003f64 ; _printf_core + 816
        0x08003f70:    4653        SF      MOV      r3,r10
        0x08003f72:    4660        `F      MOV      r0,r12
        0x08003f74:    9a00        ..      LDR      r2,[sp,#0]
        0x08003f76:    f7fcf9e9    ....    BL       __aeabi_uldivmod ; 0x800034c
        0x08003f7a:    4684        .F      MOV      r12,r0
        0x08003f7c:    9803        ..      LDR      r0,[sp,#0xc]
        0x08003f7e:    5c82        .\      LDRB     r2,[r0,r2]
        0x08003f80:    9802        ..      LDR      r0,[sp,#8]
        0x08003f82:    1e40        @.      SUBS     r0,r0,#1
        0x08003f84:    9002        ..      STR      r0,[sp,#8]
        0x08003f86:    7002        .p      STRB     r2,[r0,#0]
        0x08003f88:    ea5c0001    \...    ORRS     r0,r12,r1
        0x08003f8c:    d1f0        ..      BNE      0x8003f70 ; _printf_core + 828
        0x08003f8e:    9802        ..      LDR      r0,[sp,#8]
        0x08003f90:    a906        ..      ADD      r1,sp,#0x18
        0x08003f92:    1a08        ..      SUBS     r0,r1,r0
        0x08003f94:    f1000a20    .. .    ADD      r10,r0,#0x20
        0x08003f98:    0760        `.      LSLS     r0,r4,#29
        0x08003f9a:    d502        ..      BPL      0x8003fa2 ; _printf_core + 878
        0x08003f9c:    f4243480    $..4    BIC      r4,r4,#0x10000
        0x08003fa0:    e000        ..      B        0x8003fa4 ; _printf_core + 880
        0x08003fa2:    2701        .'      MOVS     r7,#1
        0x08003fa4:    4557        WE      CMP      r7,r10
        0x08003fa6:    dd02        ..      BLE      0x8003fae ; _printf_core + 890
        0x08003fa8:    eba7000a    ....    SUB      r0,r7,r10
        0x08003fac:    e000        ..      B        0x8003fb0 ; _printf_core + 892
        0x08003fae:    2000        .       MOVS     r0,#0
        0x08003fb0:    eb00010a    ....    ADD      r1,r0,r10
        0x08003fb4:    9000        ..      STR      r0,[sp,#0]
        0x08003fb6:    9805        ..      LDR      r0,[sp,#0x14]
        0x08003fb8:    4441        AD      ADD      r1,r1,r8
        0x08003fba:    1a40        @.      SUBS     r0,r0,r1
        0x08003fbc:    9005        ..      STR      r0,[sp,#0x14]
        0x08003fbe:    03e0        ..      LSLS     r0,r4,#15
        0x08003fc0:    d406        ..      BMI      0x8003fd0 ; _printf_core + 924
        0x08003fc2:    465b        [F      MOV      r3,r11
        0x08003fc4:    4621        !F      MOV      r1,r4
        0x08003fc6:    9a17        ..      LDR      r2,[sp,#0x5c]
        0x08003fc8:    9805        ..      LDR      r0,[sp,#0x14]
        0x08003fca:    f000f9b3    ....    BL       _printf_pre_padding ; 0x8004334
        0x08003fce:    4405        .D      ADD      r5,r5,r0
        0x08003fd0:    2700        .'      MOVS     r7,#0
        0x08003fd2:    e006        ..      B        0x8003fe2 ; _printf_core + 942
        0x08003fd4:    a801        ..      ADD      r0,sp,#4
        0x08003fd6:    465a        ZF      MOV      r2,r11
        0x08003fd8:    5dc0        .]      LDRB     r0,[r0,r7]
        0x08003fda:    9917        ..      LDR      r1,[sp,#0x5c]
        0x08003fdc:    4790        .G      BLX      r2
        0x08003fde:    1c6d        m.      ADDS     r5,r5,#1
        0x08003fe0:    1c7f        ..      ADDS     r7,r7,#1
        0x08003fe2:    4547        GE      CMP      r7,r8
        0x08003fe4:    dbf6        ..      BLT      0x8003fd4 ; _printf_core + 928
        0x08003fe6:    03e0        ..      LSLS     r0,r4,#15
        0x08003fe8:    d50c        ..      BPL      0x8004004 ; _printf_core + 976
        0x08003fea:    465b        [F      MOV      r3,r11
        0x08003fec:    4621        !F      MOV      r1,r4
        0x08003fee:    9a17        ..      LDR      r2,[sp,#0x5c]
        0x08003ff0:    9805        ..      LDR      r0,[sp,#0x14]
        0x08003ff2:    f000f99f    ....    BL       _printf_pre_padding ; 0x8004334
        0x08003ff6:    4405        .D      ADD      r5,r5,r0
        0x08003ff8:    e004        ..      B        0x8004004 ; _printf_core + 976
        0x08003ffa:    2030        0       MOVS     r0,#0x30
        0x08003ffc:    465a        ZF      MOV      r2,r11
        0x08003ffe:    9917        ..      LDR      r1,[sp,#0x5c]
        0x08004000:    4790        .G      BLX      r2
        0x08004002:    1c6d        m.      ADDS     r5,r5,#1
        0x08004004:    9900        ..      LDR      r1,[sp,#0]
        0x08004006:    1e48        H.      SUBS     r0,r1,#1
        0x08004008:    9000        ..      STR      r0,[sp,#0]
        0x0800400a:    2900        .)      CMP      r1,#0
        0x0800400c:    dcf5        ..      BGT      0x8003ffa ; _printf_core + 966
        0x0800400e:    e008        ..      B        0x8004022 ; _printf_core + 1006
        0x08004010:    9802        ..      LDR      r0,[sp,#8]
        0x08004012:    9902        ..      LDR      r1,[sp,#8]
        0x08004014:    465a        ZF      MOV      r2,r11
        0x08004016:    7800        .x      LDRB     r0,[r0,#0]
        0x08004018:    1c49        I.      ADDS     r1,r1,#1
        0x0800401a:    9102        ..      STR      r1,[sp,#8]
        0x0800401c:    9917        ..      LDR      r1,[sp,#0x5c]
        0x0800401e:    4790        .G      BLX      r2
        0x08004020:    1c6d        m.      ADDS     r5,r5,#1
        0x08004022:    f1ba0100    ....    SUBS     r1,r10,#0
        0x08004026:    f1aa0a01    ....    SUB      r10,r10,#1
        0x0800402a:    dcf1        ..      BGT      0x8004010 ; _printf_core + 988
        0x0800402c:    e165        e.      B        0x80042fa ; _printf_core + 1734
    $d
        0x0800402e:    0000        ..      DCW    0
        0x08004030:    00012809    .(..    DCD    75785
        0x08004034:    33323130    0123    DCD    858927408
        0x08004038:    37363534    4567    DCD    926299444
        0x0800403c:    62613938    89ab    DCD    1650538808
        0x08004040:    66656463    cdef    DCD    1717920867
        0x08004044:    00000000    ....    DCD    0
        0x08004048:    33323130    0123    DCD    858927408
        0x0800404c:    37363534    4567    DCD    926299444
        0x08004050:    42413938    89AB    DCD    1111570744
        0x08004054:    46454443    CDEF    DCD    1178944579
        0x08004058:    00000000    ....    DCD    0
    $t
        0x0800405c:    f000f958    ..X.    BL       _printf_post_padding ; 0x8004310
        0x08004060:    4405        .D      ADD      r5,r5,r0
        0x08004062:    1c76        v.      ADDS     r6,r6,#1
        0x08004064:    7830        0x      LDRB     r0,[r6,#0]
        0x08004066:    2800        .(      CMP      r0,#0
        0x08004068:    f47fadec    ....    BNE      0x8003c44 ; _printf_core + 16
        0x0800406c:    b019        ..      ADD      sp,sp,#0x64
        0x0800406e:    4628        (F      MOV      r0,r5
        0x08004070:    e8bd8ff0    ....    POP      {r4-r11,pc}
        0x08004074:    0762        b.      LSLS     r2,r4,#29
        0x08004076:    d400        ..      BMI      0x800407a ; _printf_core + 1094
        0x08004078:    2706        .'      MOVS     r7,#6
        0x0800407a:    f1090207    ....    ADD      r2,r9,#7
        0x0800407e:    f0220c07    "...    BIC      r12,r2,#7
        0x08004082:    e8fc2302    ...#    LDRD     r2,r3,[r12],#8
        0x08004086:    46e1        .F      MOV      r9,r12
        0x08004088:    f0034800    ...H    AND      r8,r3,#0x80000000
        0x0800408c:    ea5f0c08    _...    MOVS     r12,r8
        0x08004090:    d002        ..      BEQ      0x8004098 ; _printf_core + 1124
        0x08004092:    f20f2c70    ..p,    ADR.W    r12,{pc}+0x272 ; 0x8004304
        0x08004096:    e00d        ..      B        0x80040b4 ; _printf_core + 1152
        0x08004098:    ea5f5c04    _..\    LSLS     r12,r4,#20
        0x0800409c:    d502        ..      BPL      0x80040a4 ; _printf_core + 1136
        0x0800409e:    f20f2c68    ..h,    ADR.W    r12,{pc}+0x26a ; 0x8004308
        0x080040a2:    e007        ..      B        0x80040b4 ; _printf_core + 1152
        0x080040a4:    ea5f7cc4    _..|    LSLS     r12,r4,#31
        0x080040a8:    d002        ..      BEQ      0x80040b0 ; _printf_core + 1148
        0x080040aa:    f20f2c60    ..`,    ADR.W    r12,{pc}+0x262 ; 0x800430c
        0x080040ae:    e001        ..      B        0x80040b4 ; _printf_core + 1152
        0x080040b0:    f2af0c70    ..p.    ADR      r12,{pc}-0x6c ; 0x8004044
        0x080040b4:    f04f38ff    O..8    MOV      r8,#0xffffffff
        0x080040b8:    f0234300    #..C    BIC      r3,r3,#0x80000000
        0x080040bc:    f8cdc050    ..P.    STR      r12,[sp,#0x50]
        0x080040c0:    2865        e(      CMP      r0,#0x65
        0x080040c2:    d00c        ..      BEQ      0x80040de ; _printf_core + 1194
        0x080040c4:    dc06        ..      BGT      0x80040d4 ; _printf_core + 1184
        0x080040c6:    2845        E(      CMP      r0,#0x45
        0x080040c8:    d009        ..      BEQ      0x80040de ; _printf_core + 1194
        0x080040ca:    2846        F(      CMP      r0,#0x46
        0x080040cc:    d01d        ..      BEQ      0x800410a ; _printf_core + 1238
        0x080040ce:    2847        G(      CMP      r0,#0x47
        0x080040d0:    d13d        =.      BNE      0x800414e ; _printf_core + 1306
        0x080040d2:    e03d        =.      B        0x8004150 ; _printf_core + 1308
        0x080040d4:    2866        f(      CMP      r0,#0x66
        0x080040d6:    d018        ..      BEQ      0x800410a ; _printf_core + 1238
        0x080040d8:    2867        g(      CMP      r0,#0x67
        0x080040da:    d17e        ~.      BNE      0x80041da ; _printf_core + 1446
        0x080040dc:    e038        8.      B        0x8004150 ; _printf_core + 1308
        0x080040de:    2100        .!      MOVS     r1,#0
        0x080040e0:    2f11        ./      CMP      r7,#0x11
        0x080040e2:    db01        ..      BLT      0x80040e8 ; _printf_core + 1204
        0x080040e4:    2011        .       MOVS     r0,#0x11
        0x080040e6:    e000        ..      B        0x80040ea ; _printf_core + 1206
        0x080040e8:    1c78        x.      ADDS     r0,r7,#1
        0x080040ea:    e9cd0100    ....    STRD     r0,r1,[sp,#0]
        0x080040ee:    a906        ..      ADD      r1,sp,#0x18
        0x080040f0:    a80e        ..      ADD      r0,sp,#0x38
        0x080040f2:    f7fffcdd    ....    BL       _fp_digits ; 0x8003ab0
        0x080040f6:    e9dd010f    ....    LDRD     r0,r1,[sp,#0x3c]
        0x080040fa:    9a0e        ..      LDR      r2,[sp,#0x38]
        0x080040fc:    9103        ..      STR      r1,[sp,#0xc]
        0x080040fe:    2100        .!      MOVS     r1,#0
        0x08004100:    9200        ..      STR      r2,[sp,#0]
        0x08004102:    f1070a01    ....    ADD      r10,r7,#1
        0x08004106:    9104        ..      STR      r1,[sp,#0x10]
        0x08004108:    e04d        M.      B        0x80041a6 ; _printf_core + 1394
        0x0800410a:    f04f4000    O..@    MOV      r0,#0x80000000
        0x0800410e:    9700        ..      STR      r7,[sp,#0]
        0x08004110:    e9cd1001    ....    STRD     r1,r0,[sp,#4]
        0x08004114:    a906        ..      ADD      r1,sp,#0x18
        0x08004116:    a80e        ..      ADD      r0,sp,#0x38
        0x08004118:    f7fffcca    ....    BL       _fp_digits ; 0x8003ab0
        0x0800411c:    e9dd020f    ....    LDRD     r0,r2,[sp,#0x3c]
        0x08004120:    9203        ..      STR      r2,[sp,#0xc]
        0x08004122:    9b0e        ..      LDR      r3,[sp,#0x38]
        0x08004124:    9911        ..      LDR      r1,[sp,#0x44]
        0x08004126:    2200        ."      MOVS     r2,#0
        0x08004128:    f8dda00c    ....    LDR      r10,[sp,#0xc]
        0x0800412c:    9300        ..      STR      r3,[sp,#0]
        0x0800412e:    9204        ..      STR      r2,[sp,#0x10]
        0x08004130:    b911        ..      CBNZ     r1,0x8004138 ; _printf_core + 1284
        0x08004132:    1c79        y.      ADDS     r1,r7,#1
        0x08004134:    eb000a01    ....    ADD      r10,r0,r1
        0x08004138:    ebb7000a    ....    SUBS     r0,r7,r10
        0x0800413c:    d404        ..      BMI      0x8004148 ; _printf_core + 1300
        0x0800413e:    f1c030ff    ...0    RSB      r0,r0,#0xffffffff
        0x08004142:    f1070a01    ....    ADD      r10,r7,#1
        0x08004146:    9004        ..      STR      r0,[sp,#0x10]
        0x08004148:    ebaa0007    ....    SUB      r0,r10,r7
        0x0800414c:    9001        ..      STR      r0,[sp,#4]
        0x0800414e:    e044        D.      B        0x80041da ; _printf_core + 1446
        0x08004150:    2f01        ./      CMP      r7,#1
        0x08004152:    da00        ..      BGE      0x8004156 ; _printf_core + 1314
        0x08004154:    2701        .'      MOVS     r7,#1
        0x08004156:    2100        .!      MOVS     r1,#0
        0x08004158:    2f11        ./      CMP      r7,#0x11
        0x0800415a:    dd01        ..      BLE      0x8004160 ; _printf_core + 1324
        0x0800415c:    2011        .       MOVS     r0,#0x11
        0x0800415e:    e000        ..      B        0x8004162 ; _printf_core + 1326
        0x08004160:    4638        8F      MOV      r0,r7
        0x08004162:    e9cd0100    ....    STRD     r0,r1,[sp,#0]
        0x08004166:    a906        ..      ADD      r1,sp,#0x18
        0x08004168:    a80e        ..      ADD      r0,sp,#0x38
        0x0800416a:    f7fffca1    ....    BL       _fp_digits ; 0x8003ab0
        0x0800416e:    e9dd010f    ....    LDRD     r0,r1,[sp,#0x3c]
        0x08004172:    9a0e        ..      LDR      r2,[sp,#0x38]
        0x08004174:    9103        ..      STR      r1,[sp,#0xc]
        0x08004176:    2100        .!      MOVS     r1,#0
        0x08004178:    9104        ..      STR      r1,[sp,#0x10]
        0x0800417a:    9200        ..      STR      r2,[sp,#0]
        0x0800417c:    46ba        .F      MOV      r10,r7
        0x0800417e:    0721        !.      LSLS     r1,r4,#28
        0x08004180:    d40c        ..      BMI      0x800419c ; _printf_core + 1384
        0x08004182:    9903        ..      LDR      r1,[sp,#0xc]
        0x08004184:    4551        QE      CMP      r1,r10
        0x08004186:    da00        ..      BGE      0x800418a ; _printf_core + 1366
        0x08004188:    468a        .F      MOV      r10,r1
        0x0800418a:    f1ba0f01    ....    CMP      r10,#1
        0x0800418e:    dd05        ..      BLE      0x800419c ; _printf_core + 1384
        0x08004190:    9a00        ..      LDR      r2,[sp,#0]
        0x08004192:    f1aa0101    ....    SUB      r1,r10,#1
        0x08004196:    5c51        Q\      LDRB     r1,[r2,r1]
        0x08004198:    2930        0)      CMP      r1,#0x30
        0x0800419a:    d008        ..      BEQ      0x80041ae ; _printf_core + 1402
        0x0800419c:    42b8        .B      CMP      r0,r7
        0x0800419e:    da02        ..      BGE      0x80041a6 ; _printf_core + 1394
        0x080041a0:    f1100f04    ....    CMN      r0,#4
        0x080041a4:    da06        ..      BGE      0x80041b4 ; _printf_core + 1408
        0x080041a6:    2101        .!      MOVS     r1,#1
        0x080041a8:    e9cd1001    ....    STRD     r1,r0,[sp,#4]
        0x080041ac:    e015        ..      B        0x80041da ; _printf_core + 1446
        0x080041ae:    f1aa0101    ....    SUB      r1,r10,#1
        0x080041b2:    e7e9        ..      B        0x8004188 ; _printf_core + 1364
        0x080041b4:    2800        .(      CMP      r0,#0
        0x080041b6:    dc05        ..      BGT      0x80041c4 ; _printf_core + 1424
        0x080041b8:    9904        ..      LDR      r1,[sp,#0x10]
        0x080041ba:    4401        .D      ADD      r1,r1,r0
        0x080041bc:    9104        ..      STR      r1,[sp,#0x10]
        0x080041be:    ebaa0100    ....    SUB      r1,r10,r0
        0x080041c2:    e002        ..      B        0x80041ca ; _printf_core + 1430
        0x080041c4:    1c41        A.      ADDS     r1,r0,#1
        0x080041c6:    4551        QE      CMP      r1,r10
        0x080041c8:    dd00        ..      BLE      0x80041cc ; _printf_core + 1432
        0x080041ca:    468a        .F      MOV      r10,r1
        0x080041cc:    9904        ..      LDR      r1,[sp,#0x10]
        0x080041ce:    1a40        @.      SUBS     r0,r0,r1
        0x080041d0:    1c40        @.      ADDS     r0,r0,#1
        0x080041d2:    9001        ..      STR      r0,[sp,#4]
        0x080041d4:    f04f4000    O..@    MOV      r0,#0x80000000
        0x080041d8:    9002        ..      STR      r0,[sp,#8]
        0x080041da:    0720         .      LSLS     r0,r4,#28
        0x080041dc:    d404        ..      BMI      0x80041e8 ; _printf_core + 1460
        0x080041de:    9801        ..      LDR      r0,[sp,#4]
        0x080041e0:    4550        PE      CMP      r0,r10
        0x080041e2:    db01        ..      BLT      0x80041e8 ; _printf_core + 1460
        0x080041e4:    f8cd8004    ....    STR      r8,[sp,#4]
        0x080041e8:    2000        .       MOVS     r0,#0
        0x080041ea:    f88d004f    ..O.    STRB     r0,[sp,#0x4f]
        0x080041ee:    9802        ..      LDR      r0,[sp,#8]
        0x080041f0:    f10d074f    ..O.    ADD      r7,sp,#0x4f
        0x080041f4:    f1b04f00    ...O    CMP      r0,#0x80000000
        0x080041f8:    d025        %.      BEQ      0x8004246 ; _printf_core + 1554
        0x080041fa:    202b        +       MOVS     r0,#0x2b
        0x080041fc:    900e        ..      STR      r0,[sp,#0x38]
        0x080041fe:    9802        ..      LDR      r0,[sp,#8]
        0x08004200:    f04f0802    O...    MOV      r8,#2
        0x08004204:    2800        .(      CMP      r0,#0
        0x08004206:    da0c        ..      BGE      0x8004222 ; _printf_core + 1518
        0x08004208:    4240        @B      RSBS     r0,r0,#0
        0x0800420a:    9002        ..      STR      r0,[sp,#8]
        0x0800420c:    202d        -       MOVS     r0,#0x2d
        0x0800420e:    900e        ..      STR      r0,[sp,#0x38]
        0x08004210:    e007        ..      B        0x8004222 ; _printf_core + 1518
        0x08004212:    210a        .!      MOVS     r1,#0xa
        0x08004214:    9802        ..      LDR      r0,[sp,#8]
        0x08004216:    f7fcf883    ....    BL       __aeabi_uidiv ; 0x8000320
        0x0800421a:    3130        01      ADDS     r1,r1,#0x30
        0x0800421c:    9002        ..      STR      r0,[sp,#8]
        0x0800421e:    f8071d01    ....    STRB     r1,[r7,#-1]!
        0x08004222:    f1b80100    ....    SUBS     r1,r8,#0
        0x08004226:    f1a80801    ....    SUB      r8,r8,#1
        0x0800422a:    dcf2        ..      BGT      0x8004212 ; _printf_core + 1502
        0x0800422c:    9802        ..      LDR      r0,[sp,#8]
        0x0800422e:    2800        .(      CMP      r0,#0
        0x08004230:    d1ef        ..      BNE      0x8004212 ; _printf_core + 1502
        0x08004232:    1e79        y.      SUBS     r1,r7,#1
        0x08004234:    980e        ..      LDR      r0,[sp,#0x38]
        0x08004236:    7008        .p      STRB     r0,[r1,#0]
        0x08004238:    7830        0x      LDRB     r0,[r6,#0]
        0x0800423a:    f0000020    .. .    AND      r0,r0,#0x20
        0x0800423e:    f0400045    @.E.    ORR      r0,r0,#0x45
        0x08004242:    f8070d02    ....    STRB     r0,[r7,#-2]!
        0x08004246:    a812        ..      ADD      r0,sp,#0x48
        0x08004248:    1bc0        ..      SUBS     r0,r0,r7
        0x0800424a:    f1000807    ....    ADD      r8,r0,#7
        0x0800424e:    9814        ..      LDR      r0,[sp,#0x50]
        0x08004250:    7800        .x      LDRB     r0,[r0,#0]
        0x08004252:    b100        ..      CBZ      r0,0x8004256 ; _printf_core + 1570
        0x08004254:    2001        .       MOVS     r0,#1
        0x08004256:    eb00010a    ....    ADD      r1,r0,r10
        0x0800425a:    9801        ..      LDR      r0,[sp,#4]
        0x0800425c:    eb0171e0    ...q    ADD      r1,r1,r0,ASR #31
        0x08004260:    9805        ..      LDR      r0,[sp,#0x14]
        0x08004262:    4441        AD      ADD      r1,r1,r8
        0x08004264:    1a40        @.      SUBS     r0,r0,r1
        0x08004266:    1e40        @.      SUBS     r0,r0,#1
        0x08004268:    9005        ..      STR      r0,[sp,#0x14]
        0x0800426a:    03e0        ..      LSLS     r0,r4,#15
        0x0800426c:    d406        ..      BMI      0x800427c ; _printf_core + 1608
        0x0800426e:    465b        [F      MOV      r3,r11
        0x08004270:    4621        !F      MOV      r1,r4
        0x08004272:    9a17        ..      LDR      r2,[sp,#0x5c]
        0x08004274:    9805        ..      LDR      r0,[sp,#0x14]
        0x08004276:    f000f85d    ..].    BL       _printf_pre_padding ; 0x8004334
        0x0800427a:    4405        .D      ADD      r5,r5,r0
        0x0800427c:    9814        ..      LDR      r0,[sp,#0x50]
        0x0800427e:    7800        .x      LDRB     r0,[r0,#0]
        0x08004280:    b118        ..      CBZ      r0,0x800428a ; _printf_core + 1622
        0x08004282:    465a        ZF      MOV      r2,r11
        0x08004284:    9917        ..      LDR      r1,[sp,#0x5c]
        0x08004286:    4790        .G      BLX      r2
        0x08004288:    1c6d        m.      ADDS     r5,r5,#1
        0x0800428a:    03e0        ..      LSLS     r0,r4,#15
        0x0800428c:    d524        $.      BPL      0x80042d8 ; _printf_core + 1700
        0x0800428e:    465b        [F      MOV      r3,r11
        0x08004290:    4621        !F      MOV      r1,r4
        0x08004292:    9a17        ..      LDR      r2,[sp,#0x5c]
        0x08004294:    9805        ..      LDR      r0,[sp,#0x14]
        0x08004296:    f000f84d    ..M.    BL       _printf_pre_padding ; 0x8004334
        0x0800429a:    4405        .D      ADD      r5,r5,r0
        0x0800429c:    e01c        ..      B        0x80042d8 ; _printf_core + 1700
        0x0800429e:    9804        ..      LDR      r0,[sp,#0x10]
        0x080042a0:    2800        .(      CMP      r0,#0
        0x080042a2:    db07        ..      BLT      0x80042b4 ; _printf_core + 1664
        0x080042a4:    e9dd0103    ....    LDRD     r0,r1,[sp,#0xc]
        0x080042a8:    4288        .B      CMP      r0,r1
        0x080042aa:    dd03        ..      BLE      0x80042b4 ; _printf_core + 1664
        0x080042ac:    9800        ..      LDR      r0,[sp,#0]
        0x080042ae:    5c40        @\      LDRB     r0,[r0,r1]
        0x080042b0:    9917        ..      LDR      r1,[sp,#0x5c]
        0x080042b2:    e001        ..      B        0x80042b8 ; _printf_core + 1668
        0x080042b4:    9917        ..      LDR      r1,[sp,#0x5c]
        0x080042b6:    2030        0       MOVS     r0,#0x30
        0x080042b8:    465a        ZF      MOV      r2,r11
        0x080042ba:    4790        .G      BLX      r2
        0x080042bc:    9804        ..      LDR      r0,[sp,#0x10]
        0x080042be:    f1050501    ....    ADD      r5,r5,#1
        0x080042c2:    1c40        @.      ADDS     r0,r0,#1
        0x080042c4:    9004        ..      STR      r0,[sp,#0x10]
        0x080042c6:    9801        ..      LDR      r0,[sp,#4]
        0x080042c8:    1e40        @.      SUBS     r0,r0,#1
        0x080042ca:    9001        ..      STR      r0,[sp,#4]
        0x080042cc:    d104        ..      BNE      0x80042d8 ; _printf_core + 1700
        0x080042ce:    202e        .       MOVS     r0,#0x2e
        0x080042d0:    465a        ZF      MOV      r2,r11
        0x080042d2:    9917        ..      LDR      r1,[sp,#0x5c]
        0x080042d4:    4790        .G      BLX      r2
        0x080042d6:    1c6d        m.      ADDS     r5,r5,#1
        0x080042d8:    f1ba0100    ....    SUBS     r1,r10,#0
        0x080042dc:    f1aa0a01    ....    SUB      r10,r10,#1
        0x080042e0:    dcdd        ..      BGT      0x800429e ; _printf_core + 1642
        0x080042e2:    e005        ..      B        0x80042f0 ; _printf_core + 1724
        0x080042e4:    f8170b01    ....    LDRB     r0,[r7],#1
        0x080042e8:    465a        ZF      MOV      r2,r11
        0x080042ea:    9917        ..      LDR      r1,[sp,#0x5c]
        0x080042ec:    4790        .G      BLX      r2
        0x080042ee:    1c6d        m.      ADDS     r5,r5,#1
        0x080042f0:    f1b80100    ....    SUBS     r1,r8,#0
        0x080042f4:    f1a80801    ....    SUB      r8,r8,#1
        0x080042f8:    dcf4        ..      BGT      0x80042e4 ; _printf_core + 1712
        0x080042fa:    465b        [F      MOV      r3,r11
        0x080042fc:    4621        !F      MOV      r1,r4
        0x080042fe:    9a17        ..      LDR      r2,[sp,#0x5c]
        0x08004300:    9805        ..      LDR      r0,[sp,#0x14]
        0x08004302:    e6ab        ..      B        0x800405c ; _printf_core + 1064
    $d
        0x08004304:    0000002d    -...    DCD    45
        0x08004308:    0000002b    +...    DCD    43
        0x0800430c:    00000020     ...    DCD    32
    $t
    i._printf_post_padding
    _printf_post_padding
        0x08004310:    e92d41f0    -..A    PUSH     {r4-r8,lr}
        0x08004314:    4604        .F      MOV      r4,r0
        0x08004316:    2500        .%      MOVS     r5,#0
        0x08004318:    461e        .F      MOV      r6,r3
        0x0800431a:    4617        .F      MOV      r7,r2
        0x0800431c:    0488        ..      LSLS     r0,r1,#18
        0x0800431e:    d404        ..      BMI      0x800432a ; _printf_post_padding + 26
        0x08004320:    e005        ..      B        0x800432e ; _printf_post_padding + 30
        0x08004322:    4639        9F      MOV      r1,r7
        0x08004324:    2020                MOVS     r0,#0x20
        0x08004326:    47b0        .G      BLX      r6
        0x08004328:    1c6d        m.      ADDS     r5,r5,#1
        0x0800432a:    1e64        d.      SUBS     r4,r4,#1
        0x0800432c:    d5f9        ..      BPL      0x8004322 ; _printf_post_padding + 18
        0x0800432e:    4628        (F      MOV      r0,r5
        0x08004330:    e8bd81f0    ....    POP      {r4-r8,pc}
    i._printf_pre_padding
    _printf_pre_padding
        0x08004334:    e92d41f0    -..A    PUSH     {r4-r8,lr}
        0x08004338:    4604        .F      MOV      r4,r0
        0x0800433a:    2500        .%      MOVS     r5,#0
        0x0800433c:    461e        .F      MOV      r6,r3
        0x0800433e:    4690        .F      MOV      r8,r2
        0x08004340:    03c8        ..      LSLS     r0,r1,#15
        0x08004342:    d501        ..      BPL      0x8004348 ; _printf_pre_padding + 20
        0x08004344:    2730        0'      MOVS     r7,#0x30
        0x08004346:    e000        ..      B        0x800434a ; _printf_pre_padding + 22
        0x08004348:    2720         '      MOVS     r7,#0x20
        0x0800434a:    0488        ..      LSLS     r0,r1,#18
        0x0800434c:    d504        ..      BPL      0x8004358 ; _printf_pre_padding + 36
        0x0800434e:    e005        ..      B        0x800435c ; _printf_pre_padding + 40
        0x08004350:    4641        AF      MOV      r1,r8
        0x08004352:    4638        8F      MOV      r0,r7
        0x08004354:    47b0        .G      BLX      r6
        0x08004356:    1c6d        m.      ADDS     r5,r5,#1
        0x08004358:    1e64        d.      SUBS     r4,r4,#1
        0x0800435a:    d5f9        ..      BPL      0x8004350 ; _printf_pre_padding + 28
        0x0800435c:    4628        (F      MOV      r0,r5
        0x0800435e:    e8bd81f0    ....    POP      {r4-r8,pc}
    i._snputc
    _snputc
        0x08004362:    684a        Jh      LDR      r2,[r1,#4]
        0x08004364:    2a00        .*      CMP      r2,#0
        0x08004366:    d006        ..      BEQ      0x8004376 ; _snputc + 20
        0x08004368:    680a        .h      LDR      r2,[r1,#0]
        0x0800436a:    1c53        S.      ADDS     r3,r2,#1
        0x0800436c:    600b        .`      STR      r3,[r1,#0]
        0x0800436e:    7010        .p      STRB     r0,[r2,#0]
        0x08004370:    6848        Hh      LDR      r0,[r1,#4]
        0x08004372:    1e40        @.      SUBS     r0,r0,#1
        0x08004374:    6048        H`      STR      r0,[r1,#4]
        0x08004376:    4770        pG      BX       lr
    i.free
    free
        0x08004378:    b510        ..      PUSH     {r4,lr}
        0x0800437a:    2800        .(      CMP      r0,#0
        0x0800437c:    d021        !.      BEQ      0x80043c2 ; free + 74
        0x0800437e:    4b11        .K      LDR      r3,[pc,#68] ; [0x80043c4] = 0x20000020
        0x08004380:    2200        ."      MOVS     r2,#0
        0x08004382:    1f00        ..      SUBS     r0,r0,#4
        0x08004384:    6819        .h      LDR      r1,[r3,#0]
        0x08004386:    e003        ..      B        0x8004390 ; free + 24
        0x08004388:    4281        .B      CMP      r1,r0
        0x0800438a:    d803        ..      BHI      0x8004394 ; free + 28
        0x0800438c:    460a        .F      MOV      r2,r1
        0x0800438e:    6849        Ih      LDR      r1,[r1,#4]
        0x08004390:    2900        .)      CMP      r1,#0
        0x08004392:    d1f9        ..      BNE      0x8004388 ; free + 16
        0x08004394:    b152        R.      CBZ      r2,0x80043ac ; free + 52
        0x08004396:    6813        .h      LDR      r3,[r2,#0]
        0x08004398:    1a84        ..      SUBS     r4,r0,r2
        0x0800439a:    429c        .B      CMP      r4,r3
        0x0800439c:    d104        ..      BNE      0x80043a8 ; free + 48
        0x0800439e:    6800        .h      LDR      r0,[r0,#0]
        0x080043a0:    4418        .D      ADD      r0,r0,r3
        0x080043a2:    6010        .`      STR      r0,[r2,#0]
        0x080043a4:    4610        .F      MOV      r0,r2
        0x080043a6:    e002        ..      B        0x80043ae ; free + 54
        0x080043a8:    6050        P`      STR      r0,[r2,#4]
        0x080043aa:    e000        ..      B        0x80043ae ; free + 54
        0x080043ac:    6018        .`      STR      r0,[r3,#0]
        0x080043ae:    b139        9.      CBZ      r1,0x80043c0 ; free + 72
        0x080043b0:    6802        .h      LDR      r2,[r0,#0]
        0x080043b2:    1a0b        ..      SUBS     r3,r1,r0
        0x080043b4:    4293        .B      CMP      r3,r2
        0x080043b6:    d103        ..      BNE      0x80043c0 ; free + 72
        0x080043b8:    680b        .h      LDR      r3,[r1,#0]
        0x080043ba:    441a        .D      ADD      r2,r2,r3
        0x080043bc:    6002        .`      STR      r2,[r0,#0]
        0x080043be:    6849        Ih      LDR      r1,[r1,#4]
        0x080043c0:    6041        A`      STR      r1,[r0,#4]
        0x080043c2:    bd10        ..      POP      {r4,pc}
    $d
        0x080043c4:    20000020     ..     DCD    536870944
    $t
    i.is_FCBList_Empty
    is_FCBList_Empty
        0x080043c8:    4601        .F      MOV      r1,r0
        0x080043ca:    f8910410    ....    LDRB     r0,[r1,#0x410]
        0x080043ce:    b908        ..      CBNZ     r0,0x80043d4 ; is_FCBList_Empty + 12
        0x080043d0:    2001        .       MOVS     r0,#1
        0x080043d2:    4770        pG      BX       lr
        0x080043d4:    2000        .       MOVS     r0,#0
        0x080043d6:    e7fc        ..      B        0x80043d2 ; is_FCBList_Empty + 10
    i.is_RingBuffer_Empty
    is_RingBuffer_Empty
        0x080043d8:    4601        .F      MOV      r1,r0
        0x080043da:    f8b10404    ....    LDRH     r0,[r1,#0x404]
        0x080043de:    b908        ..      CBNZ     r0,0x80043e4 ; is_RingBuffer_Empty + 12
        0x080043e0:    2001        .       MOVS     r0,#1
        0x080043e2:    4770        pG      BX       lr
        0x080043e4:    2000        .       MOVS     r0,#0
        0x080043e6:    e7fc        ..      B        0x80043e2 ; is_RingBuffer_Empty + 10
    i.is_RingBuffer_Full
    is_RingBuffer_Full
        0x080043e8:    4601        .F      MOV      r1,r0
        0x080043ea:    f8b10404    ....    LDRH     r0,[r1,#0x404]
        0x080043ee:    f8d12400    ...$    LDR      r2,[r1,#0x400]
        0x080043f2:    4290        .B      CMP      r0,r2
        0x080043f4:    d301        ..      BCC      0x80043fa ; is_RingBuffer_Full + 18
        0x080043f6:    2001        .       MOVS     r0,#1
        0x080043f8:    4770        pG      BX       lr
        0x080043fa:    2000        .       MOVS     r0,#0
        0x080043fc:    e7fc        ..      B        0x80043f8 ; is_RingBuffer_Full + 16
        0x080043fe:    0000        ..      MOVS     r0,r0
    i.main
    main
        0x08004400:    f7fefa9a    ....    BL       MyUSART_Init ; 0x8002938
        0x08004404:    f7fcfc1e    ....    BL       AT24C02_Init ; 0x8000c44
        0x08004408:    f7fff8b1    ....    BL       W25Q64_Init ; 0x800356e
        0x0800440c:    2014        .       MOVS     r0,#0x14
        0x0800440e:    f7fdf991    ....    BL       Delay_ms ; 0x8001734
        0x08004412:    bf00        ..      NOP      
        0x08004414:    2218        ."      MOVS     r2,#0x18
        0x08004416:    a12e        ..      ADR      r1,{pc}+0xba ; 0x80044d0
        0x08004418:    a030        0.      ADR      r0,{pc}+0xc4 ; 0x80044dc
        0x0800441a:    f7fdf941    ..A.    BL       CMD_USART_Printf ; 0x80016a0
        0x0800441e:    bf00        ..      NOP      
        0x08004420:    f7fefc82    ....    BL       Read_SavingOTAInfo ; 0x8002d28
        0x08004424:    f7fcfcaa    ....    BL       BootLoader_CMD ; 0x8000d7c
        0x08004428:    f7fdf9b8    ....    BL       Detect_OnlineOTA ; 0x800179c
        0x0800442c:    e04f        O.      B        0x80044ce ; main + 206
        0x0800442e:    4832        2H      LDR      r0,[pc,#200] ; [0x80044f8] = 0x2000001c
        0x08004430:    7800        .x      LDRB     r0,[r0,#0]
        0x08004432:    b110        ..      CBZ      r0,0x800443a ; main + 58
        0x08004434:    2801        .(      CMP      r0,#1
        0x08004436:    d148        H.      BNE      0x80044ca ; main + 202
        0x08004438:    e015        ..      B        0x8004466 ; main + 102
        0x0800443a:    2400        .$      MOVS     r4,#0
        0x0800443c:    bf00        ..      NOP      
        0x0800443e:    222c        ,"      MOVS     r2,#0x2c
        0x08004440:    a123        #.      ADR      r1,{pc}+0x90 ; 0x80044d0
        0x08004442:    a02e        ..      ADR      r0,{pc}+0xba ; 0x80044fc
        0x08004444:    f7fdf92c    ..,.    BL       CMD_USART_Printf ; 0x80016a0
        0x08004448:    bf00        ..      NOP      
        0x0800444a:    f7fcfe3b    ..;.    BL       BootLoader_GoToAPP ; 0x80010c4
        0x0800444e:    4604        .F      MOV      r4,r0
        0x08004450:    b944        D.      CBNZ     r4,0x8004464 ; main + 100
        0x08004452:    bf00        ..      NOP      
        0x08004454:    2232        2"      MOVS     r2,#0x32
        0x08004456:    a11e        ..      ADR      r1,{pc}+0x7a ; 0x80044d0
        0x08004458:    4831        1H      LDR      r0,[pc,#196] ; [0x8004520] = 0x80046c4
        0x0800445a:    f7fdf921    ..!.    BL       CMD_USART_Printf ; 0x80016a0
        0x0800445e:    bf00        ..      NOP      
        0x08004460:    f7fcfedc    ....    BL       BootLoader_Reset ; 0x800121c
        0x08004464:    e032        2.      B        0x80044cc ; main + 204
        0x08004466:    2400        .$      MOVS     r4,#0
        0x08004468:    bf00        ..      NOP      
        0x0800446a:    223b        ;"      MOVS     r2,#0x3b
        0x0800446c:    a118        ..      ADR      r1,{pc}+0x64 ; 0x80044d0
        0x0800446e:    a02d        -.      ADR      r0,{pc}+0xb6 ; 0x8004524
        0x08004470:    f7fdf916    ....    BL       CMD_USART_Printf ; 0x80016a0
        0x08004474:    bf00        ..      NOP      
        0x08004476:    f7fefac1    ....    BL       OnlineOTA_UpdateAPP ; 0x80029fc
        0x0800447a:    4604        .F      MOV      r4,r0
        0x0800447c:    2c01        .,      CMP      r4,#1
        0x0800447e:    d00d        ..      BEQ      0x800449c ; main + 156
        0x08004480:    2000        .       MOVS     r0,#0
        0x08004482:    492e        .I      LDR      r1,[pc,#184] ; [0x800453c] = 0x2000043c
        0x08004484:    7008        .p      STRB     r0,[r1,#0]
        0x08004486:    f7fefd51    ..Q.    BL       Saving_OTAInfo ; 0x8002f2c
        0x0800448a:    bf00        ..      NOP      
        0x0800448c:    2241        A"      MOVS     r2,#0x41
        0x0800448e:    a110        ..      ADR      r1,{pc}+0x42 ; 0x80044d0
        0x08004490:    a02b        +.      ADR      r0,{pc}+0xb0 ; 0x8004540
        0x08004492:    f7fdf905    ....    BL       CMD_USART_Printf ; 0x80016a0
        0x08004496:    bf00        ..      NOP      
        0x08004498:    f7fcfec0    ....    BL       BootLoader_Reset ; 0x800121c
        0x0800449c:    bf00        ..      NOP      
        0x0800449e:    2244        D"      MOVS     r2,#0x44
        0x080044a0:    a10b        ..      ADR      r1,{pc}+0x30 ; 0x80044d0
        0x080044a2:    a032        2.      ADR      r0,{pc}+0xca ; 0x800456c
        0x080044a4:    f7fdf8fc    ....    BL       CMD_USART_Printf ; 0x80016a0
        0x080044a8:    bf00        ..      NOP      
        0x080044aa:    f7fefa93    ....    BL       OnlineOTA_ConfigInfo ; 0x80029d4
        0x080044ae:    f7fcfe09    ....    BL       BootLoader_GoToAPP ; 0x80010c4
        0x080044b2:    4604        .F      MOV      r4,r0
        0x080044b4:    b944        D.      CBNZ     r4,0x80044c8 ; main + 200
        0x080044b6:    bf00        ..      NOP      
        0x080044b8:    224b        K"      MOVS     r2,#0x4b
        0x080044ba:    a105        ..      ADR      r1,{pc}+0x16 ; 0x80044d0
        0x080044bc:    4818        .H      LDR      r0,[pc,#96] ; [0x8004520] = 0x80046c4
        0x080044be:    f7fdf8ef    ....    BL       CMD_USART_Printf ; 0x80016a0
        0x080044c2:    bf00        ..      NOP      
        0x080044c4:    f7fcfeaa    ....    BL       BootLoader_Reset ; 0x800121c
        0x080044c8:    e000        ..      B        0x80044cc ; main + 204
        0x080044ca:    bf00        ..      NOP      
        0x080044cc:    bf00        ..      NOP      
        0x080044ce:    e7ae        ..      B        0x800442e ; main + 46
    $d
        0x080044d0:    72657355    User    DCD    1919251285
        0x080044d4:    69616d5c    \mai    DCD    1767992668
        0x080044d8:    00632e6e    n.c.    DCD    6499950
        0x080044dc:    3a73255b    [%s:    DCD    980624731
        0x080044e0:    205d6425    %d]     DCD    542991397
        0x080044e4:    746f6f42    Boot    DCD    1953460034
        0x080044e8:    64616f4c    Load    DCD    1684107084
        0x080044ec:    53207265    er S    DCD    1394635365
        0x080044f0:    74726174    tart    DCD    1953653108
        0x080044f4:    000a0d21    !...    DCD    658721
        0x080044f8:    2000001c    ...     DCD    536870940
        0x080044fc:    3a73255b    [%s:    DCD    980624731
        0x08004500:    205d6425    %d]     DCD    542991397
        0x08004504:    e6aa9ce6    ....    DCD    3869940966
        0x08004508:    b5e680a3    ....    DCD    3051782307
        0x0800450c:    b088e58b    ....    DCD    2961761675
        0x08004510:    e441544f    OTA.    DCD    3829486671
        0x08004514:    bbe48bba    ....    DCD    3152317370
        0x08004518:    0a0d20b6    . ..    DCD    168632502
        0x0800451c:    00000000    ....    DCD    0
        0x08004520:    080046c4    .F..    DCD    134235844
        0x08004524:    3a73255b    [%s:    DCD    980624731
        0x08004528:    205d6425    %d]     DCD    542991397
        0x0800452c:    696c6e4f    Onli    DCD    1768713807
        0x08004530:    4f20656e    ne O    DCD    1327523182
        0x08004534:    0a0d4154    TA..    DCD    168640852
        0x08004538:    00000000    ....    DCD    0
        0x0800453c:    2000043c    <..     DCD    536871996
        0x08004540:    3a73255b    [%s:    DCD    980624731
        0x08004544:    205d6425    %d]     DCD    542991397
        0x08004548:    e8ac90e6    ....    DCD    3903623398
        0x0800454c:    a8e790bf    ....    DCD    2833748159
        0x08004550:    8fbae58b    ....    DCD    2411390347
        0x08004554:    e9ba87e5    ....    DCD    3921315813
        0x08004558:    e52c9994    ..,.    DCD    3844905364
        0x0800455c:    a4e58687    ....    DCD    2766505607
        0x08004560:    8d87e987    ....    DCD    2374494599
        0x08004564:    0daf90e5    ....    DCD    229609701
        0x08004568:    0000000a    ....    DCD    10
        0x0800456c:    3a73255b    [%s:    DCD    980624731
        0x08004570:    205d6425    %d]     DCD    542991397
        0x08004574:    e7505041    APP.    DCD    3880800321
        0x08004578:    bae58ba8    ....    DCD    3135605672
        0x0800457c:    a08ae58f    ....    DCD    2693457295
        0x08004580:    e5bdbde8    ....    DCD    3854417384
        0x08004584:    88e68cae    ....    DCD    2296810670
        0x08004588:    000a0d90    ....    DCD    658832
    $t
    i.malloc
    malloc
        0x0800458c:    b5f0        ..      PUSH     {r4-r7,lr}
        0x0800458e:    300b        .0      ADDS     r0,r0,#0xb
        0x08004590:    4d15        .M      LDR      r5,[pc,#84] ; [0x80045e8] = 0x20000024
        0x08004592:    f0200107     ...    BIC      r1,r0,#7
        0x08004596:    2400        .$      MOVS     r4,#0
        0x08004598:    4a14        .J      LDR      r2,[pc,#80] ; [0x80045ec] = 0x20000020
        0x0800459a:    e00f        ..      B        0x80045bc ; malloc + 48
        0x0800459c:    6803        .h      LDR      r3,[r0,#0]
        0x0800459e:    428b        .B      CMP      r3,r1
        0x080045a0:    d30b        ..      BCC      0x80045ba ; malloc + 46
        0x080045a2:    428b        .B      CMP      r3,r1
        0x080045a4:    d905        ..      BLS      0x80045b2 ; malloc + 38
        0x080045a6:    1a5e        ^.      SUBS     r6,r3,r1
        0x080045a8:    1843        C.      ADDS     r3,r0,r1
        0x080045aa:    6847        Gh      LDR      r7,[r0,#4]
        0x080045ac:    e9c36700    ...g    STRD     r6,r7,[r3,#0]
        0x080045b0:    e000        ..      B        0x80045b4 ; malloc + 40
        0x080045b2:    6843        Ch      LDR      r3,[r0,#4]
        0x080045b4:    6013        .`      STR      r3,[r2,#0]
        0x080045b6:    c002        ..      STM      r0!,{r1}
        0x080045b8:    e004        ..      B        0x80045c4 ; malloc + 56
        0x080045ba:    1d02        ..      ADDS     r2,r0,#4
        0x080045bc:    6810        .h      LDR      r0,[r2,#0]
        0x080045be:    2800        .(      CMP      r0,#0
        0x080045c0:    d1ec        ..      BNE      0x800459c ; malloc + 16
        0x080045c2:    4620         F      MOV      r0,r4
        0x080045c4:    2800        .(      CMP      r0,#0
        0x080045c6:    d102        ..      BNE      0x80045ce ; malloc + 66
        0x080045c8:    6828        (h      LDR      r0,[r5,#0]
        0x080045ca:    b108        ..      CBZ      r0,0x80045d0 ; malloc + 68
        0x080045cc:    2000        .       MOVS     r0,#0
        0x080045ce:    bdf0        ..      POP      {r4-r7,pc}
        0x080045d0:    4a06        .J      LDR      r2,[pc,#24] ; [0x80045ec] = 0x20000020
        0x080045d2:    4807        .H      LDR      r0,[pc,#28] ; [0x80045f0] = 0x2000091c
        0x080045d4:    6010        .`      STR      r0,[r2,#0]
        0x080045d6:    4a07        .J      LDR      r2,[pc,#28] ; [0x80045f4] = 0x20000d18
        0x080045d8:    1a12        ..      SUBS     r2,r2,r0
        0x080045da:    f0220207    "...    BIC      r2,r2,#7
        0x080045de:    e9c02400    ...$    STRD     r2,r4,[r0,#0]
        0x080045e2:    2001        .       MOVS     r0,#1
        0x080045e4:    6028        (`      STR      r0,[r5,#0]
        0x080045e6:    e7d7        ..      B        0x8004598 ; malloc + 12
    $d
        0x080045e8:    20000024    $..     DCD    536870948
        0x080045ec:    20000020     ..     DCD    536870944
        0x080045f0:    2000091c    ...     DCD    536873244
        0x080045f4:    20000d18    ...     DCD    536874264
    $d.realdata
    .constdata
    __ctype_categories
        0x080045f8:    dddddddd    ....    DCD    3722304989
        0x080045fc:    ddbbbbdc    ....    DCD    3720068060
        0x08004600:    dddddddd    ....    DCD    3722304989
        0x08004604:    dddddddd    ....    DCD    3722304989
        0x08004608:    88888898    ....    DCD    2290649240
        0x0800460c:    88888888    ....    DCD    2290649224
        0x08004610:    77777777    wwww    DCD    2004318071
        0x08004614:    88888877    w...    DCD    2290649207
        0x08004618:    56555585    .UUV    DCD    1448433029
        0x0800461c:    66666666    ffff    DCD    1717986918
        0x08004620:    66666666    ffff    DCD    1717986918
        0x08004624:    88886866    fh..    DCD    2290640998
        0x08004628:    32333383    .332    DCD    842216323
        0x0800462c:    22222222    """"    DCD    572662306
        0x08004630:    22222222    """"    DCD    572662306
        0x08004634:    8d882822    "(..    DCD    2374510626
    .conststring
        0x08004638:    3a73255b    [%s:    DCD    980624731
        0x0800463c:    205d6425    %d]     DCD    542991397
        0x08004640:    b78fe530    0...    DCD    3079660848
        0x08004644:    e598ade5    ....    DCD    3851988453
        0x08004648:    9de5a882    ....    DCD    2649073794
        0x0800464c:    85bbe497    ....    DCD    2243683479
        0x08004650:    4f9bbee4    ...O    DCD    1335607012
        0x08004654:    bde44154    TA..    DCD    3185852756
        0x08004658:    a894e7bf    ....    DCD    2828330943
        0x0800465c:    e88cbcef    ....    DCD    3901537519
        0x08004660:    87e9b7af    ....    DCD    2280241071
        0x08004664:    b096e68d    ....    DCD    2962679437
        0x08004668:    e593bee8    ....    DCD    3851665128
        0x0800466c:    bcefa585    ....    DCD    3169822085
        0x08004670:    257e3188    .1~%    DCD    629027208
        0x08004674:    89bcef64    d...    DCD    2310860644
        0x08004678:    000a0d20     ...    DCD    658720
        0x0800467c:    3a73255b    [%s:    DCD    980624731
        0x08004680:    205d6425    %d]     DCD    542991397
        0x08004684:    e593bde5    ....    DCD    3851664869
        0x08004688:    8ce58d89    ....    DCD    2363854217
        0x0800468c:    9f9fe5ba    ....    DCD    2678056378
        0x08004690:    e6b2b7e5    ....    DCD    3870472165
        0x08004694:    a8e7899c    ....    DCD    2833746332
        0x08004698:    8fbae58b    ....    DCD    2411390347
        0x0800469c:    e78cbcef    ....    DCD    3884760303
        0x080046a0:    aee5aea1    ....    DCD    2934288033
        0x080046a4:    81a6e89a    ....    DCD    2175199386
        0x080046a8:    e586a6e8    ....    DCD    3850807016
        0x080046ac:    90e59986    ....    DCD    2430966150
        0x080046b0:    9fbcef97    ....    DCD    2679959447
        0x080046b4:    7988bcef    ...y    DCD    2039004399
        0x080046b8:    bcef6e2f    /n..    DCD    3169807919
        0x080046bc:    0a0d2089    . ..    DCD    168632457
        0x080046c0:    00000000    ....    DCD    0
    .conststring
        0x080046c4:    3a73255b    [%s:    DCD    980624731
        0x080046c8:    205d6425    %d]     DCD    542991397
        0x080046cc:    e8b3b7e8    ....    DCD    3904092136
        0x080046d0:    5041acbd    ..AP    DCD    1346481341
        0x080046d4:    b1a4e550    P...    DCD    2980373840
        0x080046d8:    efa5b4e8    ....    DCD    4020614376
        0x080046dc:    50418cbc    ..AP    DCD    1346473148
        0x080046e0:    8ba8e750    P...    DCD    2343102288
        0x080046e4:    e58fbae5    ....    DCD    3851401957
        0x080046e8:    83e8af8f    ....    DCD    2213064591
        0x080046ec:    b2b7e5bd    ....    DCD    2998396349
        0x080046f0:    e59f8de6    ....    DCD    3852439014
        0x080046f4:    bcef8f9d    ....    DCD    3169816477
        0x080046f8:    b7afe88c    ....    DCD    3081758860
        0x080046fc:    e68d87e9    ....    DCD    3868035049
        0x08004700:    b8e4b096    ....    DCD    3101995158
        0x08004704:    bdbde88b    ....    DCD    3183339659
        0x08004708:    e7505041    APP.    DCD    3880800321
        0x0800470c:    bae58ba8    ....    DCD    3135605672
        0x08004710:    0a0d208f    . ..    DCD    168632463
        0x08004714:    00000000    ....    DCD    0
    Region$$Table$$Base
        0x08004718:    08004738    8G..    DCD    134235960
        0x0800471c:    20000000    ...     DCD    536870912
        0x08004720:    00000028    (...    DCD    40
        0x08004724:    08003a90    .:..    DCD    134232720
        0x08004728:    08004760    `G..    DCD    134236000
        0x0800472c:    20000028    (..     DCD    536870952
        0x08004730:    000010f0    ....    DCD    4336
        0x08004734:    08003aa0    .:..    DCD    134232736
    Region$$Table$$Limit

** Section #2 'RW_IRAM1' (SHT_PROGBITS) [SHF_ALLOC + SHF_WRITE]
    Size   : 40 bytes (alignment 4)
    Address: 0x20000000


** Section #3 'RW_IRAM1' (SHT_NOBITS) [SHF_ALLOC + SHF_WRITE]
    Size   : 4336 bytes (alignment 8)
    Address: 0x20000028


** Section #4 '.debug_abbrev' (SHT_PROGBITS)
    Size   : 1476 bytes


** Section #5 '.debug_frame' (SHT_PROGBITS)
    Size   : 4976 bytes


** Section #6 '.debug_info' (SHT_PROGBITS)
    Size   : 71812 bytes


** Section #7 '.debug_line' (SHT_PROGBITS)
    Size   : 19888 bytes


** Section #8 '.debug_loc' (SHT_PROGBITS)
    Size   : 9500 bytes


** Section #9 '.debug_macinfo' (SHT_PROGBITS)
    Size   : 477924 bytes


** Section #10 '.debug_pubnames' (SHT_PROGBITS)
    Size   : 4354 bytes


** Section #11 '.symtab' (SHT_SYMTAB)
    Size   : 11248 bytes (alignment 4)
    String table #12 '.strtab'
    Last local symbol no. 470


** Section #12 '.strtab' (SHT_STRTAB)
    Size   : 8584 bytes


** Section #13 '.note' (SHT_NOTE)
    Size   : 28 bytes (alignment 4)


** Section #14 '.comment' (SHT_PROGBITS)
    Size   : 23560 bytes


** Section #15 '.shstrtab' (SHT_STRTAB)
    Size   : 156 bytes


address     size       variable name                            type
0x20000514  0x404      Xmodem_FCB                               Xmodem_FCB_t
0x20000514  0x400      Xmodem_FCB.Buffer_1k                     array[1024] of uint8_t
0x20000914  0x4        Xmodem_FCB.PacketNum                     uint32_t

address     size       variable name                            type
0x2000043c  0xd8       OTA_Info                                 OTA_Info_t
0x2000043c  0x1        OTA_Info.OTA_Flag                        uint8_t
0x2000043d  0x20     * OTA_Info.CurAPP_Version                  array[32] of uint8_t
0x20000460  0xb4       OTA_Info.ExFlash_InfoArr                 array[5] of ExFlash_Info_t

address     size       variable name                            type
0x2000001c  0x1        OTA_Status                               uint8_t

address     size       variable name                            type
0x20000028  0x414      CMD_USART_RingBuffer                     RingBuffer_t
0x20000028  0x400      CMD_USART_RingBuffer.bufferHead          array[1024] of uint8_t
0x20000428  0x4        CMD_USART_RingBuffer.bufferSize          uint32_t
0x2000042c  0x2        CMD_USART_RingBuffer.dataSize            volatile uint16_t
0x2000042e  0x2        CMD_USART_RingBuffer.readIndex           volatile uint16_t
0x20000430  0x2      * CMD_USART_RingBuffer.writeIndex          volatile uint16_t
0x20000434  0x4        CMD_USART_RingBuffer.FCBListHead         pointer to FCB_ListItem_t
0x20000438  0x1        CMD_USART_RingBuffer.FCBListSize         uint8_t

address     size       variable name                            type
0x20000010  0x4        ADCPrescTable                            array[4] of volatile const uint8_t

address     size       variable name                            type
0x20000000  0x10       APBAHBPrescTable                         array[16] of volatile const uint8_t

