
========================================================================

** ELF Header Information

    File Name: Objects\Project.axf

    Machine class: ELFCLASS32 (32-bit)
    Data encoding: ELFDATA2LSB (Little endian)
    Header version: EV_CURRENT (Current version)
    Operating System ABI: none
    ABI Version: 0
    File Type: ET_EXEC (Executable) (2)
    Machine: EM_ARM (ARM)

    Image Entry point: 0x080000ed
    Flags: EF_ARM_HASENTRY + EF_ARM_ABI_FLOAT_SOFT (0x05000202)

    ARM ELF revision: 5 (ABI version 2)

    Conforms to Soft float procedure-call standard

    Built with
    Component: ARM Compiler 5.06 update 5 (build 528) Tool: armasm [4d35e1]
    Component: ARM Compiler 5.06 update 5 (build 528) Tool: armlink [4d35e2]

    Header size: 52 bytes (0x34)
    Program header entry size: 32 bytes (0x20)
    Section header entry size: 40 bytes (0x28)

    Program header entries: 1
    Section header entries: 16

    Program header offset: 768148 (0x000bb894)
    Section header offset: 768180 (0x000bb8b4)

    Section header string table index: 15

========================================================================

** Program header #0 (PT_LOAD) [PF_X + PF_W + PF_R + PF_ARM_ENTRY]
    Size : 37600 bytes (20376 bytes in file)
    Virtual address: 0x08000000 (Alignment 8)


========================================================================

** Section #1 'ER_IROM1' (SHT_PROGBITS) [SHF_ALLOC + SHF_EXECINSTR]
    Size   : 20208 bytes (alignment 4)
    Address: 0x08000000

    $d.realdata
    RESET
    __Vectors
        0x08000000:    200043f0    .C.     DCD    536888304
        0x08000004:    080001ad    ....    DCD    134218157
        0x08000008:    08002433    3$..    DCD    134226995
        0x0800000c:    08000199    ....    DCD    134218137
        0x08000010:    08002431    1$..    DCD    134226993
        0x08000014:    080015a9    ....    DCD    134223273
        0x08000018:    08002e79    y...    DCD    134229625
        0x0800001c:    00000000    ....    DCD    0
        0x08000020:    00000000    ....    DCD    0
        0x08000024:    00000000    ....    DCD    0
        0x08000028:    00000000    ....    DCD    0
        0x0800002c:    0800263d    =&..    DCD    134227517
        0x08000030:    080015ff    ....    DCD    134223359
        0x08000034:    00000000    ....    DCD    0
        0x08000038:    080024ad    .$..    DCD    134227117
        0x0800003c:    0800283d    =(..    DCD    134228029
        0x08000040:    080001c7    ....    DCD    134218183
        0x08000044:    080001c7    ....    DCD    134218183
        0x08000048:    080001c7    ....    DCD    134218183
        0x0800004c:    080001c7    ....    DCD    134218183
        0x08000050:    080001c7    ....    DCD    134218183
        0x08000054:    080001c7    ....    DCD    134218183
        0x08000058:    0800172d    -...    DCD    134223661
        0x0800005c:    080001c7    ....    DCD    134218183
        0x08000060:    080001c7    ....    DCD    134218183
        0x08000064:    080001c7    ....    DCD    134218183
        0x08000068:    080001c7    ....    DCD    134218183
        0x0800006c:    080001c7    ....    DCD    134218183
        0x08000070:    080001c7    ....    DCD    134218183
        0x08000074:    080001c7    ....    DCD    134218183
        0x08000078:    080001c7    ....    DCD    134218183
        0x0800007c:    080001c7    ....    DCD    134218183
        0x08000080:    080001c7    ....    DCD    134218183
        0x08000084:    080001c7    ....    DCD    134218183
        0x08000088:    080001c7    ....    DCD    134218183
        0x0800008c:    080001c7    ....    DCD    134218183
        0x08000090:    080001c7    ....    DCD    134218183
        0x08000094:    080001c7    ....    DCD    134218183
        0x08000098:    080001c7    ....    DCD    134218183
        0x0800009c:    080001c7    ....    DCD    134218183
        0x080000a0:    080001c7    ....    DCD    134218183
        0x080000a4:    080001c7    ....    DCD    134218183
        0x080000a8:    080001c7    ....    DCD    134218183
        0x080000ac:    080001c7    ....    DCD    134218183
        0x080000b0:    080001c7    ....    DCD    134218183
        0x080000b4:    080001c7    ....    DCD    134218183
        0x080000b8:    080001c7    ....    DCD    134218183
        0x080000bc:    080001c7    ....    DCD    134218183
        0x080000c0:    080001c7    ....    DCD    134218183
        0x080000c4:    080001c7    ....    DCD    134218183
        0x080000c8:    080001c7    ....    DCD    134218183
        0x080000cc:    080001c7    ....    DCD    134218183
        0x080000d0:    080001c7    ....    DCD    134218183
        0x080000d4:    080001c7    ....    DCD    134218183
        0x080000d8:    080001c7    ....    DCD    134218183
        0x080000dc:    08002b35    5+..    DCD    134228789
        0x080000e0:    080001c7    ....    DCD    134218183
        0x080000e4:    080001c7    ....    DCD    134218183
        0x080000e8:    080001c7    ....    DCD    134218183
    $t
    .ARM.Collect$$$$00000000
    .ARM.Collect$$$$00000001
    __Vectors_End
    __main
    _main_stk
        0x080000ec:    f8dfd00c    ....    LDR      sp,__lit__00000000 ; [0x80000fc] = 0x200043f0
    .ARM.Collect$$$$00000004
    _main_scatterload
        0x080000f0:    f000fc18    ....    BL       __scatterload ; 0x8000924
    .ARM.Collect$$$$00000008
    .ARM.Collect$$$$0000000A
    .ARM.Collect$$$$0000000B
    __main_after_scatterload
    _main_clock
    _main_cpp_init
    _main_init
        0x080000f4:    4800        .H      LDR      r0,[pc,#0] ; [0x80000f8] = 0x8003a79
        0x080000f6:    4700        .G      BX       r0
    $d
        0x080000f8:    08003a79    y:..    DCD    134232697
    .ARM.Collect$$$$00002712
    __lit__00000000
    .ARM.Collect$$$$0000000D
    .ARM.Collect$$$$0000000F
    __rt_final_cpp
    __rt_final_exit
        0x080000fc:    200043f0    .C.     DCD    536888304
    $t
    .emb_text
    vPortSVCHandler
        0x08000100:    4b22        "K      LDR      r3,[pc,#136] ; [0x800018c] = 0x20000048
        0x08000102:    6819        .h      LDR      r1,[r3,#0]
        0x08000104:    6808        .h      LDR      r0,[r1,#0]
        0x08000106:    e8b00ff0    ....    LDM      r0!,{r4-r11}
        0x0800010a:    f3808809    ....    MSR      PSP,r0
        0x0800010e:    f3bf8f6f    ..o.    ISB      
        0x08000112:    f04f0000    O...    MOV      r0,#0
        0x08000116:    f3808811    ....    MSR      BASEPRI,r0
        0x0800011a:    f04e0e0d    N...    ORR      lr,lr,#0xd
        0x0800011e:    4770        pG      BX       lr
    $d
        0x08000120:    00000000    ....    DCD    0
    $t
    __asm___6_port_c_39a90d8d__prvStartFirstTask
        0x08000124:    4806        .H      LDR      r0,[pc,#24] ; [0x8000140] = 0xe000ed08
        0x08000126:    6800        .h      LDR      r0,[r0,#0]
        0x08000128:    6800        .h      LDR      r0,[r0,#0]
        0x0800012a:    f3808808    ....    MSR      MSP,r0
        0x0800012e:    b662        b.      CPSIE    i
        0x08000130:    b661        a.      CPSIE    f
        0x08000132:    f3bf8f4f    ..O.    DSB      
        0x08000136:    f3bf8f6f    ..o.    ISB      
        0x0800013a:    df00        ..      SVC      #0x0 ; formerly SWI
        0x0800013c:    bf00        ..      NOP      
        0x0800013e:    bf00        ..      NOP      
    $d
        0x08000140:    e000ed08    ....    DCD    3758157064
    $t
    xPortPendSVHandler
        0x08000144:    f3ef8009    ....    MRS      r0,PSP
        0x08000148:    f3bf8f6f    ..o.    ISB      
        0x0800014c:    4b0f        .K      LDR      r3,[pc,#60] ; [0x800018c] = 0x20000048
        0x0800014e:    681a        .h      LDR      r2,[r3,#0]
        0x08000150:    e9200ff0     ...    STMDB    r0!,{r4-r11}
        0x08000154:    6010        .`      STR      r0,[r2,#0]
        0x08000156:    b508        ..      PUSH     {r3,lr}
        0x08000158:    f04f0050    O.P.    MOV      r0,#0x50
        0x0800015c:    f3808811    ....    MSR      BASEPRI,r0
        0x08000160:    f3bf8f4f    ..O.    DSB      
        0x08000164:    f3bf8f6f    ..o.    ISB      
        0x08000168:    f004f964    ..d.    BL       vTaskSwitchContext ; 0x8004434
        0x0800016c:    f04f0000    O...    MOV      r0,#0
        0x08000170:    f3808811    ....    MSR      BASEPRI,r0
        0x08000174:    e8bd4008    ...@    POP      {r3,lr}
        0x08000178:    6819        .h      LDR      r1,[r3,#0]
        0x0800017a:    6808        .h      LDR      r0,[r1,#0]
        0x0800017c:    e8b00ff0    ....    LDM      r0!,{r4-r11}
        0x08000180:    f3808809    ....    MSR      PSP,r0
        0x08000184:    f3bf8f6f    ..o.    ISB      
        0x08000188:    4770        pG      BX       lr
        0x0800018a:    bf00        ..      NOP      
    $d
        0x0800018c:    20000048    H..     DCD    536870984
    $t
    vPortGetIPSR
        0x08000190:    f3ef8005    ....    MRS      r0,IPSR
        0x08000194:    4770        pG      BX       lr
        0x08000196:    0000        ..      MOVS     r0,r0
    .emb_text
    HardFault_Handler
        0x08000198:    f01e0f04    ....    TST      lr,#4
        0x0800019c:    bf0c        ..      ITE      EQ
        0x0800019e:    f3ef8008    ....    MRSEQ    r0,MSP
        0x080001a2:    f3ef8009    ....    MRSNE    r0,PSP
        0x080001a6:    f001bba9    ....    B.W      HardFault_Handler_C ; 0x80018fc
        0x080001aa:    0000        ..      MOVS     r0,r0
    .text
    Reset_Handler
        0x080001ac:    4806        .H      LDR      r0,[pc,#24] ; [0x80001c8] = 0x8002841
        0x080001ae:    4780        .G      BLX      r0
        0x080001b0:    4806        .H      LDR      r0,[pc,#24] ; [0x80001cc] = 0x80000ed
        0x080001b2:    4700        .G      BX       r0
        0x080001b4:    e7fe        ..      B        0x80001b4 ; Reset_Handler + 8
        0x080001b6:    e7fe        ..      B        0x80001b6 ; Reset_Handler + 10
        0x080001b8:    e7fe        ..      B        0x80001b8 ; Reset_Handler + 12
        0x080001ba:    e7fe        ..      B        0x80001ba ; Reset_Handler + 14
        0x080001bc:    e7fe        ..      B        0x80001bc ; Reset_Handler + 16
        0x080001be:    e7fe        ..      B        0x80001be ; Reset_Handler + 18
        0x080001c0:    e7fe        ..      B        0x80001c0 ; Reset_Handler + 20
        0x080001c2:    e7fe        ..      B        0x80001c2 ; Reset_Handler + 22
        0x080001c4:    e7fe        ..      B        0x80001c4 ; Reset_Handler + 24
    ADC1_2_IRQHandler
    CAN1_RX1_IRQHandler
    CAN1_SCE_IRQHandler
    DMA1_Channel1_IRQHandler
    DMA1_Channel2_IRQHandler
    DMA1_Channel3_IRQHandler
    DMA1_Channel4_IRQHandler
    DMA1_Channel5_IRQHandler
    DMA1_Channel6_IRQHandler
    DMA1_Channel7_IRQHandler
    EXTI15_10_IRQHandler
    EXTI1_IRQHandler
    EXTI2_IRQHandler
    EXTI3_IRQHandler
    EXTI4_IRQHandler
    EXTI9_5_IRQHandler
    FLASH_IRQHandler
    I2C1_ER_IRQHandler
    I2C1_EV_IRQHandler
    I2C2_ER_IRQHandler
    I2C2_EV_IRQHandler
    PVD_IRQHandler
    RCC_IRQHandler
    RTCAlarm_IRQHandler
    RTC_IRQHandler
    SPI1_IRQHandler
    SPI2_IRQHandler
    TAMPER_IRQHandler
    TIM1_BRK_IRQHandler
    TIM1_CC_IRQHandler
    TIM1_TRG_COM_IRQHandler
    TIM1_UP_IRQHandler
    TIM2_IRQHandler
    TIM3_IRQHandler
    TIM4_IRQHandler
    USART1_IRQHandler
    USART2_IRQHandler
    USBWakeUp_IRQHandler
    USB_HP_CAN1_TX_IRQHandler
    USB_LP_CAN1_RX0_IRQHandler
    WWDG_IRQHandler
        0x080001c6:    e7fe        ..      B        ADC1_2_IRQHandler ; 0x80001c6
    $d
        0x080001c8:    08002841    A(..    DCD    134228033
        0x080001cc:    080000ed    ....    DCD    134217965
    $t
    .text
    __aeabi_memcpy
    __aeabi_memcpy4
    __aeabi_memcpy8
        0x080001d0:    ea400301    @...    ORR      r3,r0,r1
        0x080001d4:    079b        ..      LSLS     r3,r3,#30
        0x080001d6:    d003        ..      BEQ      0x80001e0 ; __aeabi_memcpy + 16
        0x080001d8:    e009        ..      B        0x80001ee ; __aeabi_memcpy + 30
        0x080001da:    c908        ..      LDM      r1!,{r3}
        0x080001dc:    1f12        ..      SUBS     r2,r2,#4
        0x080001de:    c008        ..      STM      r0!,{r3}
        0x080001e0:    2a04        .*      CMP      r2,#4
        0x080001e2:    d2fa        ..      BCS      0x80001da ; __aeabi_memcpy + 10
        0x080001e4:    e003        ..      B        0x80001ee ; __aeabi_memcpy + 30
        0x080001e6:    f8113b01    ...;    LDRB     r3,[r1],#1
        0x080001ea:    f8003b01    ...;    STRB     r3,[r0],#1
        0x080001ee:    1e52        R.      SUBS     r2,r2,#1
        0x080001f0:    d2f9        ..      BCS      0x80001e6 ; __aeabi_memcpy + 22
        0x080001f2:    4770        pG      BX       lr
    .text
    __aeabi_memset
    __aeabi_memset4
    __aeabi_memset8
        0x080001f4:    b2d2        ..      UXTB     r2,r2
        0x080001f6:    e001        ..      B        0x80001fc ; __aeabi_memset + 8
        0x080001f8:    f8002b01    ...+    STRB     r2,[r0],#1
        0x080001fc:    1e49        I.      SUBS     r1,r1,#1
        0x080001fe:    d2fb        ..      BCS      0x80001f8 ; __aeabi_memset + 4
        0x08000200:    4770        pG      BX       lr
    __aeabi_memclr
    __aeabi_memclr4
    __aeabi_memclr8
        0x08000202:    2200        ."      MOVS     r2,#0
        0x08000204:    e7f6        ..      B        __aeabi_memset ; 0x80001f4
    _memset$wrapper
        0x08000206:    b510        ..      PUSH     {r4,lr}
        0x08000208:    4613        .F      MOV      r3,r2
        0x0800020a:    460a        .F      MOV      r2,r1
        0x0800020c:    4604        .F      MOV      r4,r0
        0x0800020e:    4619        .F      MOV      r1,r3
        0x08000210:    f7fffff0    ....    BL       __aeabi_memset ; 0x80001f4
        0x08000214:    4620         F      MOV      r0,r4
        0x08000216:    bd10        ..      POP      {r4,pc}
    .text
    strstr
        0x08000218:    b530        0.      PUSH     {r4,r5,lr}
        0x0800021a:    4605        .F      MOV      r5,r0
        0x0800021c:    462a        *F      MOV      r2,r5
        0x0800021e:    460b        .F      MOV      r3,r1
        0x08000220:    f8120b01    ....    LDRB     r0,[r2],#1
        0x08000224:    f8134b01    ...K    LDRB     r4,[r3],#1
        0x08000228:    b108        ..      CBZ      r0,0x800022e ; strstr + 22
        0x0800022a:    42a0        .B      CMP      r0,r4
        0x0800022c:    d0f8        ..      BEQ      0x8000220 ; strstr + 8
        0x0800022e:    b11c        ..      CBZ      r4,0x8000238 ; strstr + 32
        0x08000230:    2800        .(      CMP      r0,#0
        0x08000232:    d002        ..      BEQ      0x800023a ; strstr + 34
        0x08000234:    1c6d        m.      ADDS     r5,r5,#1
        0x08000236:    e7f1        ..      B        0x800021c ; strstr + 4
        0x08000238:    4628        (F      MOV      r0,r5
        0x0800023a:    bd30        0.      POP      {r4,r5,pc}
    .text
    strcmp
        0x0800023c:    b510        ..      PUSH     {r4,lr}
        0x0800023e:    2200        ."      MOVS     r2,#0
        0x08000240:    e000        ..      B        0x8000244 ; strcmp + 8
        0x08000242:    1c52        R.      ADDS     r2,r2,#1
        0x08000244:    5c83        .\      LDRB     r3,[r0,r2]
        0x08000246:    5c8c        .\      LDRB     r4,[r1,r2]
        0x08000248:    42a3        .B      CMP      r3,r4
        0x0800024a:    d101        ..      BNE      0x8000250 ; strcmp + 20
        0x0800024c:    2b00        .+      CMP      r3,#0
        0x0800024e:    d1f8        ..      BNE      0x8000242 ; strcmp + 6
        0x08000250:    b2d8        ..      UXTB     r0,r3
        0x08000252:    b2e1        ..      UXTB     r1,r4
        0x08000254:    1a40        @.      SUBS     r0,r0,r1
        0x08000256:    bd10        ..      POP      {r4,pc}
    .text
    __aeabi_dadd
        0x08000258:    e92d4ffe    -..O    PUSH     {r1-r11,lr}
        0x0800025c:    4680        .F      MOV      r8,r0
        0x0800025e:    ea810003    ....    EOR      r0,r1,r3
        0x08000262:    0fc0        ..      LSRS     r0,r0,#31
        0x08000264:    460c        .F      MOV      r4,r1
        0x08000266:    9000        ..      STR      r0,[sp,#0]
        0x08000268:    f0214100    !..A    BIC      r1,r1,#0x80000000
        0x0800026c:    f0234500    #..E    BIC      r5,r3,#0x80000000
        0x08000270:    ebb80002    ....    SUBS     r0,r8,r2
        0x08000274:    41a9        .A      SBCS     r1,r1,r5
        0x08000276:    d205        ..      BCS      0x8000284 ; __aeabi_dadd + 44
        0x08000278:    4640        @F      MOV      r0,r8
        0x0800027a:    4621        !F      MOV      r1,r4
        0x0800027c:    4690        .F      MOV      r8,r2
        0x0800027e:    461c        .F      MOV      r4,r3
        0x08000280:    460b        .F      MOV      r3,r1
        0x08000282:    4602        .F      MOV      r2,r0
        0x08000284:    f0234000    #..@    BIC      r0,r3,#0x80000000
        0x08000288:    4310        .C      ORRS     r0,r0,r2
        0x0800028a:    d047        G.      BEQ      0x800031c ; __aeabi_dadd + 196
        0x0800028c:    0d27        '.      LSRS     r7,r4,#20
        0x0800028e:    f3c7000a    ....    UBFX     r0,r7,#0,#11
        0x08000292:    f3c3510a    ...Q    UBFX     r1,r3,#20,#11
        0x08000296:    9002        ..      STR      r0,[sp,#8]
        0x08000298:    1a40        @.      SUBS     r0,r0,r1
        0x0800029a:    9001        ..      STR      r0,[sp,#4]
        0x0800029c:    2840        @(      CMP      r0,#0x40
        0x0800029e:    da6b        k.      BGE      0x8000378 ; __aeabi_dadd + 288
        0x080002a0:    f3c30013    ....    UBFX     r0,r3,#0,#20
        0x080002a4:    f4401b80    @...    ORR      r11,r0,#0x100000
        0x080002a8:    9800        ..      LDR      r0,[sp,#0]
        0x080002aa:    4692        .F      MOV      r10,r2
        0x080002ac:    b120         .      CBZ      r0,0x80002b8 ; __aeabi_dadd + 96
        0x080002ae:    2300        .#      MOVS     r3,#0
        0x080002b0:    ebd20a03    ....    RSBS     r10,r2,r3
        0x080002b4:    eb630b0b    c...    SBC      r11,r3,r11
        0x080002b8:    9801        ..      LDR      r0,[sp,#4]
        0x080002ba:    4659        YF      MOV      r1,r11
        0x080002bc:    f1c00240    ..@.    RSB      r2,r0,#0x40
        0x080002c0:    4650        PF      MOV      r0,r10
        0x080002c2:    f000fa04    ....    BL       __aeabi_llsl ; 0x80006ce
        0x080002c6:    4606        .F      MOV      r6,r0
        0x080002c8:    460d        .F      MOV      r5,r1
        0x080002ca:    4650        PF      MOV      r0,r10
        0x080002cc:    4659        YF      MOV      r1,r11
        0x080002ce:    9a01        ..      LDR      r2,[sp,#4]
        0x080002d0:    f000fa1c    ....    BL       __aeabi_lasr ; 0x800070c
        0x080002d4:    eb100008    ....    ADDS     r0,r0,r8
        0x080002d8:    4161        aA      ADCS     r1,r1,r4
        0x080002da:    2400        .$      MOVS     r4,#0
        0x080002dc:    ea875211    ...R    EOR      r2,r7,r1,LSR #20
        0x080002e0:    ea8473e7    ...s    EOR      r3,r4,r7,ASR #31
        0x080002e4:    431a        .C      ORRS     r2,r2,r3
        0x080002e6:    d040        @.      BEQ      0x800036a ; __aeabi_dadd + 274
        0x080002e8:    9a00        ..      LDR      r2,[sp,#0]
        0x080002ea:    b362        b.      CBZ      r2,0x8000346 ; __aeabi_dadd + 238
        0x080002ec:    9a01        ..      LDR      r2,[sp,#4]
        0x080002ee:    2a01        .*      CMP      r2,#1
        0x080002f0:    ea4f5207    O..R    LSL      r2,r7,#20
        0x080002f4:    dc15        ..      BGT      0x8000322 ; __aeabi_dadd + 202
        0x080002f6:    1b00        ..      SUBS     r0,r0,r4
        0x080002f8:    eb610102    a...    SBC      r1,r1,r2
        0x080002fc:    f04f4200    O..B    MOV      r2,#0x80000000
        0x08000300:    ea025207    ...R    AND      r2,r2,r7,LSL #20
        0x08000304:    e9cd4200    ...B    STRD     r4,r2,[sp,#0]
        0x08000308:    1c00        ..      ADDS     r0,r0,#0
        0x0800030a:    f5411180    A...    ADC      r1,r1,#0x100000
        0x0800030e:    4632        2F      MOV      r2,r6
        0x08000310:    462b        +F      MOV      r3,r5
        0x08000312:    f000faa1    ....    BL       _double_epilogue ; 0x8000858
        0x08000316:    b003        ..      ADD      sp,sp,#0xc
        0x08000318:    e8bd8ff0    ....    POP      {r4-r11,pc}
        0x0800031c:    4640        @F      MOV      r0,r8
        0x0800031e:    4621        !F      MOV      r1,r4
        0x08000320:    e7f9        ..      B        0x8000316 ; __aeabi_dadd + 190
        0x08000322:    1b00        ..      SUBS     r0,r0,r4
        0x08000324:    eb610102    a...    SBC      r1,r1,r2
        0x08000328:    1c00        ..      ADDS     r0,r0,#0
        0x0800032a:    f5411380    A...    ADC      r3,r1,#0x100000
        0x0800032e:    1800        ..      ADDS     r0,r0,r0
        0x08000330:    415b        [A      ADCS     r3,r3,r3
        0x08000332:    1820         .      ADDS     r0,r4,r0
        0x08000334:    f5a21700    ....    SUB      r7,r2,#0x200000
        0x08000338:    eb470103    G...    ADC      r1,r7,r3
        0x0800033c:    ea4070d5    @..p    ORR      r0,r0,r5,LSR #31
        0x08000340:    19b6        ..      ADDS     r6,r6,r6
        0x08000342:    416d        mA      ADCS     r5,r5,r5
        0x08000344:    e011        ..      B        0x800036a ; __aeabi_dadd + 274
        0x08000346:    086d        m.      LSRS     r5,r5,#1
        0x08000348:    ea4f0636    O.6.    RRX      r6,r6
        0x0800034c:    ea4575c0    E..u    ORR      r5,r5,r0,LSL #31
        0x08000350:    ea4f5207    O..R    LSL      r2,r7,#20
        0x08000354:    1b00        ..      SUBS     r0,r0,r4
        0x08000356:    eb610102    a...    SBC      r1,r1,r2
        0x0800035a:    1c00        ..      ADDS     r0,r0,#0
        0x0800035c:    f5411180    A...    ADC      r1,r1,#0x100000
        0x08000360:    0849        I.      LSRS     r1,r1,#1
        0x08000362:    ea4f0030    O.0.    RRX      r0,r0
        0x08000366:    1900        ..      ADDS     r0,r0,r4
        0x08000368:    4151        QA      ADCS     r1,r1,r2
        0x0800036a:    4632        2F      MOV      r2,r6
        0x0800036c:    462b        +F      MOV      r3,r5
        0x0800036e:    b003        ..      ADD      sp,sp,#0xc
        0x08000370:    e8bd4ff0    ...O    POP      {r4-r11,lr}
        0x08000374:    f000ba61    ..a.    B.W      _double_round ; 0x800083a
        0x08000378:    9800        ..      LDR      r0,[sp,#0]
        0x0800037a:    2201        ."      MOVS     r2,#1
        0x0800037c:    0040        @.      LSLS     r0,r0,#1
        0x0800037e:    2300        .#      MOVS     r3,#0
        0x08000380:    ebd00202    ....    RSBS     r2,r0,r2
        0x08000384:    eb6373e0    c..s    SBC      r3,r3,r0,ASR #31
        0x08000388:    9800        ..      LDR      r0,[sp,#0]
        0x0800038a:    4621        !F      MOV      r1,r4
        0x0800038c:    ea4f74e0    O..t    ASR      r4,r0,#31
        0x08000390:    ebb80000    ....    SUBS     r0,r8,r0
        0x08000394:    eb610104    a...    SBC      r1,r1,r4
        0x08000398:    e7e9        ..      B        0x800036e ; __aeabi_dadd + 278
    __aeabi_dsub
        0x0800039a:    f0834300    ...C    EOR      r3,r3,#0x80000000
        0x0800039e:    e75b        [.      B        __aeabi_dadd ; 0x8000258
    __aeabi_drsub
        0x080003a0:    f0814100    ...A    EOR      r1,r1,#0x80000000
        0x080003a4:    e758        X.      B        __aeabi_dadd ; 0x8000258
    .text
    __aeabi_dmul
        0x080003a6:    e92d4ffe    -..O    PUSH     {r1-r11,lr}
        0x080003aa:    ea810403    ....    EOR      r4,r1,r3
        0x080003ae:    f0044400    ...D    AND      r4,r4,#0x80000000
        0x080003b2:    f0214100    !..A    BIC      r1,r1,#0x80000000
        0x080003b6:    9400        ..      STR      r4,[sp,#0]
        0x080003b8:    f04f0b00    O...    MOV      r11,#0
        0x080003bc:    f0234300    #..C    BIC      r3,r3,#0x80000000
        0x080003c0:    ea500401    P...    ORRS     r4,r0,r1
        0x080003c4:    d05e        ^.      BEQ      0x8000484 ; __aeabi_dmul + 222
        0x080003c6:    ea520403    R...    ORRS     r4,r2,r3
        0x080003ca:    d05b        [.      BEQ      0x8000484 ; __aeabi_dmul + 222
        0x080003cc:    f3c3540a    ...T    UBFX     r4,r3,#20,#11
        0x080003d0:    f3c1550a    ...U    UBFX     r5,r1,#20,#11
        0x080003d4:    442c        ,D      ADD      r4,r4,r5
        0x080003d6:    f2a434f3    ...4    SUB      r4,r4,#0x3f3
        0x080003da:    9401        ..      STR      r4,[sp,#4]
        0x080003dc:    fba05402    ...T    UMULL    r5,r4,r0,r2
        0x080003e0:    f3c10113    ....    UBFX     r1,r1,#0,#20
        0x080003e4:    f4411180    A...    ORR      r1,r1,#0x100000
        0x080003e8:    f3c30313    ....    UBFX     r3,r3,#0,#20
        0x080003ec:    f4431380    C...    ORR      r3,r3,#0x100000
        0x080003f0:    fb014402    ...D    MLA      r4,r1,r2,r4
        0x080003f4:    fb004e03    ...N    MLA      lr,r0,r3,r4
        0x080003f8:    0a84        ..      LSRS     r4,r0,#10
        0x080003fa:    0a97        ..      LSRS     r7,r2,#10
        0x080003fc:    ea445481    D..T    ORR      r4,r4,r1,LSL #22
        0x08000400:    ea475783    G..W    ORR      r7,r7,r3,LSL #22
        0x08000404:    fba46807    ...h    UMULL    r6,r8,r4,r7
        0x08000408:    9502        ..      STR      r5,[sp,#8]
        0x0800040a:    0a8d        ..      LSRS     r5,r1,#10
        0x0800040c:    fb058507    ....    MLA      r5,r5,r7,r8
        0x08000410:    ea4f2c93    O..,    LSR      r12,r3,#10
        0x08000414:    fb04540c    ...T    MLA      r4,r4,r12,r5
        0x08000418:    0527        '.      LSLS     r7,r4,#20
        0x0800041a:    9d02        ..      LDR      r5,[sp,#8]
        0x0800041c:    ea4f5806    O..X    LSL      r8,r6,#20
        0x08000420:    ea473716    G..7    ORR      r7,r7,r6,LSR #12
        0x08000424:    ebb50508    ....    SUBS     r5,r5,r8
        0x08000428:    eb6e0c07    n...    SBC      r12,lr,r7
        0x0800042c:    0e87        ..      LSRS     r7,r0,#26
        0x0800042e:    0e92        ..      LSRS     r2,r2,#26
        0x08000430:    ea471781    G...    ORR      r7,r7,r1,LSL #6
        0x08000434:    ea421283    B...    ORR      r2,r2,r3,LSL #6
        0x08000438:    fba70102    ....    UMULL    r0,r1,r7,r2
        0x0800043c:    ebb6010b    ....    SUBS     r1,r6,r11
        0x08000440:    eb640400    d...    SBC      r4,r4,r0
        0x08000444:    0d2b        +.      LSRS     r3,r5,#20
        0x08000446:    ea43330c    C..3    ORR      r3,r3,r12,LSL #12
        0x0800044a:    185e        ^.      ADDS     r6,r3,r1
        0x0800044c:    eb44501c    D..P    ADC      r0,r4,r12,LSR #20
        0x08000450:    46da        .F      MOV      r10,r11
        0x08000452:    4651        QF      MOV      r1,r10
        0x08000454:    fbe70102    ....    UMLAL    r0,r1,r7,r2
        0x08000458:    f3c50413    ....    UBFX     r4,r5,#0,#20
        0x0800045c:    ea4f330b    O..3    LSL      r3,r11,#12
        0x08000460:    ea435314    C..S    ORR      r3,r3,r4,LSR #20
        0x08000464:    ea4f3204    O..2    LSL      r2,r4,#12
        0x08000468:    9c01        ..      LDR      r4,[sp,#4]
        0x0800046a:    ea430306    C...    ORR      r3,r3,r6
        0x0800046e:    f1a4040c    ....    SUB      r4,r4,#0xc
        0x08000472:    9402        ..      STR      r4,[sp,#8]
        0x08000474:    9c00        ..      LDR      r4,[sp,#0]
        0x08000476:    e9cdb400    ....    STRD     r11,r4,[sp,#0]
        0x0800047a:    f000f9ed    ....    BL       _double_epilogue ; 0x8000858
        0x0800047e:    b003        ..      ADD      sp,sp,#0xc
        0x08000480:    e8bd8ff0    ....    POP      {r4-r11,pc}
        0x08000484:    2000        .       MOVS     r0,#0
        0x08000486:    4601        .F      MOV      r1,r0
        0x08000488:    e7f9        ..      B        0x800047e ; __aeabi_dmul + 216
    .text
    __aeabi_ddiv
        0x0800048a:    e92d4df0    -..M    PUSH     {r4-r8,r10,r11,lr}
        0x0800048e:    ea810403    ....    EOR      r4,r1,r3
        0x08000492:    f0044b00    ...K    AND      r11,r4,#0x80000000
        0x08000496:    f0214500    !..E    BIC      r5,r1,#0x80000000
        0x0800049a:    4614        .F      MOV      r4,r2
        0x0800049c:    f04f0a00    O...    MOV      r10,#0
        0x080004a0:    f0234100    #..A    BIC      r1,r3,#0x80000000
        0x080004a4:    ea500205    P...    ORRS     r2,r0,r5
        0x080004a8:    d020         .      BEQ      0x80004ec ; __aeabi_ddiv + 98
        0x080004aa:    ea540201    T...    ORRS     r2,r4,r1
        0x080004ae:    d01d        ..      BEQ      0x80004ec ; __aeabi_ddiv + 98
        0x080004b0:    f3c5570a    ...W    UBFX     r7,r5,#20,#11
        0x080004b4:    4602        .F      MOV      r2,r0
        0x080004b6:    f3c50313    ....    UBFX     r3,r5,#0,#20
        0x080004ba:    f3c10013    ....    UBFX     r0,r1,#0,#20
        0x080004be:    f3c1560a    ...V    UBFX     r6,r1,#20,#11
        0x080004c2:    f4401580    @...    ORR      r5,r0,#0x100000
        0x080004c6:    f4431380    C...    ORR      r3,r3,#0x100000
        0x080004ca:    eba70806    ....    SUB      r8,r7,r6
        0x080004ce:    1b10        ..      SUBS     r0,r2,r4
        0x080004d0:    46d6        .F      MOV      lr,r10
        0x080004d2:    f20838fd    ...8    ADD      r8,r8,#0x3fd
        0x080004d6:    eb730005    s...    SBCS     r0,r3,r5
        0x080004da:    d302        ..      BCC      0x80004e2 ; __aeabi_ddiv + 88
        0x080004dc:    f1080801    ....    ADD      r8,r8,#1
        0x080004e0:    e001        ..      B        0x80004e6 ; __aeabi_ddiv + 92
        0x080004e2:    1892        ..      ADDS     r2,r2,r2
        0x080004e4:    415b        [A      ADCS     r3,r3,r3
        0x080004e6:    f1b80f00    ....    CMP      r8,#0
        0x080004ea:    da03        ..      BGE      0x80004f4 ; __aeabi_ddiv + 106
        0x080004ec:    2000        .       MOVS     r0,#0
        0x080004ee:    4601        .F      MOV      r1,r0
        0x080004f0:    e8bd8df0    ....    POP      {r4-r8,r10,r11,pc}
        0x080004f4:    2000        .       MOVS     r0,#0
        0x080004f6:    f44f1180    O...    MOV      r1,#0x100000
        0x080004fa:    4606        .F      MOV      r6,r0
        0x080004fc:    4684        .F      MOV      r12,r0
        0x080004fe:    e00e        ..      B        0x800051e ; __aeabi_ddiv + 148
        0x08000500:    1b17        ..      SUBS     r7,r2,r4
        0x08000502:    eb730705    s...    SBCS     r7,r3,r5
        0x08000506:    d305        ..      BCC      0x8000514 ; __aeabi_ddiv + 138
        0x08000508:    1b12        ..      SUBS     r2,r2,r4
        0x0800050a:    eb630305    c...    SBC      r3,r3,r5
        0x0800050e:    4306        .C      ORRS     r6,r6,r0
        0x08000510:    ea4c0c01    L...    ORR      r12,r12,r1
        0x08000514:    0849        I.      LSRS     r1,r1,#1
        0x08000516:    ea4f0030    O.0.    RRX      r0,r0
        0x0800051a:    1892        ..      ADDS     r2,r2,r2
        0x0800051c:    415b        [A      ADCS     r3,r3,r3
        0x0800051e:    ea500701    P...    ORRS     r7,r0,r1
        0x08000522:    d1ed        ..      BNE      0x8000500 ; __aeabi_ddiv + 118
        0x08000524:    ea520003    R...    ORRS     r0,r2,r3
        0x08000528:    d012        ..      BEQ      0x8000550 ; __aeabi_ddiv + 198
        0x0800052a:    ea820004    ....    EOR      r0,r2,r4
        0x0800052e:    ea830105    ....    EOR      r1,r3,r5
        0x08000532:    4308        .C      ORRS     r0,r0,r1
        0x08000534:    d005        ..      BEQ      0x8000542 ; __aeabi_ddiv + 184
        0x08000536:    1b10        ..      SUBS     r0,r2,r4
        0x08000538:    41ab        .A      SBCS     r3,r3,r5
        0x0800053a:    d206        ..      BCS      0x800054a ; __aeabi_ddiv + 192
        0x0800053c:    2201        ."      MOVS     r2,#1
        0x0800053e:    2300        .#      MOVS     r3,#0
        0x08000540:    e006        ..      B        0x8000550 ; __aeabi_ddiv + 198
        0x08000542:    2200        ."      MOVS     r2,#0
        0x08000544:    f04f4300    O..C    MOV      r3,#0x80000000
        0x08000548:    e002        ..      B        0x8000550 ; __aeabi_ddiv + 198
        0x0800054a:    f06f0201    o...    MVN      r2,#1
        0x0800054e:    1053        S.      ASRS     r3,r2,#1
        0x08000550:    eb1a0006    ....    ADDS     r0,r10,r6
        0x08000554:    eb4c5108    L..Q    ADC      r1,r12,r8,LSL #20
        0x08000558:    eb10000a    ....    ADDS     r0,r0,r10
        0x0800055c:    eb41010b    A...    ADC      r1,r1,r11
        0x08000560:    e8bd4df0    ...M    POP      {r4-r8,r10,r11,lr}
        0x08000564:    f000b969    ..i.    B.W      _double_round ; 0x800083a
    .text
    __aeabi_d2iz
        0x08000568:    b570        p.      PUSH     {r4-r6,lr}
        0x0800056a:    f3c1520a    ...R    UBFX     r2,r1,#20,#11
        0x0800056e:    f0014500    ...E    AND      r5,r1,#0x80000000
        0x08000572:    2400        .$      MOVS     r4,#0
        0x08000574:    f3c10113    ....    UBFX     r1,r1,#0,#20
        0x08000578:    f24033ff    @..3    MOV      r3,#0x3ff
        0x0800057c:    f4411180    A...    ORR      r1,r1,#0x100000
        0x08000580:    429a        .B      CMP      r2,r3
        0x08000582:    da01        ..      BGE      0x8000588 ; __aeabi_d2iz + 32
        0x08000584:    2000        .       MOVS     r0,#0
        0x08000586:    bd70        p.      POP      {r4-r6,pc}
        0x08000588:    f2404333    @.3C    MOV      r3,#0x433
        0x0800058c:    429a        .B      CMP      r2,r3
        0x0800058e:    f2a24233    ..3B    SUB      r2,r2,#0x433
        0x08000592:    dc03        ..      BGT      0x800059c ; __aeabi_d2iz + 52
        0x08000594:    4252        RB      RSBS     r2,r2,#0
        0x08000596:    f000f8a9    ....    BL       __aeabi_llsr ; 0x80006ec
        0x0800059a:    e000        ..      B        0x800059e ; __aeabi_d2iz + 54
        0x0800059c:    4090        .@      LSLS     r0,r0,r2
        0x0800059e:    432c        ,C      ORRS     r4,r4,r5
        0x080005a0:    d0f1        ..      BEQ      0x8000586 ; __aeabi_d2iz + 30
        0x080005a2:    4240        @B      RSBS     r0,r0,#0
        0x080005a4:    bd70        p.      POP      {r4-r6,pc}
        0x080005a6:    0000        ..      MOVS     r0,r0
    .text
    __aeabi_cdcmpeq
    __aeabi_cdcmple
        0x080005a8:    b530        0.      PUSH     {r4,r5,lr}
        0x080005aa:    1e04        ..      SUBS     r4,r0,#0
        0x080005ac:    f1710400    q...    SBCS     r4,r1,#0
        0x080005b0:    db04        ..      BLT      0x80005bc ; __aeabi_cdcmpeq + 20
        0x080005b2:    f04f4400    O..D    MOV      r4,#0x80000000
        0x080005b6:    4240        @B      RSBS     r0,r0,#0
        0x080005b8:    eb640101    d...    SBC      r1,r4,r1
        0x080005bc:    1e14        ..      SUBS     r4,r2,#0
        0x080005be:    f1730400    s...    SBCS     r4,r3,#0
        0x080005c2:    db05        ..      BLT      0x80005d0 ; __aeabi_cdcmpeq + 40
        0x080005c4:    461c        .F      MOV      r4,r3
        0x080005c6:    f04f4300    O..C    MOV      r3,#0x80000000
        0x080005ca:    4252        RB      RSBS     r2,r2,#0
        0x080005cc:    eb630304    c...    SBC      r3,r3,r4
        0x080005d0:    428b        .B      CMP      r3,r1
        0x080005d2:    bf08        ..      IT       EQ
        0x080005d4:    4282        .B      CMPEQ    r2,r0
        0x080005d6:    bd30        0.      POP      {r4,r5,pc}
    .text
    __aeabi_cdrcmple
        0x080005d8:    b530        0.      PUSH     {r4,r5,lr}
        0x080005da:    1e04        ..      SUBS     r4,r0,#0
        0x080005dc:    f1710400    q...    SBCS     r4,r1,#0
        0x080005e0:    db04        ..      BLT      0x80005ec ; __aeabi_cdrcmple + 20
        0x080005e2:    f04f4400    O..D    MOV      r4,#0x80000000
        0x080005e6:    4240        @B      RSBS     r0,r0,#0
        0x080005e8:    eb640101    d...    SBC      r1,r4,r1
        0x080005ec:    1e14        ..      SUBS     r4,r2,#0
        0x080005ee:    f1730400    s...    SBCS     r4,r3,#0
        0x080005f2:    db05        ..      BLT      0x8000600 ; __aeabi_cdrcmple + 40
        0x080005f4:    461c        .F      MOV      r4,r3
        0x080005f6:    f04f4300    O..C    MOV      r3,#0x80000000
        0x080005fa:    4252        RB      RSBS     r2,r2,#0
        0x080005fc:    eb630304    c...    SBC      r3,r3,r4
        0x08000600:    4299        .B      CMP      r1,r3
        0x08000602:    bf08        ..      IT       EQ
        0x08000604:    4290        .B      CMPEQ    r0,r2
        0x08000606:    bd30        0.      POP      {r4,r5,pc}
    .text
    __aeabi_d2f
        0x08000608:    f0014300    ...C    AND      r3,r1,#0x80000000
        0x0800060c:    b430        0.      PUSH     {r4,r5}
        0x0800060e:    f0214100    !..A    BIC      r1,r1,#0x80000000
        0x08000612:    ea500201    P...    ORRS     r2,r0,r1
        0x08000616:    d006        ..      BEQ      0x8000626 ; __aeabi_d2f + 30
        0x08000618:    0d0a        ..      LSRS     r2,r1,#20
        0x0800061a:    f5a27260    ..`r    SUB      r2,r2,#0x380
        0x0800061e:    f3c10113    ....    UBFX     r1,r1,#0,#20
        0x08000622:    2a00        .*      CMP      r2,#0
        0x08000624:    dc02        ..      BGT      0x800062c ; __aeabi_d2f + 36
        0x08000626:    bc30        0.      POP      {r4,r5}
        0x08000628:    2000        .       MOVS     r0,#0
        0x0800062a:    4770        pG      BX       lr
        0x0800062c:    0f44        D.      LSRS     r4,r0,#29
        0x0800062e:    ea4404c1    D...    ORR      r4,r4,r1,LSL #3
        0x08000632:    00c1        ..      LSLS     r1,r0,#3
        0x08000634:    18e0        ..      ADDS     r0,r4,r3
        0x08000636:    bc30        0.      POP      {r4,r5}
        0x08000638:    eb0050c2    ...P    ADD      r0,r0,r2,LSL #23
        0x0800063c:    f000b8c6    ....    B.W      __I$use$fp ; 0x80007cc
    .text
    __aeabi_uidiv
    __aeabi_uidivmod
        0x08000640:    b530        0.      PUSH     {r4,r5,lr}
        0x08000642:    460b        .F      MOV      r3,r1
        0x08000644:    4601        .F      MOV      r1,r0
        0x08000646:    2000        .       MOVS     r0,#0
        0x08000648:    2220         "      MOVS     r2,#0x20
        0x0800064a:    2401        .$      MOVS     r4,#1
        0x0800064c:    e009        ..      B        0x8000662 ; __aeabi_uidiv + 34
        0x0800064e:    fa21f502    !...    LSR      r5,r1,r2
        0x08000652:    429d        .B      CMP      r5,r3
        0x08000654:    d305        ..      BCC      0x8000662 ; __aeabi_uidiv + 34
        0x08000656:    fa03f502    ....    LSL      r5,r3,r2
        0x0800065a:    1b49        I.      SUBS     r1,r1,r5
        0x0800065c:    fa04f502    ....    LSL      r5,r4,r2
        0x08000660:    4428        (D      ADD      r0,r0,r5
        0x08000662:    1e15        ..      SUBS     r5,r2,#0
        0x08000664:    f1a20201    ....    SUB      r2,r2,#1
        0x08000668:    dcf1        ..      BGT      0x800064e ; __aeabi_uidiv + 14
        0x0800066a:    bd30        0.      POP      {r4,r5,pc}
    .text
    __aeabi_uldivmod
        0x0800066c:    e92d5ff0    -.._    PUSH     {r4-r12,lr}
        0x08000670:    4605        .F      MOV      r5,r0
        0x08000672:    2000        .       MOVS     r0,#0
        0x08000674:    4692        .F      MOV      r10,r2
        0x08000676:    469b        .F      MOV      r11,r3
        0x08000678:    4688        .F      MOV      r8,r1
        0x0800067a:    4606        .F      MOV      r6,r0
        0x0800067c:    4681        .F      MOV      r9,r0
        0x0800067e:    2440        @$      MOVS     r4,#0x40
        0x08000680:    e01b        ..      B        0x80006ba ; __aeabi_uldivmod + 78
        0x08000682:    4628        (F      MOV      r0,r5
        0x08000684:    4641        AF      MOV      r1,r8
        0x08000686:    4647        GF      MOV      r7,r8
        0x08000688:    4622        "F      MOV      r2,r4
        0x0800068a:    f000f82f    ../.    BL       __aeabi_llsr ; 0x80006ec
        0x0800068e:    4653        SF      MOV      r3,r10
        0x08000690:    465a        ZF      MOV      r2,r11
        0x08000692:    1ac0        ..      SUBS     r0,r0,r3
        0x08000694:    4191        .A      SBCS     r1,r1,r2
        0x08000696:    d310        ..      BCC      0x80006ba ; __aeabi_uldivmod + 78
        0x08000698:    4611        .F      MOV      r1,r2
        0x0800069a:    4618        .F      MOV      r0,r3
        0x0800069c:    4622        "F      MOV      r2,r4
        0x0800069e:    f000f816    ....    BL       __aeabi_llsl ; 0x80006ce
        0x080006a2:    1a2d        -.      SUBS     r5,r5,r0
        0x080006a4:    eb670801    g...    SBC      r8,r7,r1
        0x080006a8:    464f        OF      MOV      r7,r9
        0x080006aa:    4622        "F      MOV      r2,r4
        0x080006ac:    2001        .       MOVS     r0,#1
        0x080006ae:    2100        .!      MOVS     r1,#0
        0x080006b0:    f000f80d    ....    BL       __aeabi_llsl ; 0x80006ce
        0x080006b4:    eb170900    ....    ADDS     r9,r7,r0
        0x080006b8:    414e        NA      ADCS     r6,r6,r1
        0x080006ba:    1e20         .      SUBS     r0,r4,#0
        0x080006bc:    f1a40401    ....    SUB      r4,r4,#1
        0x080006c0:    dcdf        ..      BGT      0x8000682 ; __aeabi_uldivmod + 22
        0x080006c2:    4648        HF      MOV      r0,r9
        0x080006c4:    4631        1F      MOV      r1,r6
        0x080006c6:    462a        *F      MOV      r2,r5
        0x080006c8:    4643        CF      MOV      r3,r8
        0x080006ca:    e8bd9ff0    ....    POP      {r4-r12,pc}
    .text
    __aeabi_llsl
    _ll_shift_l
        0x080006ce:    2a20         *      CMP      r2,#0x20
        0x080006d0:    db04        ..      BLT      0x80006dc ; __aeabi_llsl + 14
        0x080006d2:    3a20         :      SUBS     r2,r2,#0x20
        0x080006d4:    fa00f102    ....    LSL      r1,r0,r2
        0x080006d8:    2000        .       MOVS     r0,#0
        0x080006da:    4770        pG      BX       lr
        0x080006dc:    4091        .@      LSLS     r1,r1,r2
        0x080006de:    f1c20320    .. .    RSB      r3,r2,#0x20
        0x080006e2:    fa20f303     ...    LSR      r3,r0,r3
        0x080006e6:    4319        .C      ORRS     r1,r1,r3
        0x080006e8:    4090        .@      LSLS     r0,r0,r2
        0x080006ea:    4770        pG      BX       lr
    .text
    __aeabi_llsr
    _ll_ushift_r
        0x080006ec:    2a20         *      CMP      r2,#0x20
        0x080006ee:    db04        ..      BLT      0x80006fa ; __aeabi_llsr + 14
        0x080006f0:    3a20         :      SUBS     r2,r2,#0x20
        0x080006f2:    fa21f002    !...    LSR      r0,r1,r2
        0x080006f6:    2100        .!      MOVS     r1,#0
        0x080006f8:    4770        pG      BX       lr
        0x080006fa:    fa21f302    !...    LSR      r3,r1,r2
        0x080006fe:    40d0        .@      LSRS     r0,r0,r2
        0x08000700:    f1c20220    .. .    RSB      r2,r2,#0x20
        0x08000704:    4091        .@      LSLS     r1,r1,r2
        0x08000706:    4308        .C      ORRS     r0,r0,r1
        0x08000708:    4619        .F      MOV      r1,r3
        0x0800070a:    4770        pG      BX       lr
    .text
    __aeabi_lasr
    _ll_sshift_r
        0x0800070c:    2a20         *      CMP      r2,#0x20
        0x0800070e:    db06        ..      BLT      0x800071e ; __aeabi_lasr + 18
        0x08000710:    17cb        ..      ASRS     r3,r1,#31
        0x08000712:    3a20         :      SUBS     r2,r2,#0x20
        0x08000714:    fa41f002    A...    ASR      r0,r1,r2
        0x08000718:    ea4373e0    C..s    ORR      r3,r3,r0,ASR #31
        0x0800071c:    e006        ..      B        0x800072c ; __aeabi_lasr + 32
        0x0800071e:    fa41f302    A...    ASR      r3,r1,r2
        0x08000722:    40d0        .@      LSRS     r0,r0,r2
        0x08000724:    f1c20220    .. .    RSB      r2,r2,#0x20
        0x08000728:    4091        .@      LSLS     r1,r1,r2
        0x0800072a:    4308        .C      ORRS     r0,r0,r1
        0x0800072c:    4619        .F      MOV      r1,r3
        0x0800072e:    4770        pG      BX       lr
    .text
    _local_sscanf
        0x08000730:    b40f        ..      PUSH     {r0-r3}
        0x08000732:    2300        .#      MOVS     r3,#0
        0x08000734:    b500        ..      PUSH     {lr}
        0x08000736:    b089        ..      SUB      sp,sp,#0x24
        0x08000738:    a90c        ..      ADD      r1,sp,#0x30
        0x0800073a:    9100        ..      STR      r1,[sp,#0]
        0x0800073c:    990b        ..      LDR      r1,[sp,#0x2c]
        0x0800073e:    f06f4200    o..B    MVN      r2,#0x80000000
        0x08000742:    60cb        .`      STR      r3,[r1,#0xc]
        0x08000744:    4b1e        .K      LDR      r3,[pc,#120] ; [0x80007c0] = 0x8000cb5
        0x08000746:    9306        ..      STR      r3,[sp,#0x18]
        0x08000748:    4b1e        .K      LDR      r3,[pc,#120] ; [0x80007c4] = 0x8000cd3
        0x0800074a:    9307        ..      STR      r3,[sp,#0x1c]
        0x0800074c:    2304        .#      MOVS     r3,#4
        0x0800074e:    e9cd3201    ...2    STRD     r3,r2,[sp,#4]
        0x08000752:    4a1d        .J      LDR      r2,[pc,#116] ; [0x80007c8] = 0x8000949
        0x08000754:    9208        ..      STR      r2,[sp,#0x20]
        0x08000756:    4602        .F      MOV      r2,r0
        0x08000758:    466b        kF      MOV      r3,sp
        0x0800075a:    2000        .       MOVS     r0,#0
        0x0800075c:    f000f98e    ....    BL       _scanf_real ; 0x8000a7c
        0x08000760:    b009        ..      ADD      sp,sp,#0x24
        0x08000762:    f85dfb14    ]...    LDR      pc,[sp],#0x14
    __strtod_int
        0x08000766:    b570        p.      PUSH     {r4-r6,lr}
        0x08000768:    b086        ..      SUB      sp,sp,#0x18
        0x0800076a:    4606        .F      MOV      r6,r0
        0x0800076c:    f04f30ff    O..0    MOV      r0,#0xffffffff
        0x08000770:    9100        ..      STR      r1,[sp,#0]
        0x08000772:    e9cd0101    ....    STRD     r0,r1,[sp,#4]
        0x08000776:    2000        .       MOVS     r0,#0
        0x08000778:    4615        .F      MOV      r5,r2
        0x0800077a:    460c        .F      MOV      r4,r1
        0x0800077c:    9004        ..      STR      r0,[sp,#0x10]
        0x0800077e:    4632        2F      MOV      r2,r6
        0x08000780:    4669        iF      MOV      r1,sp
        0x08000782:    a804        ..      ADD      r0,sp,#0x10
        0x08000784:    f7ffffd4    ....    BL       _local_sscanf ; 0x8000730
        0x08000788:    4602        .F      MOV      r2,r0
        0x0800078a:    9804        ..      LDR      r0,[sp,#0x10]
        0x0800078c:    1821        !.      ADDS     r1,r4,r0
        0x0800078e:    b125        %.      CBZ      r5,0x800079a ; __strtod_int + 52
        0x08000790:    b108        ..      CBZ      r0,0x8000796 ; __strtod_int + 48
        0x08000792:    4608        .F      MOV      r0,r1
        0x08000794:    e000        ..      B        0x8000798 ; __strtod_int + 50
        0x08000796:    4620         F      MOV      r0,r4
        0x08000798:    6028        (`      STR      r0,[r5,#0]
        0x0800079a:    9804        ..      LDR      r0,[sp,#0x10]
        0x0800079c:    2800        .(      CMP      r0,#0
        0x0800079e:    d00d        ..      BEQ      0x80007bc ; __strtod_int + 86
        0x080007a0:    2a00        .*      CMP      r2,#0
        0x080007a2:    dd02        ..      BLE      0x80007aa ; __strtod_int + 68
        0x080007a4:    9800        ..      LDR      r0,[sp,#0]
        0x080007a6:    4288        .B      CMP      r0,r1
        0x080007a8:    d008        ..      BEQ      0x80007bc ; __strtod_int + 86
        0x080007aa:    1b08        ..      SUBS     r0,r1,r4
        0x080007ac:    9400        ..      STR      r4,[sp,#0]
        0x080007ae:    e9cd0401    ....    STRD     r0,r4,[sp,#4]
        0x080007b2:    4632        2F      MOV      r2,r6
        0x080007b4:    4669        iF      MOV      r1,sp
        0x080007b6:    a804        ..      ADD      r0,sp,#0x10
        0x080007b8:    f7ffffba    ....    BL       _local_sscanf ; 0x8000730
        0x080007bc:    b006        ..      ADD      sp,sp,#0x18
        0x080007be:    bd70        p.      POP      {r4-r6,pc}
    $d
        0x080007c0:    08000cb5    ....    DCD    134220981
        0x080007c4:    08000cd3    ....    DCD    134221011
        0x080007c8:    08000949    I...    DCD    134220105
    $t
    .text
    .text
    __I$use$fp
    _float_round
        0x080007cc:    2900        .)      CMP      r1,#0
        0x080007ce:    bfa8        ..      IT       GE
        0x080007d0:    4770        pG      BXGE     lr
        0x080007d2:    1c40        @.      ADDS     r0,r0,#1
        0x080007d4:    0049        I.      LSLS     r1,r1,#1
        0x080007d6:    bf08        ..      IT       EQ
        0x080007d8:    f0200001     ...    BICEQ    r0,r0,#1
        0x080007dc:    4770        pG      BX       lr
    _float_epilogue
        0x080007de:    b410        ..      PUSH     {r4}
        0x080007e0:    fab0fc80    ....    CLZ      r12,r0
        0x080007e4:    fa00f00c    ....    LSL      r0,r0,r12
        0x080007e8:    ea500401    P...    ORRS     r4,r0,r1
        0x080007ec:    bf04        ..      ITT      EQ
        0x080007ee:    bc10        ..      POPEQ    {r4}
        0x080007f0:    4770        pG      BXEQ     lr
        0x080007f2:    b149        I.      CBZ      r1,0x8000808 ; _float_epilogue + 42
        0x080007f4:    f1cc0420    .. .    RSB      r4,r12,#0x20
        0x080007f8:    fa21f404    !...    LSR      r4,r1,r4
        0x080007fc:    fa11f10c    ....    LSLS     r1,r1,r12
        0x08000800:    bf18        ..      IT       NE
        0x08000802:    2101        .!      MOVNE    r1,#1
        0x08000804:    4321        !C      ORRS     r1,r1,r4
        0x08000806:    4308        .C      ORRS     r0,r0,r1
        0x08000808:    eba3010c    ....    SUB      r1,r3,r12
        0x0800080c:    1dcb        ..      ADDS     r3,r1,#7
        0x0800080e:    ea4f6100    O..a    LSL      r1,r0,#24
        0x08000812:    ea4f2010    O..     LSR      r0,r0,#8
        0x08000816:    bf42        B.      ITTT     MI
        0x08000818:    2000        .       MOVMI    r0,#0
        0x0800081a:    bc10        ..      POPMI    {r4}
        0x0800081c:    4770        pG      BXMI     lr
        0x0800081e:    eb0050c3    ...P    ADD      r0,r0,r3,LSL #23
        0x08000822:    4410        .D      ADD      r0,r0,r2
        0x08000824:    2900        .)      CMP      r1,#0
        0x08000826:    bfa4        ..      ITT      GE
        0x08000828:    bc10        ..      POPGE    {r4}
        0x0800082a:    4770        pG      BXGE     lr
        0x0800082c:    1c40        @.      ADDS     r0,r0,#1
        0x0800082e:    0049        I.      LSLS     r1,r1,#1
        0x08000830:    bf08        ..      IT       EQ
        0x08000832:    f0200001     ...    BICEQ    r0,r0,#1
        0x08000836:    bc10        ..      POP      {r4}
        0x08000838:    4770        pG      BX       lr
    .text
    _double_round
        0x0800083a:    b510        ..      PUSH     {r4,lr}
        0x0800083c:    1e14        ..      SUBS     r4,r2,#0
        0x0800083e:    f1730400    s...    SBCS     r4,r3,#0
        0x08000842:    da08        ..      BGE      0x8000856 ; _double_round + 28
        0x08000844:    1c40        @.      ADDS     r0,r0,#1
        0x08000846:    f1410100    A...    ADC      r1,r1,#0
        0x0800084a:    1892        ..      ADDS     r2,r2,r2
        0x0800084c:    415b        [A      ADCS     r3,r3,r3
        0x0800084e:    431a        .C      ORRS     r2,r2,r3
        0x08000850:    d101        ..      BNE      0x8000856 ; _double_round + 28
        0x08000852:    f0200001     ...    BIC      r0,r0,#1
        0x08000856:    bd10        ..      POP      {r4,pc}
    _double_epilogue
        0x08000858:    e92d4df0    -..M    PUSH     {r4-r8,r10,r11,lr}
        0x0800085c:    4692        .F      MOV      r10,r2
        0x0800085e:    469b        .F      MOV      r11,r3
        0x08000860:    b111        ..      CBZ      r1,0x8000868 ; _double_epilogue + 16
        0x08000862:    fab1f281    ....    CLZ      r2,r1
        0x08000866:    e002        ..      B        0x800086e ; _double_epilogue + 22
        0x08000868:    fab0f280    ....    CLZ      r2,r0
        0x0800086c:    3220         2      ADDS     r2,r2,#0x20
        0x0800086e:    4690        .F      MOV      r8,r2
        0x08000870:    f7ffff2d    ..-.    BL       __aeabi_llsl ; 0x80006ce
        0x08000874:    4604        .F      MOV      r4,r0
        0x08000876:    460f        .F      MOV      r7,r1
        0x08000878:    ea40000a    @...    ORR      r0,r0,r10
        0x0800087c:    ea41010b    A...    ORR      r1,r1,r11
        0x08000880:    4653        SF      MOV      r3,r10
        0x08000882:    465a        ZF      MOV      r2,r11
        0x08000884:    4308        .C      ORRS     r0,r0,r1
        0x08000886:    d013        ..      BEQ      0x80008b0 ; _double_epilogue + 88
        0x08000888:    4611        .F      MOV      r1,r2
        0x0800088a:    ea530001    S...    ORRS     r0,r3,r1
        0x0800088e:    d019        ..      BEQ      0x80008c4 ; _double_epilogue + 108
        0x08000890:    f1c80240    ..@.    RSB      r2,r8,#0x40
        0x08000894:    4650        PF      MOV      r0,r10
        0x08000896:    f7ffff29    ..).    BL       __aeabi_llsr ; 0x80006ec
        0x0800089a:    4605        .F      MOV      r5,r0
        0x0800089c:    460e        .F      MOV      r6,r1
        0x0800089e:    4650        PF      MOV      r0,r10
        0x080008a0:    4659        YF      MOV      r1,r11
        0x080008a2:    4642        BF      MOV      r2,r8
        0x080008a4:    f7ffff13    ....    BL       __aeabi_llsl ; 0x80006ce
        0x080008a8:    4308        .C      ORRS     r0,r0,r1
        0x080008aa:    d005        ..      BEQ      0x80008b8 ; _double_epilogue + 96
        0x080008ac:    2001        .       MOVS     r0,#1
        0x080008ae:    e004        ..      B        0x80008ba ; _double_epilogue + 98
        0x080008b0:    4620         F      MOV      r0,r4
        0x080008b2:    4639        9F      MOV      r1,r7
        0x080008b4:    e8bd8df0    ....    POP      {r4-r8,r10,r11,pc}
        0x080008b8:    2000        .       MOVS     r0,#0
        0x080008ba:    4305        .C      ORRS     r5,r5,r0
        0x080008bc:    ea4676e0    F..v    ORR      r6,r6,r0,ASR #31
        0x080008c0:    432c        ,C      ORRS     r4,r4,r5
        0x080008c2:    4337        7C      ORRS     r7,r7,r6
        0x080008c4:    980a        ..      LDR      r0,[sp,#0x28]
        0x080008c6:    0563        c.      LSLS     r3,r4,#21
        0x080008c8:    0ae4        ..      LSRS     r4,r4,#11
        0x080008ca:    eba00008    ....    SUB      r0,r0,r8
        0x080008ce:    2200        ."      MOVS     r2,#0
        0x080008d0:    0afd        ..      LSRS     r5,r7,#11
        0x080008d2:    ea445447    D.GT    ORR      r4,r4,r7,LSL #21
        0x080008d6:    300a        .0      ADDS     r0,r0,#0xa
        0x080008d8:    d502        ..      BPL      0x80008e0 ; _double_epilogue + 136
        0x080008da:    2000        .       MOVS     r0,#0
        0x080008dc:    4601        .F      MOV      r1,r0
        0x080008de:    e7e9        ..      B        0x80008b4 ; _double_epilogue + 92
        0x080008e0:    0501        ..      LSLS     r1,r0,#20
        0x080008e2:    1910        ..      ADDS     r0,r2,r4
        0x080008e4:    4169        iA      ADCS     r1,r1,r5
        0x080008e6:    e9dd4508    ...E    LDRD     r4,r5,[sp,#0x20]
        0x080008ea:    1900        ..      ADDS     r0,r0,r4
        0x080008ec:    4169        iA      ADCS     r1,r1,r5
        0x080008ee:    e8bd4df0    ...M    POP      {r4-r8,r10,r11,lr}
        0x080008f2:    e7a2        ..      B        _double_round ; 0x800083a
    .text
    __aeabi_d2ulz
        0x080008f4:    f3c1520a    ...R    UBFX     r2,r1,#20,#11
        0x080008f8:    f3c10113    ....    UBFX     r1,r1,#0,#20
        0x080008fc:    f24033ff    @..3    MOV      r3,#0x3ff
        0x08000900:    f4411180    A...    ORR      r1,r1,#0x100000
        0x08000904:    429a        .B      CMP      r2,r3
        0x08000906:    da02        ..      BGE      0x800090e ; __aeabi_d2ulz + 26
        0x08000908:    2000        .       MOVS     r0,#0
        0x0800090a:    4601        .F      MOV      r1,r0
        0x0800090c:    4770        pG      BX       lr
        0x0800090e:    f2404333    @.3C    MOV      r3,#0x433
        0x08000912:    429a        .B      CMP      r2,r3
        0x08000914:    f2a24233    ..3B    SUB      r2,r2,#0x433
        0x08000918:    dc02        ..      BGT      0x8000920 ; __aeabi_d2ulz + 44
        0x0800091a:    4252        RB      RSBS     r2,r2,#0
        0x0800091c:    f7ffbee6    ....    B.W      __aeabi_llsr ; 0x80006ec
        0x08000920:    f7ffbed5    ....    B.W      __aeabi_llsl ; 0x80006ce
    .text
    __scatterload
    __scatterload_rt2
        0x08000924:    4c06        .L      LDR      r4,[pc,#24] ; [0x8000940] = 0x8004ed0
        0x08000926:    4d07        .M      LDR      r5,[pc,#28] ; [0x8000944] = 0x8004ef0
        0x08000928:    e006        ..      B        0x8000938 ; __scatterload + 20
        0x0800092a:    68e0        .h      LDR      r0,[r4,#0xc]
        0x0800092c:    f0400301    @...    ORR      r3,r0,#1
        0x08000930:    e8940007    ....    LDM      r4,{r0-r2}
        0x08000934:    4798        .G      BLX      r3
        0x08000936:    3410        .4      ADDS     r4,r4,#0x10
        0x08000938:    42ac        .B      CMP      r4,r5
        0x0800093a:    d3f6        ..      BCC      0x800092a ; __scatterload + 6
        0x0800093c:    f7fffbda    ....    BL       __main_after_scatterload ; 0x80000f4
    $d
        0x08000940:    08004ed0    .N..    DCD    134237904
        0x08000944:    08004ef0    .N..    DCD    134237936
    $t
    .text
    isspace
        0x08000948:    b2c0        ..      UXTB     r0,r0
        0x0800094a:    f44f51f0    O..Q    MOV      r1,#0x1e00
        0x0800094e:    f000b9d1    ....    B.W      __ctype_lookup ; 0x8000cf4
        0x08000952:    0000        ..      MOVS     r0,r0
    .text
    _fp_value
        0x08000954:    e92d4fff    -..O    PUSH     {r0-r11,lr}
        0x08000958:    7808        .x      LDRB     r0,[r1,#0]
        0x0800095a:    b083        ..      SUB      sp,sp,#0xc
        0x0800095c:    4699        .F      MOV      r9,r3
        0x0800095e:    28ff        .(      CMP      r0,#0xff
        0x08000960:    d005        ..      BEQ      0x800096e ; _fp_value + 26
        0x08000962:    1c49        I.      ADDS     r1,r1,#1
        0x08000964:    282d        -(      CMP      r0,#0x2d
        0x08000966:    d004        ..      BEQ      0x8000972 ; _fp_value + 30
        0x08000968:    2400        .$      MOVS     r4,#0
        0x0800096a:    2000        .       MOVS     r0,#0
        0x0800096c:    e008        ..      B        0x8000980 ; _fp_value + 44
        0x0800096e:    2000        .       MOVS     r0,#0
        0x08000970:    e00b        ..      B        0x800098a ; _fp_value + 54
        0x08000972:    2401        .$      MOVS     r4,#1
        0x08000974:    e7f9        ..      B        0x800096a ; _fp_value + 22
        0x08000976:    eb000080    ....    ADD      r0,r0,r0,LSL #2
        0x0800097a:    eb030040    ..@.    ADD      r0,r3,r0,LSL #1
        0x0800097e:    1c49        I.      ADDS     r1,r1,#1
        0x08000980:    780b        .x      LDRB     r3,[r1,#0]
        0x08000982:    2bff        .+      CMP      r3,#0xff
        0x08000984:    d1f7        ..      BNE      0x8000976 ; _fp_value + 34
        0x08000986:    b104        ..      CBZ      r4,0x800098a ; _fp_value + 54
        0x08000988:    4240        @B      RSBS     r0,r0,#0
        0x0800098a:    2300        .#      MOVS     r3,#0
        0x0800098c:    9302        ..      STR      r3,[sp,#8]
        0x0800098e:    7814        .x      LDRB     r4,[r2,#0]
        0x08000990:    4619        .F      MOV      r1,r3
        0x08000992:    461d        .F      MOV      r5,r3
        0x08000994:    2c2d        -,      CMP      r4,#0x2d
        0x08000996:    d001        ..      BEQ      0x800099c ; _fp_value + 72
        0x08000998:    2c2b        +,      CMP      r4,#0x2b
        0x0800099a:    d104        ..      BNE      0x80009a6 ; _fp_value + 82
        0x0800099c:    1c52        R.      ADDS     r2,r2,#1
        0x0800099e:    2c2d        -,      CMP      r4,#0x2d
        0x080009a0:    d013        ..      BEQ      0x80009ca ; _fp_value + 118
        0x080009a2:    2400        .$      MOVS     r4,#0
        0x080009a4:    9402        ..      STR      r4,[sp,#8]
        0x080009a6:    46aa        .F      MOV      r10,r5
        0x080009a8:    7814        .x      LDRB     r4,[r2,#0]
        0x080009aa:    2cff        .,      CMP      r4,#0xff
        0x080009ac:    d00f        ..      BEQ      0x80009ce ; _fp_value + 122
        0x080009ae:    250a        .%      MOVS     r5,#0xa
        0x080009b0:    fba37805    ...x    UMULL    r7,r8,r3,r5
        0x080009b4:    fb018105    ....    MLA      r1,r1,r5,r8
        0x080009b8:    f04f0c00    O...    MOV      r12,#0
        0x080009bc:    fb03110c    ....    MLA      r1,r3,r12,r1
        0x080009c0:    1c52        R.      ADDS     r2,r2,#1
        0x080009c2:    19e3        ..      ADDS     r3,r4,r7
        0x080009c4:    eb4a0101    J...    ADC      r1,r10,r1
        0x080009c8:    e7ee        ..      B        0x80009a8 ; _fp_value + 84
        0x080009ca:    2401        .$      MOVS     r4,#1
        0x080009cc:    e7ea        ..      B        0x80009a4 ; _fp_value + 80
        0x080009ce:    4481        .D      ADD      r9,r9,r0
        0x080009d0:    ea530001    S...    ORRS     r0,r3,r1
        0x080009d4:    d002        ..      BEQ      0x80009dc ; _fp_value + 136
        0x080009d6:    f5197fc8    ....    CMN      r9,#0x190
        0x080009da:    da06        ..      BGE      0x80009ea ; _fp_value + 150
        0x080009dc:    9803        ..      LDR      r0,[sp,#0xc]
        0x080009de:    2100        .!      MOVS     r1,#0
        0x080009e0:    e9c01100    ....    STRD     r1,r1,[r0,#0]
        0x080009e4:    b007        ..      ADD      sp,sp,#0x1c
        0x080009e6:    e8bd8ff0    ....    POP      {r4-r11,pc}
        0x080009ea:    2500        .%      MOVS     r5,#0
        0x080009ec:    4eae        .N      LDR      r6,[pc,#696] ; [0x8000ca8] = 0x40140000
        0x080009ee:    462f        /F      MOV      r7,r5
        0x080009f0:    f8df82b8    ....    LDR      r8,[pc,#696] ; [0x8000cac] = 0x3ff00000
        0x080009f4:    4618        .F      MOV      r0,r3
        0x080009f6:    f000f991    ....    BL       __aeabi_ul2d ; 0x8000d1c
        0x080009fa:    e9cd0100    ....    STRD     r0,r1,[sp,#0]
        0x080009fe:    f1b90000    ....    SUBS     r0,r9,#0
        0x08000a02:    da02        ..      BGE      0x8000a0a ; _fp_value + 182
        0x08000a04:    f1c90400    ....    RSB      r4,r9,#0
        0x08000a08:    e000        ..      B        0x8000a0c ; _fp_value + 184
        0x08000a0a:    4604        .F      MOV      r4,r0
        0x08000a0c:    2300        .#      MOVS     r3,#0
        0x08000a0e:    4aa7        .J      LDR      r2,[pc,#668] ; [0x8000cac] = 0x3ff00000
        0x08000a10:    eb1a0b03    ....    ADDS     r11,r10,r3
        0x08000a14:    eb425a04    B..Z    ADC      r10,r2,r4,LSL #20
        0x08000a18:    e012        ..      B        0x8000a40 ; _fp_value + 236
        0x08000a1a:    07e0        ..      LSLS     r0,r4,#31
        0x08000a1c:    d007        ..      BEQ      0x8000a2e ; _fp_value + 218
        0x08000a1e:    462a        *F      MOV      r2,r5
        0x08000a20:    4633        3F      MOV      r3,r6
        0x08000a22:    4638        8F      MOV      r0,r7
        0x08000a24:    4641        AF      MOV      r1,r8
        0x08000a26:    f7fffcbe    ....    BL       __aeabi_dmul ; 0x80003a6
        0x08000a2a:    4607        .F      MOV      r7,r0
        0x08000a2c:    4688        .F      MOV      r8,r1
        0x08000a2e:    462a        *F      MOV      r2,r5
        0x08000a30:    4633        3F      MOV      r3,r6
        0x08000a32:    4610        .F      MOV      r0,r2
        0x08000a34:    4619        .F      MOV      r1,r3
        0x08000a36:    f7fffcb6    ....    BL       __aeabi_dmul ; 0x80003a6
        0x08000a3a:    4605        .F      MOV      r5,r0
        0x08000a3c:    460e        .F      MOV      r6,r1
        0x08000a3e:    1064        d.      ASRS     r4,r4,#1
        0x08000a40:    2c00        .,      CMP      r4,#0
        0x08000a42:    d1ea        ..      BNE      0x8000a1a ; _fp_value + 198
        0x08000a44:    e9dd0100    ....    LDRD     r0,r1,[sp,#0]
        0x08000a48:    f1b90f00    ....    CMP      r9,#0
        0x08000a4c:    465a        ZF      MOV      r2,r11
        0x08000a4e:    4653        SF      MOV      r3,r10
        0x08000a50:    da06        ..      BGE      0x8000a60 ; _fp_value + 268
        0x08000a52:    f7fffd1a    ....    BL       __aeabi_ddiv ; 0x800048a
        0x08000a56:    463a        :F      MOV      r2,r7
        0x08000a58:    4643        CF      MOV      r3,r8
        0x08000a5a:    f7fffd16    ....    BL       __aeabi_ddiv ; 0x800048a
        0x08000a5e:    e005        ..      B        0x8000a6c ; _fp_value + 280
        0x08000a60:    f7fffca1    ....    BL       __aeabi_dmul ; 0x80003a6
        0x08000a64:    463a        :F      MOV      r2,r7
        0x08000a66:    4643        CF      MOV      r3,r8
        0x08000a68:    f7fffc9d    ....    BL       __aeabi_dmul ; 0x80003a6
        0x08000a6c:    9a02        ..      LDR      r2,[sp,#8]
        0x08000a6e:    b10a        ..      CBZ      r2,0x8000a74 ; _fp_value + 288
        0x08000a70:    f0814100    ...A    EOR      r1,r1,#0x80000000
        0x08000a74:    9a03        ..      LDR      r2,[sp,#0xc]
        0x08000a76:    e9c20100    ....    STRD     r0,r1,[r2,#0]
        0x08000a7a:    e7b3        ..      B        0x80009e4 ; _fp_value + 144
    _scanf_real
    _scanf_really_real
        0x08000a7c:    e92d4fff    -..O    PUSH     {r0-r11,lr}
        0x08000a80:    461f        .F      MOV      r7,r3
        0x08000a82:    b08d        ..      SUB      sp,sp,#0x34
        0x08000a84:    e9d74601    ...F    LDRD     r4,r6,[r7,#4]
        0x08000a88:    f04f38ff    O..8    MOV      r8,#0xffffffff
        0x08000a8c:    202e        .       MOVS     r0,#0x2e
        0x08000a8e:    4645        EF      MOV      r5,r8
        0x08000a90:    f04f0900    O...    MOV      r9,#0
        0x08000a94:    900b        ..      STR      r0,[sp,#0x2c]
        0x08000a96:    69b9        .i      LDR      r1,[r7,#0x18]
        0x08000a98:    1c6d        m.      ADDS     r5,r5,#1
        0x08000a9a:    980e        ..      LDR      r0,[sp,#0x38]
        0x08000a9c:    4788        .G      BLX      r1
        0x08000a9e:    6a39        9j      LDR      r1,[r7,#0x20]
        0x08000aa0:    4682        .F      MOV      r10,r0
        0x08000aa2:    4788        .G      BLX      r1
        0x08000aa4:    2800        .(      CMP      r0,#0
        0x08000aa6:    d1f6        ..      BNE      0x8000a96 ; _scanf_real + 26
        0x08000aa8:    f1ba3fff    ...?    CMP      r10,#0xffffffff
        0x08000aac:    d00a        ..      BEQ      0x8000ac4 ; _scanf_real + 72
        0x08000aae:    f42464d0    $..d    BIC      r4,r4,#0x680
        0x08000ab2:    2e00        ..      CMP      r6,#0
        0x08000ab4:    dd11        ..      BLE      0x8000ada ; _scanf_real + 94
        0x08000ab6:    f1ba0f2b    ..+.    CMP      r10,#0x2b
        0x08000aba:    d008        ..      BEQ      0x8000ace ; _scanf_real + 82
        0x08000abc:    f1ba0f2d    ..-.    CMP      r10,#0x2d
        0x08000ac0:    d10b        ..      BNE      0x8000ada ; _scanf_real + 94
        0x08000ac2:    e002        ..      B        0x8000aca ; _scanf_real + 78
        0x08000ac4:    4640        @F      MOV      r0,r8
        0x08000ac6:    b011        ..      ADD      sp,sp,#0x44
        0x08000ac8:    e78d        ..      B        0x80009e6 ; _fp_value + 146
        0x08000aca:    f4446480    D..d    ORR      r4,r4,#0x400
        0x08000ace:    69b9        .i      LDR      r1,[r7,#0x18]
        0x08000ad0:    1c6d        m.      ADDS     r5,r5,#1
        0x08000ad2:    980e        ..      LDR      r0,[sp,#0x38]
        0x08000ad4:    4788        .G      BLX      r1
        0x08000ad6:    4682        .F      MOV      r10,r0
        0x08000ad8:    1e76        v.      SUBS     r6,r6,#1
        0x08000ada:    4669        iF      MOV      r1,sp
        0x08000adc:    0560        `.      LSLS     r0,r4,#21
        0x08000ade:    d501        ..      BPL      0x8000ae4 ; _scanf_real + 104
        0x08000ae0:    202d        -       MOVS     r0,#0x2d
        0x08000ae2:    e000        ..      B        0x8000ae6 ; _scanf_real + 106
        0x08000ae4:    202b        +       MOVS     r0,#0x2b
        0x08000ae6:    f88d0000    ....    STRB     r0,[sp,#0]
        0x08000aea:    f1010b01    ....    ADD      r11,r1,#1
        0x08000aee:    f10d0820    .. .    ADD      r8,sp,#0x20
        0x08000af2:    e009        ..      B        0x8000b08 ; _scanf_real + 140
        0x08000af4:    69b9        .i      LDR      r1,[r7,#0x18]
        0x08000af6:    1c6d        m.      ADDS     r5,r5,#1
        0x08000af8:    980e        ..      LDR      r0,[sp,#0x38]
        0x08000afa:    4788        .G      BLX      r1
        0x08000afc:    4682        .F      MOV      r10,r0
        0x08000afe:    980f        ..      LDR      r0,[sp,#0x3c]
        0x08000b00:    f4447400    D..t    ORR      r4,r4,#0x200
        0x08000b04:    1e76        v.      SUBS     r6,r6,#1
        0x08000b06:    6005        .`      STR      r5,[r0,#0]
        0x08000b08:    2e00        ..      CMP      r6,#0
        0x08000b0a:    dd02        ..      BLE      0x8000b12 ; _scanf_real + 150
        0x08000b0c:    f1ba0f30    ..0.    CMP      r10,#0x30
        0x08000b10:    d0f0        ..      BEQ      0x8000af4 ; _scanf_real + 120
        0x08000b12:    990b        ..      LDR      r1,[sp,#0x2c]
        0x08000b14:    458a        .E      CMP      r10,r1
        0x08000b16:    d13e        >.      BNE      0x8000b96 ; _scanf_real + 282
        0x08000b18:    f0440480    D...    ORR      r4,r4,#0x80
        0x08000b1c:    e006        ..      B        0x8000b2c ; _scanf_real + 176
        0x08000b1e:    990f        ..      LDR      r1,[sp,#0x3c]
        0x08000b20:    1c68        h.      ADDS     r0,r5,#1
        0x08000b22:    f1a90901    ....    SUB      r9,r9,#1
        0x08000b26:    f4447400    D..t    ORR      r4,r4,#0x200
        0x08000b2a:    6008        .`      STR      r0,[r1,#0]
        0x08000b2c:    69b9        .i      LDR      r1,[r7,#0x18]
        0x08000b2e:    1c6d        m.      ADDS     r5,r5,#1
        0x08000b30:    1e76        v.      SUBS     r6,r6,#1
        0x08000b32:    980e        ..      LDR      r0,[sp,#0x38]
        0x08000b34:    4788        .G      BLX      r1
        0x08000b36:    4682        .F      MOV      r10,r0
        0x08000b38:    2830        0(      CMP      r0,#0x30
        0x08000b3a:    d0f0        ..      BEQ      0x8000b1e ; _scanf_real + 162
        0x08000b3c:    e02b        +.      B        0x8000b96 ; _scanf_real + 282
        0x08000b3e:    990b        ..      LDR      r1,[sp,#0x2c]
        0x08000b40:    458a        .E      CMP      r10,r1
        0x08000b42:    d105        ..      BNE      0x8000b50 ; _scanf_real + 212
        0x08000b44:    0620         .      LSLS     r0,r4,#24
        0x08000b46:    d403        ..      BMI      0x8000b50 ; _scanf_real + 212
        0x08000b48:    f0440480    D...    ORR      r4,r4,#0x80
        0x08000b4c:    1e76        v.      SUBS     r6,r6,#1
        0x08000b4e:    e018        ..      B        0x8000b82 ; _scanf_real + 262
        0x08000b50:    4650        PF      MOV      r0,r10
        0x08000b52:    f002fb71    ..q.    BL       _is_digit ; 0x8003238
        0x08000b56:    b308        ..      CBZ      r0,0x8000b9c ; _scanf_real + 288
        0x08000b58:    f10d0113    ....    ADD      r1,sp,#0x13
        0x08000b5c:    1e76        v.      SUBS     r6,r6,#1
        0x08000b5e:    f4447400    D..t    ORR      r4,r4,#0x200
        0x08000b62:    458b        .E      CMP      r11,r1
        0x08000b64:    d208        ..      BCS      0x8000b78 ; _scanf_real + 252
        0x08000b66:    f1aa0030    ..0.    SUB      r0,r10,#0x30
        0x08000b6a:    f80b0b01    ....    STRB     r0,[r11],#1
        0x08000b6e:    0620         .      LSLS     r0,r4,#24
        0x08000b70:    d507        ..      BPL      0x8000b82 ; _scanf_real + 262
        0x08000b72:    f1a90001    ....    SUB      r0,r9,#1
        0x08000b76:    e003        ..      B        0x8000b80 ; _scanf_real + 260
        0x08000b78:    0620         .      LSLS     r0,r4,#24
        0x08000b7a:    d402        ..      BMI      0x8000b82 ; _scanf_real + 262
        0x08000b7c:    f1090001    ....    ADD      r0,r9,#1
        0x08000b80:    4681        .F      MOV      r9,r0
        0x08000b82:    05a0        ..      LSLS     r0,r4,#22
        0x08000b84:    d502        ..      BPL      0x8000b8c ; _scanf_real + 272
        0x08000b86:    990f        ..      LDR      r1,[sp,#0x3c]
        0x08000b88:    1c68        h.      ADDS     r0,r5,#1
        0x08000b8a:    6008        .`      STR      r0,[r1,#0]
        0x08000b8c:    69b9        .i      LDR      r1,[r7,#0x18]
        0x08000b8e:    1c6d        m.      ADDS     r5,r5,#1
        0x08000b90:    980e        ..      LDR      r0,[sp,#0x38]
        0x08000b92:    4788        .G      BLX      r1
        0x08000b94:    4682        .F      MOV      r10,r0
        0x08000b96:    2e00        ..      CMP      r6,#0
        0x08000b98:    dcd1        ..      BGT      0x8000b3e ; _scanf_real + 194
        0x08000b9a:    e053        S.      B        0x8000c44 ; _scanf_real + 456
        0x08000b9c:    2e00        ..      CMP      r6,#0
        0x08000b9e:    dd51        Q.      BLE      0x8000c44 ; _scanf_real + 456
        0x08000ba0:    f1ba0f65    ..e.    CMP      r10,#0x65
        0x08000ba4:    d002        ..      BEQ      0x8000bac ; _scanf_real + 304
        0x08000ba6:    f1ba0f45    ..E.    CMP      r10,#0x45
        0x08000baa:    d14b        K.      BNE      0x8000c44 ; _scanf_real + 456
        0x08000bac:    05a0        ..      LSLS     r0,r4,#22
        0x08000bae:    d549        I.      BPL      0x8000c44 ; _scanf_real + 456
        0x08000bb0:    69b9        .i      LDR      r1,[r7,#0x18]
        0x08000bb2:    1c6d        m.      ADDS     r5,r5,#1
        0x08000bb4:    f4247440    $.@t    BIC      r4,r4,#0x300
        0x08000bb8:    1e76        v.      SUBS     r6,r6,#1
        0x08000bba:    980e        ..      LDR      r0,[sp,#0x38]
        0x08000bbc:    4788        .G      BLX      r1
        0x08000bbe:    4682        .F      MOV      r10,r0
        0x08000bc0:    2e00        ..      CMP      r6,#0
        0x08000bc2:    dd0c        ..      BLE      0x8000bde ; _scanf_real + 354
        0x08000bc4:    282b        +(      CMP      r0,#0x2b
        0x08000bc6:    d004        ..      BEQ      0x8000bd2 ; _scanf_real + 342
        0x08000bc8:    f1ba0f2d    ..-.    CMP      r10,#0x2d
        0x08000bcc:    d107        ..      BNE      0x8000bde ; _scanf_real + 354
        0x08000bce:    f4447480    D..t    ORR      r4,r4,#0x100
        0x08000bd2:    69b9        .i      LDR      r1,[r7,#0x18]
        0x08000bd4:    1c6d        m.      ADDS     r5,r5,#1
        0x08000bd6:    980e        ..      LDR      r0,[sp,#0x38]
        0x08000bd8:    4788        .G      BLX      r1
        0x08000bda:    4682        .F      MOV      r10,r0
        0x08000bdc:    1e76        v.      SUBS     r6,r6,#1
        0x08000bde:    05e0        ..      LSLS     r0,r4,#23
        0x08000be0:    d501        ..      BPL      0x8000be6 ; _scanf_real + 362
        0x08000be2:    212d        -!      MOVS     r1,#0x2d
        0x08000be4:    e000        ..      B        0x8000be8 ; _scanf_real + 364
        0x08000be6:    212b        +!      MOVS     r1,#0x2b
        0x08000be8:    f8081b01    ....    STRB     r1,[r8],#1
        0x08000bec:    f8cd802c    ..,.    STR      r8,[sp,#0x2c]
        0x08000bf0:    e021        !.      B        0x8000c36 ; _scanf_real + 442
        0x08000bf2:    f10d0129    ..).    ADD      r1,sp,#0x29
        0x08000bf6:    1e76        v.      SUBS     r6,r6,#1
        0x08000bf8:    f4447400    D..t    ORR      r4,r4,#0x200
        0x08000bfc:    4588        .E      CMP      r8,r1
        0x08000bfe:    d20c        ..      BCS      0x8000c1a ; _scanf_real + 414
        0x08000c00:    f1aa0030    ..0.    SUB      r0,r10,#0x30
        0x08000c04:    f01000ff    ....    ANDS     r0,r0,#0xff
        0x08000c08:    f8880000    ....    STRB     r0,[r8,#0]
        0x08000c0c:    d102        ..      BNE      0x8000c14 ; _scanf_real + 408
        0x08000c0e:    990b        ..      LDR      r1,[sp,#0x2c]
        0x08000c10:    4588        .E      CMP      r8,r1
        0x08000c12:    d909        ..      BLS      0x8000c28 ; _scanf_real + 428
        0x08000c14:    f1080801    ....    ADD      r8,r8,#1
        0x08000c18:    e006        ..      B        0x8000c28 ; _scanf_real + 428
        0x08000c1a:    05e0        ..      LSLS     r0,r4,#23
        0x08000c1c:    d501        ..      BPL      0x8000c22 ; _scanf_real + 422
        0x08000c1e:    4824        $H      LDR      r0,[pc,#144] ; [0x8000cb0] = 0xffffd8f1
        0x08000c20:    e001        ..      B        0x8000c26 ; _scanf_real + 426
        0x08000c22:    f242700f    B..p    MOV      r0,#0x270f
        0x08000c26:    4681        .F      MOV      r9,r0
        0x08000c28:    69b9        .i      LDR      r1,[r7,#0x18]
        0x08000c2a:    1c6d        m.      ADDS     r5,r5,#1
        0x08000c2c:    980e        ..      LDR      r0,[sp,#0x38]
        0x08000c2e:    4788        .G      BLX      r1
        0x08000c30:    4682        .F      MOV      r10,r0
        0x08000c32:    980f        ..      LDR      r0,[sp,#0x3c]
        0x08000c34:    6005        .`      STR      r5,[r0,#0]
        0x08000c36:    2e00        ..      CMP      r6,#0
        0x08000c38:    dd04        ..      BLE      0x8000c44 ; _scanf_real + 456
        0x08000c3a:    4650        PF      MOV      r0,r10
        0x08000c3c:    f002fafc    ....    BL       _is_digit ; 0x8003238
        0x08000c40:    2800        .(      CMP      r0,#0
        0x08000c42:    d1d6        ..      BNE      0x8000bf2 ; _scanf_real + 374
        0x08000c44:    69f9        .i      LDR      r1,[r7,#0x1c]
        0x08000c46:    980e        ..      LDR      r0,[sp,#0x38]
        0x08000c48:    4788        .G      BLX      r1
        0x08000c4a:    20ff        .       MOVS     r0,#0xff
        0x08000c4c:    f88b0000    ....    STRB     r0,[r11,#0]
        0x08000c50:    f8880000    ....    STRB     r0,[r8,#0]
        0x08000c54:    2000        .       MOVS     r0,#0
        0x08000c56:    9006        ..      STR      r0,[sp,#0x18]
        0x08000c58:    9007        ..      STR      r0,[sp,#0x1c]
        0x08000c5a:    464b        KF      MOV      r3,r9
        0x08000c5c:    466a        jF      MOV      r2,sp
        0x08000c5e:    a908        ..      ADD      r1,sp,#0x20
        0x08000c60:    a806        ..      ADD      r0,sp,#0x18
        0x08000c62:    f7fffe77    ..w.    BL       _fp_value ; 0x8000954
        0x08000c66:    05a0        ..      LSLS     r0,r4,#22
        0x08000c68:    d402        ..      BMI      0x8000c70 ; _scanf_real + 500
        0x08000c6a:    f06f0001    o...    MVN      r0,#1
        0x08000c6e:    e72a        *.      B        0x8000ac6 ; _scanf_real + 74
        0x08000c70:    f0140f24    ..$.    TST      r4,#0x24
        0x08000c74:    d00a        ..      BEQ      0x8000c8c ; _scanf_real + 528
        0x08000c76:    07e0        ..      LSLS     r0,r4,#31
        0x08000c78:    d114        ..      BNE      0x8000ca4 ; _scanf_real + 552
        0x08000c7a:    e9dd1206    ....    LDRD     r1,r2,[sp,#0x18]
        0x08000c7e:    6838        8h      LDR      r0,[r7,#0]
        0x08000c80:    1d03        ..      ADDS     r3,r0,#4
        0x08000c82:    603b        ;`      STR      r3,[r7,#0]
        0x08000c84:    6800        .h      LDR      r0,[r0,#0]
        0x08000c86:    e9c01200    ....    STRD     r1,r2,[r0,#0]
        0x08000c8a:    e00b        ..      B        0x8000ca4 ; _scanf_real + 552
        0x08000c8c:    e9dd0106    ....    LDRD     r0,r1,[sp,#0x18]
        0x08000c90:    f7fffcba    ....    BL       __aeabi_d2f ; 0x8000608
        0x08000c94:    4601        .F      MOV      r1,r0
        0x08000c96:    07e0        ..      LSLS     r0,r4,#31
        0x08000c98:    d104        ..      BNE      0x8000ca4 ; _scanf_real + 552
        0x08000c9a:    6838        8h      LDR      r0,[r7,#0]
        0x08000c9c:    1d02        ..      ADDS     r2,r0,#4
        0x08000c9e:    603a        :`      STR      r2,[r7,#0]
        0x08000ca0:    6800        .h      LDR      r0,[r0,#0]
        0x08000ca2:    6001        .`      STR      r1,[r0,#0]
        0x08000ca4:    4628        (F      MOV      r0,r5
        0x08000ca6:    e70e        ..      B        0x8000ac6 ; _scanf_real + 74
    $d
        0x08000ca8:    40140000    ...@    DCD    1075052544
        0x08000cac:    3ff00000    ...?    DCD    1072693248
        0x08000cb0:    ffffd8f1    ....    DCD    4294957297
    $t
    .text
    _sgetc
        0x08000cb4:    6842        Bh      LDR      r2,[r0,#4]
        0x08000cb6:    b142        B.      CBZ      r2,0x8000cca ; _sgetc + 22
        0x08000cb8:    6801        .h      LDR      r1,[r0,#0]
        0x08000cba:    f8113b01    ...;    LDRB     r3,[r1],#1
        0x08000cbe:    b123        #.      CBZ      r3,0x8000cca ; _sgetc + 22
        0x08000cc0:    1e52        R.      SUBS     r2,r2,#1
        0x08000cc2:    e9c01200    ....    STRD     r1,r2,[r0,#0]
        0x08000cc6:    4618        .F      MOV      r0,r3
        0x08000cc8:    4770        pG      BX       lr
        0x08000cca:    2101        .!      MOVS     r1,#1
        0x08000ccc:    60c1        .`      STR      r1,[r0,#0xc]
        0x08000cce:    1e88        ..      SUBS     r0,r1,#2
        0x08000cd0:    4770        pG      BX       lr
    _sbackspace
        0x08000cd2:    6842        Bh      LDR      r2,[r0,#4]
        0x08000cd4:    b15a        Z.      CBZ      r2,0x8000cee ; _sbackspace + 28
        0x08000cd6:    68c3        .h      LDR      r3,[r0,#0xc]
        0x08000cd8:    6801        .h      LDR      r1,[r0,#0]
        0x08000cda:    b943        C.      CBNZ     r3,0x8000cee ; _sbackspace + 28
        0x08000cdc:    6883        .h      LDR      r3,[r0,#8]
        0x08000cde:    428b        .B      CMP      r3,r1
        0x08000ce0:    d005        ..      BEQ      0x8000cee ; _sbackspace + 28
        0x08000ce2:    1e49        I.      SUBS     r1,r1,#1
        0x08000ce4:    1c52        R.      ADDS     r2,r2,#1
        0x08000ce6:    e9c01200    ....    STRD     r1,r2,[r0,#0]
        0x08000cea:    2000        .       MOVS     r0,#0
        0x08000cec:    4770        pG      BX       lr
        0x08000cee:    f04f30ff    O..0    MOV      r0,#0xffffffff
        0x08000cf2:    4770        pG      BX       lr
    .text
    __ctype_lookup
        0x08000cf4:    287f        .(      CMP      r0,#0x7f
        0x08000cf6:    d901        ..      BLS      0x8000cfc ; __ctype_lookup + 8
        0x08000cf8:    2200        ."      MOVS     r2,#0
        0x08000cfa:    e008        ..      B        0x8000d0e ; __ctype_lookup + 26
        0x08000cfc:    4a06        .J      LDR      r2,[pc,#24] ; [0x8000d18] = 0x8004d48
        0x08000cfe:    eb020250    ..P.    ADD      r2,r2,r0,LSR #1
        0x08000d02:    07c0        ..      LSLS     r0,r0,#31
        0x08000d04:    7812        .x      LDRB     r2,[r2,#0]
        0x08000d06:    d100        ..      BNE      0x8000d0a ; __ctype_lookup + 22
        0x08000d08:    0912        ..      LSRS     r2,r2,#4
        0x08000d0a:    f002020f    ....    AND      r2,r2,#0xf
        0x08000d0e:    2001        .       MOVS     r0,#1
        0x08000d10:    4090        .@      LSLS     r0,r0,r2
        0x08000d12:    4008        .@      ANDS     r0,r0,r1
        0x08000d14:    4770        pG      BX       lr
    $d
        0x08000d16:    0000        ..      DCW    0
        0x08000d18:    08004d48    HM..    DCD    134237512
    $t
    .text
    __aeabi_ul2d
        0x08000d1c:    b50e        ..      PUSH     {r1-r3,lr}
        0x08000d1e:    f2404233    @.3B    MOV      r2,#0x433
        0x08000d22:    9202        ..      STR      r2,[sp,#8]
        0x08000d24:    2200        ."      MOVS     r2,#0
        0x08000d26:    e9cd2200    ..."    STRD     r2,r2,[sp,#0]
        0x08000d2a:    4613        .F      MOV      r3,r2
        0x08000d2c:    f7fffd94    ....    BL       _double_epilogue ; 0x8000858
        0x08000d30:    b003        ..      ADD      sp,sp,#0xc
        0x08000d32:    bd00        ..      POP      {pc}
    i.ADC_Cmd
    ADC_Cmd
        0x08000d34:    2900        .)      CMP      r1,#0
        0x08000d36:    d004        ..      BEQ      0x8000d42 ; ADC_Cmd + 14
        0x08000d38:    6881        .h      LDR      r1,[r0,#8]
        0x08000d3a:    f0410101    A...    ORR      r1,r1,#1
        0x08000d3e:    6081        .`      STR      r1,[r0,#8]
        0x08000d40:    4770        pG      BX       lr
        0x08000d42:    6881        .h      LDR      r1,[r0,#8]
        0x08000d44:    f0210101    !...    BIC      r1,r1,#1
        0x08000d48:    6081        .`      STR      r1,[r0,#8]
        0x08000d4a:    4770        pG      BX       lr
    i.ADC_DMACmd
    ADC_DMACmd
        0x08000d4c:    2900        .)      CMP      r1,#0
        0x08000d4e:    d004        ..      BEQ      0x8000d5a ; ADC_DMACmd + 14
        0x08000d50:    6881        .h      LDR      r1,[r0,#8]
        0x08000d52:    f4417180    A..q    ORR      r1,r1,#0x100
        0x08000d56:    6081        .`      STR      r1,[r0,#8]
        0x08000d58:    4770        pG      BX       lr
        0x08000d5a:    6881        .h      LDR      r1,[r0,#8]
        0x08000d5c:    f4217180    !..q    BIC      r1,r1,#0x100
        0x08000d60:    6081        .`      STR      r1,[r0,#8]
        0x08000d62:    4770        pG      BX       lr
    i.ADC_GetCalibrationStatus
    ADC_GetCalibrationStatus
        0x08000d64:    4601        .F      MOV      r1,r0
        0x08000d66:    2000        .       MOVS     r0,#0
        0x08000d68:    6889        .h      LDR      r1,[r1,#8]
        0x08000d6a:    0749        I.      LSLS     r1,r1,#29
        0x08000d6c:    d500        ..      BPL      0x8000d70 ; ADC_GetCalibrationStatus + 12
        0x08000d6e:    2001        .       MOVS     r0,#1
        0x08000d70:    4770        pG      BX       lr
    i.ADC_GetResetCalibrationStatus
    ADC_GetResetCalibrationStatus
        0x08000d72:    4601        .F      MOV      r1,r0
        0x08000d74:    2000        .       MOVS     r0,#0
        0x08000d76:    6889        .h      LDR      r1,[r1,#8]
        0x08000d78:    0709        ..      LSLS     r1,r1,#28
        0x08000d7a:    d500        ..      BPL      0x8000d7e ; ADC_GetResetCalibrationStatus + 12
        0x08000d7c:    2001        .       MOVS     r0,#1
        0x08000d7e:    4770        pG      BX       lr
    i.ADC_Init
    ADC_Init
        0x08000d80:    b510        ..      PUSH     {r4,lr}
        0x08000d82:    6842        Bh      LDR      r2,[r0,#4]
        0x08000d84:    4b0e        .K      LDR      r3,[pc,#56] ; [0x8000dc0] = 0xfff0feff
        0x08000d86:    401a        .@      ANDS     r2,r2,r3
        0x08000d88:    790c        .y      LDRB     r4,[r1,#4]
        0x08000d8a:    680b        .h      LDR      r3,[r1,#0]
        0x08000d8c:    ea422204    B.."    ORR      r2,r2,r4,LSL #8
        0x08000d90:    4313        .C      ORRS     r3,r3,r2
        0x08000d92:    6043        C`      STR      r3,[r0,#4]
        0x08000d94:    6882        .h      LDR      r2,[r0,#8]
        0x08000d96:    4b0b        .K      LDR      r3,[pc,#44] ; [0x8000dc4] = 0xfff1f7fd
        0x08000d98:    401a        .@      ANDS     r2,r2,r3
        0x08000d9a:    e9d14302    ...C    LDRD     r4,r3,[r1,#8]
        0x08000d9e:    4323        #C      ORRS     r3,r3,r4
        0x08000da0:    794c        Ly      LDRB     r4,[r1,#5]
        0x08000da2:    ea420244    B.D.    ORR      r2,r2,r4,LSL #1
        0x08000da6:    4313        .C      ORRS     r3,r3,r2
        0x08000da8:    6083        .`      STR      r3,[r0,#8]
        0x08000daa:    6ac2        .j      LDR      r2,[r0,#0x2c]
        0x08000dac:    f4220270    ".p.    BIC      r2,r2,#0xf00000
        0x08000db0:    7c09        .|      LDRB     r1,[r1,#0x10]
        0x08000db2:    1e49        I.      SUBS     r1,r1,#1
        0x08000db4:    b2c9        ..      UXTB     r1,r1
        0x08000db6:    ea425101    B..Q    ORR      r1,r2,r1,LSL #20
        0x08000dba:    62c1        .b      STR      r1,[r0,#0x2c]
        0x08000dbc:    bd10        ..      POP      {r4,pc}
    $d
        0x08000dbe:    0000        ..      DCW    0
        0x08000dc0:    fff0feff    ....    DCD    4293983999
        0x08000dc4:    fff1f7fd    ....    DCD    4294047741
    $t
    i.ADC_RegularChannelConfig
    ADC_RegularChannelConfig
        0x08000dc8:    b570        p.      PUSH     {r4-r6,lr}
        0x08000dca:    2607        .&      MOVS     r6,#7
        0x08000dcc:    2909        .)      CMP      r1,#9
        0x08000dce:    d90a        ..      BLS      0x8000de6 ; ADC_RegularChannelConfig + 30
        0x08000dd0:    68c5        .h      LDR      r5,[r0,#0xc]
        0x08000dd2:    f1a1040a    ....    SUB      r4,r1,#0xa
        0x08000dd6:    eb040444    ..D.    ADD      r4,r4,r4,LSL #1
        0x08000dda:    40a6        .@      LSLS     r6,r6,r4
        0x08000ddc:    43b5        .C      BICS     r5,r5,r6
        0x08000dde:    40a3        .@      LSLS     r3,r3,r4
        0x08000de0:    431d        .C      ORRS     r5,r5,r3
        0x08000de2:    60c5        .`      STR      r5,[r0,#0xc]
        0x08000de4:    e007        ..      B        0x8000df6 ; ADC_RegularChannelConfig + 46
        0x08000de6:    6905        .i      LDR      r5,[r0,#0x10]
        0x08000de8:    eb010441    ..A.    ADD      r4,r1,r1,LSL #1
        0x08000dec:    40a6        .@      LSLS     r6,r6,r4
        0x08000dee:    43b5        .C      BICS     r5,r5,r6
        0x08000df0:    40a3        .@      LSLS     r3,r3,r4
        0x08000df2:    431d        .C      ORRS     r5,r5,r3
        0x08000df4:    6105        .a      STR      r5,[r0,#0x10]
        0x08000df6:    231f        .#      MOVS     r3,#0x1f
        0x08000df8:    2a07        .*      CMP      r2,#7
        0x08000dfa:    d209        ..      BCS      0x8000e10 ; ADC_RegularChannelConfig + 72
        0x08000dfc:    6b44        Dk      LDR      r4,[r0,#0x34]
        0x08000dfe:    1e52        R.      SUBS     r2,r2,#1
        0x08000e00:    eb020282    ....    ADD      r2,r2,r2,LSL #2
        0x08000e04:    4093        .@      LSLS     r3,r3,r2
        0x08000e06:    439c        .C      BICS     r4,r4,r3
        0x08000e08:    4091        .@      LSLS     r1,r1,r2
        0x08000e0a:    430c        .C      ORRS     r4,r4,r1
        0x08000e0c:    6344        Dc      STR      r4,[r0,#0x34]
        0x08000e0e:    bd70        p.      POP      {r4-r6,pc}
        0x08000e10:    2a0d        .*      CMP      r2,#0xd
        0x08000e12:    d209        ..      BCS      0x8000e28 ; ADC_RegularChannelConfig + 96
        0x08000e14:    6b04        .k      LDR      r4,[r0,#0x30]
        0x08000e16:    1fd2        ..      SUBS     r2,r2,#7
        0x08000e18:    eb020282    ....    ADD      r2,r2,r2,LSL #2
        0x08000e1c:    4093        .@      LSLS     r3,r3,r2
        0x08000e1e:    439c        .C      BICS     r4,r4,r3
        0x08000e20:    4091        .@      LSLS     r1,r1,r2
        0x08000e22:    430c        .C      ORRS     r4,r4,r1
        0x08000e24:    6304        .c      STR      r4,[r0,#0x30]
        0x08000e26:    bd70        p.      POP      {r4-r6,pc}
        0x08000e28:    6ac4        .j      LDR      r4,[r0,#0x2c]
        0x08000e2a:    3a0d        .:      SUBS     r2,r2,#0xd
        0x08000e2c:    eb020282    ....    ADD      r2,r2,r2,LSL #2
        0x08000e30:    4093        .@      LSLS     r3,r3,r2
        0x08000e32:    439c        .C      BICS     r4,r4,r3
        0x08000e34:    4091        .@      LSLS     r1,r1,r2
        0x08000e36:    430c        .C      ORRS     r4,r4,r1
        0x08000e38:    62c4        .b      STR      r4,[r0,#0x2c]
        0x08000e3a:    bd70        p.      POP      {r4-r6,pc}
    i.ADC_ResetCalibration
    ADC_ResetCalibration
        0x08000e3c:    6881        .h      LDR      r1,[r0,#8]
        0x08000e3e:    f0410108    A...    ORR      r1,r1,#8
        0x08000e42:    6081        .`      STR      r1,[r0,#8]
        0x08000e44:    4770        pG      BX       lr
    i.ADC_SoftwareStartConvCmd
    ADC_SoftwareStartConvCmd
        0x08000e46:    2900        .)      CMP      r1,#0
        0x08000e48:    d004        ..      BEQ      0x8000e54 ; ADC_SoftwareStartConvCmd + 14
        0x08000e4a:    6881        .h      LDR      r1,[r0,#8]
        0x08000e4c:    f44101a0    A...    ORR      r1,r1,#0x500000
        0x08000e50:    6081        .`      STR      r1,[r0,#8]
        0x08000e52:    4770        pG      BX       lr
        0x08000e54:    6881        .h      LDR      r1,[r0,#8]
        0x08000e56:    f42101a0    !...    BIC      r1,r1,#0x500000
        0x08000e5a:    6081        .`      STR      r1,[r0,#8]
        0x08000e5c:    4770        pG      BX       lr
    i.ADC_StartCalibration
    ADC_StartCalibration
        0x08000e5e:    6881        .h      LDR      r1,[r0,#8]
        0x08000e60:    f0410104    A...    ORR      r1,r1,#4
        0x08000e64:    6081        .`      STR      r1,[r0,#8]
        0x08000e66:    4770        pG      BX       lr
    i.AT_Init
    AT_Init
        0x08000e68:    b510        ..      PUSH     {r4,lr}
        0x08000e6a:    f000fb11    ....    BL       AT_USART_Init ; 0x8001490
        0x08000e6e:    f44f7180    O..q    MOV      r1,#0x100
        0x08000e72:    480b        .H      LDR      r0,[pc,#44] ; [0x8000ea0] = 0x20003fac
        0x08000e74:    f001fbd1    ....    BL       RingBuffer_Init ; 0x800261a
        0x08000e78:    2001        .       MOVS     r0,#1
        0x08000e7a:    f003fb2d    ..-.    BL       xQueueCreateMutex ; 0x80044d8
        0x08000e7e:    4c09        .L      LDR      r4,[pc,#36] ; [0x8000ea4] = 0x20000088
        0x08000e80:    6020         `      STR      r0,[r4,#0]
        0x08000e82:    2100        .!      MOVS     r1,#0
        0x08000e84:    6820         h      LDR      r0,[r4,#0]
        0x08000e86:    f003fc4d    ..M.    BL       xQueueSemaphoreTake ; 0x8004724
        0x08000e8a:    2001        .       MOVS     r0,#1
        0x08000e8c:    f003fb24    ..$.    BL       xQueueCreateMutex ; 0x80044d8
        0x08000e90:    6060        ``      STR      r0,[r4,#4]
        0x08000e92:    6860        `h      LDR      r0,[r4,#4]
        0x08000e94:    2100        .!      MOVS     r1,#0
        0x08000e96:    e8bd4010    ...@    POP      {r4,lr}
        0x08000e9a:    f003bc43    ..C.    B.W      xQueueSemaphoreTake ; 0x8004724
    $d
        0x08000e9e:    0000        ..      DCW    0
        0x08000ea0:    20003fac    .?.     DCD    536887212
        0x08000ea4:    20000088    ...     DCD    536871048
    $t
    i.AT_ParseResponse
    AT_ParseResponse
        0x08000ea8:    e92d41f0    -..A    PUSH     {r4-r8,lr}
        0x08000eac:    4680        .F      MOV      r8,r0
        0x08000eae:    a141        A.      ADR      r1,{pc}+0x106 ; 0x8000fb4
        0x08000eb0:    4640        @F      MOV      r0,r8
        0x08000eb2:    f7fff9b1    ....    BL       strstr ; 0x8000218
        0x08000eb6:    b108        ..      CBZ      r0,0x8000ebc ; AT_ParseResponse + 20
        0x08000eb8:    2401        .$      MOVS     r4,#1
        0x08000eba:    e000        ..      B        0x8000ebe ; AT_ParseResponse + 22
        0x08000ebc:    2400        .$      MOVS     r4,#0
        0x08000ebe:    a13e        >.      ADR      r1,{pc}+0xfa ; 0x8000fb8
        0x08000ec0:    4640        @F      MOV      r0,r8
        0x08000ec2:    f7fff9a9    ....    BL       strstr ; 0x8000218
        0x08000ec6:    b108        ..      CBZ      r0,0x8000ecc ; AT_ParseResponse + 36
        0x08000ec8:    2501        .%      MOVS     r5,#1
        0x08000eca:    e000        ..      B        0x8000ece ; AT_ParseResponse + 38
        0x08000ecc:    2500        .%      MOVS     r5,#0
        0x08000ece:    a13c        <.      ADR      r1,{pc}+0xf2 ; 0x8000fc0
        0x08000ed0:    4640        @F      MOV      r0,r8
        0x08000ed2:    f7fff9a1    ....    BL       strstr ; 0x8000218
        0x08000ed6:    b920         .      CBNZ     r0,0x8000ee2 ; AT_ParseResponse + 58
        0x08000ed8:    a13b        ;.      ADR      r1,{pc}+0xf0 ; 0x8000fc8
        0x08000eda:    4640        @F      MOV      r0,r8
        0x08000edc:    f7fff99c    ....    BL       strstr ; 0x8000218
        0x08000ee0:    b108        ..      CBZ      r0,0x8000ee6 ; AT_ParseResponse + 62
        0x08000ee2:    2601        .&      MOVS     r6,#1
        0x08000ee4:    e000        ..      B        0x8000ee8 ; AT_ParseResponse + 64
        0x08000ee6:    2600        .&      MOVS     r6,#0
        0x08000ee8:    a139        9.      ADR      r1,{pc}+0xe8 ; 0x8000fd0
        0x08000eea:    4640        @F      MOV      r0,r8
        0x08000eec:    f7fff994    ....    BL       strstr ; 0x8000218
        0x08000ef0:    b108        ..      CBZ      r0,0x8000ef6 ; AT_ParseResponse + 78
        0x08000ef2:    2701        .'      MOVS     r7,#1
        0x08000ef4:    e000        ..      B        0x8000ef8 ; AT_ParseResponse + 80
        0x08000ef6:    2700        .'      MOVS     r7,#0
        0x08000ef8:    a136        6.      ADR      r1,{pc}+0xdc ; 0x8000fd4
        0x08000efa:    4640        @F      MOV      r0,r8
        0x08000efc:    f7fff98c    ....    BL       strstr ; 0x8000218
        0x08000f00:    b108        ..      CBZ      r0,0x8000f06 ; AT_ParseResponse + 94
        0x08000f02:    2101        .!      MOVS     r1,#1
        0x08000f04:    e000        ..      B        0x8000f08 ; AT_ParseResponse + 96
        0x08000f06:    2100        .!      MOVS     r1,#0
        0x08000f08:    432c        ,C      ORRS     r4,r4,r5
        0x08000f0a:    4d36        6M      LDR      r5,[pc,#216] ; [0x8000fe4] = 0x20000088
        0x08000f0c:    d018        ..      BEQ      0x8000f40 ; AT_ParseResponse + 152
        0x08000f0e:    2000        .       MOVS     r0,#0
        0x08000f10:    f001fc8e    ....    BL       Set_AT_Status ; 0x8002830
        0x08000f14:    2293        ."      MOVS     r2,#0x93
        0x08000f16:    a134        4.      ADR      r1,{pc}+0xd2 ; 0x8000fe8
        0x08000f18:    a039        9.      ADR      r0,{pc}+0xe8 ; 0x8001000
        0x08000f1a:    f000fbb3    ....    BL       Debug_USART_Printf ; 0x8001684
        0x08000f1e:    b13f        ?.      CBZ      r7,0x8000f30 ; AT_ParseResponse + 136
        0x08000f20:    2002        .       MOVS     r0,#2
        0x08000f22:    f001fc85    ....    BL       Set_AT_Status ; 0x8002830
        0x08000f26:    2298        ."      MOVS     r2,#0x98
        0x08000f28:    a12f        /.      ADR      r1,{pc}+0xc0 ; 0x8000fe8
        0x08000f2a:    a03b        ;.      ADR      r0,{pc}+0xee ; 0x8001018
        0x08000f2c:    f000fbaa    ....    BL       Debug_USART_Printf ; 0x8001684
        0x08000f30:    2300        .#      MOVS     r3,#0
        0x08000f32:    6828        (h      LDR      r0,[r5,#0]
        0x08000f34:    461a        .F      MOV      r2,r3
        0x08000f36:    4619        .F      MOV      r1,r3
        0x08000f38:    e8bd41f0    ...A    POP      {r4-r8,lr}
        0x08000f3c:    f003bb42    ..B.    B.W      xQueueGenericSend ; 0x80045c4
        0x08000f40:    b17e        ~.      CBZ      r6,0x8000f62 ; AT_ParseResponse + 186
        0x08000f42:    2001        .       MOVS     r0,#1
        0x08000f44:    f001fc74    ..t.    BL       Set_AT_Status ; 0x8002830
        0x08000f48:    22a2        ."      MOVS     r2,#0xa2
        0x08000f4a:    a127        '.      ADR      r1,{pc}+0x9e ; 0x8000fe8
        0x08000f4c:    a03b        ;.      ADR      r0,{pc}+0xf0 ; 0x800103c
        0x08000f4e:    f000fb99    ....    BL       Debug_USART_Printf ; 0x8001684
        0x08000f52:    2300        .#      MOVS     r3,#0
        0x08000f54:    6828        (h      LDR      r0,[r5,#0]
        0x08000f56:    461a        .F      MOV      r2,r3
        0x08000f58:    4619        .F      MOV      r1,r3
        0x08000f5a:    e8bd41f0    ...A    POP      {r4-r8,lr}
        0x08000f5e:    f003bb31    ..1.    B.W      xQueueGenericSend ; 0x80045c4
        0x08000f62:    2900        .)      CMP      r1,#0
        0x08000f64:    d01c        ..      BEQ      0x8000fa0 ; AT_ParseResponse + 248
        0x08000f66:    2003        .       MOVS     r0,#3
        0x08000f68:    f001fc62    ..b.    BL       Set_AT_Status ; 0x8002830
        0x08000f6c:    22ab        ."      MOVS     r2,#0xab
        0x08000f6e:    a11e        ..      ADR      r1,{pc}+0x7a ; 0x8000fe8
        0x08000f70:    a039        9.      ADR      r0,{pc}+0xe8 ; 0x8001058
        0x08000f72:    f000fb87    ....    BL       Debug_USART_Printf ; 0x8001684
        0x08000f76:    4640        @F      MOV      r0,r8
        0x08000f78:    f001fb62    ..b.    BL       SaveJSONDataToBuffer ; 0x8002640
        0x08000f7c:    22af        ."      MOVS     r2,#0xaf
        0x08000f7e:    a11a        ..      ADR      r1,{pc}+0x6a ; 0x8000fe8
        0x08000f80:    a03e        >.      ADR      r0,{pc}+0xfc ; 0x800107c
        0x08000f82:    f000fb7f    ....    BL       Debug_USART_Printf ; 0x8001684
        0x08000f86:    22b2        ."      MOVS     r2,#0xb2
        0x08000f88:    a117        ..      ADR      r1,{pc}+0x60 ; 0x8000fe8
        0x08000f8a:    a044        D.      ADR      r0,{pc}+0x112 ; 0x800109c
        0x08000f8c:    f000fb7a    ..z.    BL       Debug_USART_Printf ; 0x8001684
        0x08000f90:    2300        .#      MOVS     r3,#0
        0x08000f92:    6868        hh      LDR      r0,[r5,#4]
        0x08000f94:    461a        .F      MOV      r2,r3
        0x08000f96:    4619        .F      MOV      r1,r3
        0x08000f98:    e8bd41f0    ...A    POP      {r4-r8,lr}
        0x08000f9c:    f003bb12    ....    B.W      xQueueGenericSend ; 0x80045c4
        0x08000fa0:    2004        .       MOVS     r0,#4
        0x08000fa2:    f001fc45    ..E.    BL       Set_AT_Status ; 0x8002830
        0x08000fa6:    e8bd41f0    ...A    POP      {r4-r8,lr}
        0x08000faa:    22b7        ."      MOVS     r2,#0xb7
        0x08000fac:    a10e        ..      ADR      r1,{pc}+0x3c ; 0x8000fe8
        0x08000fae:    a044        D.      ADR      r0,{pc}+0x112 ; 0x80010c0
        0x08000fb0:    f000bb68    ..h.    B.W      Debug_USART_Printf ; 0x8001684
    $d
        0x08000fb4:    00004b4f    OK..    DCD    19279
        0x08000fb8:    64616572    read    DCD    1684104562
        0x08000fbc:    00000079    y...    DCD    121
        0x08000fc0:    4f525245    ERRO    DCD    1330795077
        0x08000fc4:    00000052    R...    DCD    82
        0x08000fc8:    4c494146    FAIL    DCD    1279869254
        0x08000fcc:    00000000    ....    DCD    0
        0x08000fd0:    0000003e    >...    DCD    62
        0x08000fd4:    54514d2b    +MQT    DCD    1414614315
        0x08000fd8:    42555354    TSUB    DCD    1112888148
        0x08000fdc:    56434552    RECV    DCD    1447249234
        0x08000fe0:    0000003a    :...    DCD    58
        0x08000fe4:    20000088    ...     DCD    536871048
        0x08000fe8:    6f435441    ATCo    DCD    1866683457
        0x08000fec:    6e616d6d    mman    DCD    1851878765
        0x08000ff0:    54415c64    d\AT    DCD    1413569636
        0x08000ff4:    6d6d6f43    Comm    DCD    1835888451
        0x08000ff8:    2e646e61    and.    DCD    778333793
        0x08000ffc:    00000063    c...    DCD    99
        0x08001000:    3a73255b    [%s:    DCD    980624731
        0x08001004:    205d6425    %d]     DCD    542991397
        0x08001008:    73726170    pars    DCD    1936875888
        0x0800100c:    73693a65    e:is    DCD    1936276069
        0x08001010:    4f746547    GetO    DCD    1333028167
        0x08001014:    000a0d4b    K...    DCD    658763
        0x08001018:    3a73255b    [%s:    DCD    980624731
        0x0800101c:    205d6425    %d]     DCD    542991397
        0x08001020:    73726170    pars    DCD    1936875888
        0x08001024:    73693a65    e:is    DCD    1936276069
        0x08001028:    44746547    GetD    DCD    1148478791
        0x0800102c:    52617461    ataR    DCD    1382118497
        0x08001030:    65757165    eque    DCD    1702195557
        0x08001034:    0a0d7473    st..    DCD    168653939
        0x08001038:    00000000    ....    DCD    0
        0x0800103c:    3a73255b    [%s:    DCD    980624731
        0x08001040:    205d6425    %d]     DCD    542991397
        0x08001044:    73726170    pars    DCD    1936875888
        0x08001048:    73693a65    e:is    DCD    1936276069
        0x0800104c:    45746547    GetE    DCD    1165256007
        0x08001050:    726f7272    rror    DCD    1919906418
        0x08001054:    00000a0d    ....    DCD    2573
        0x08001058:    3a73255b    [%s:    DCD    980624731
        0x0800105c:    205d6425    %d]     DCD    542991397
        0x08001060:    73726170    pars    DCD    1936875888
        0x08001064:    73693a65    e:is    DCD    1936276069
        0x08001068:    44746547    GetD    DCD    1148478791
        0x0800106c:    46617461    ataF    DCD    1180791905
        0x08001070:    486d6f72    romH    DCD    1215131506
        0x08001074:    0d74736f    ost.    DCD    225735535
        0x08001078:    0000000a    ....    DCD    10
        0x0800107c:    3a73255b    [%s:    DCD    980624731
        0x08001080:    205d6425    %d]     DCD    542991397
        0x08001084:    65766173    save    DCD    1702257011
        0x08001088:    74616420     dat    DCD    1952539680
        0x0800108c:    69662061    a fi    DCD    1768300641
        0x08001090:    6873696e    nish    DCD    1752394094
        0x08001094:    0a0d6465    ed..    DCD    168649829
        0x08001098:    00000000    ....    DCD    0
        0x0800109c:    3a73255b    [%s:    DCD    980624731
        0x080010a0:    205d6425    %d]     DCD    542991397
        0x080010a4:    656b6177    wake    DCD    1701536119
        0x080010a8:    20707520     up     DCD    544240928
        0x080010ac:    64616572    read    DCD    1684104562
        0x080010b0:    74616420     dat    DCD    1952539680
        0x080010b4:    61742061    a ta    DCD    1635000417
        0x080010b8:    0a0d6b73    sk..    DCD    168651635
        0x080010bc:    00000000    ....    DCD    0
        0x080010c0:    3a73255b    [%s:    DCD    980624731
        0x080010c4:    205d6425    %d]     DCD    542991397
        0x080010c8:    73726170    pars    DCD    1936875888
        0x080010cc:    6e753a65    e:un    DCD    1853176421
        0x080010d0:    706d6f63    comp    DCD    1886220131
        0x080010d4:    6574656c    lete    DCD    1702126956
        0x080010d8:    00000a0d    ....    DCD    2573
    $t
    i.AT_Read_DataPacketBuffer
    AT_Read_DataPacketBuffer
        0x080010dc:    e92d41fc    -..A    PUSH     {r2-r8,lr}
        0x080010e0:    4605        .F      MOV      r5,r0
        0x080010e2:    460e        .F      MOV      r6,r1
        0x080010e4:    4617        .F      MOV      r7,r2
        0x080010e6:    4c15        .L      LDR      r4,[pc,#84] ; [0x800113c] = 0x20000088
        0x080010e8:    e010        ..      B        0x800110c ; AT_Read_DataPacketBuffer + 48
        0x080010ea:    22d8        ."      MOVS     r2,#0xd8
        0x080010ec:    a114        ..      ADR      r1,{pc}+0x54 ; 0x8001140
        0x080010ee:    a01a        ..      ADR      r0,{pc}+0x6a ; 0x8001158
        0x080010f0:    f000fac8    ....    BL       Debug_USART_Printf ; 0x8001684
        0x080010f4:    4639        9F      MOV      r1,r7
        0x080010f6:    6860        `h      LDR      r0,[r4,#4]
        0x080010f8:    f003fb14    ....    BL       xQueueSemaphoreTake ; 0x8004724
        0x080010fc:    2064        d       MOVS     r0,#0x64
        0x080010fe:    f000faed    ....    BL       Delay_ms ; 0x80016dc
        0x08001102:    22dc        ."      MOVS     r2,#0xdc
        0x08001104:    a10e        ..      ADR      r1,{pc}+0x3c ; 0x8001140
        0x08001106:    a01b        ..      ADR      r0,{pc}+0x6e ; 0x8001174
        0x08001108:    f000fabc    ....    BL       Debug_USART_Printf ; 0x8001684
        0x0800110c:    4820         H      LDR      r0,[pc,#128] ; [0x8001190] = 0x20003fac
        0x0800110e:    f002fca3    ....    BL       is_RingBuffer_Empty ; 0x8003a58
        0x08001112:    2800        .(      CMP      r0,#0
        0x08001114:    d1e9        ..      BNE      0x80010ea ; AT_Read_DataPacketBuffer + 14
        0x08001116:    481e        .H      LDR      r0,[pc,#120] ; [0x8001190] = 0x20003fac
        0x08001118:    6880        .h      LDR      r0,[r0,#8]
        0x0800111a:    9000        ..      STR      r0,[sp,#0]
        0x0800111c:    22e2        ."      MOVS     r2,#0xe2
        0x0800111e:    a108        ..      ADR      r1,{pc}+0x22 ; 0x8001140
        0x08001120:    a01c        ..      ADR      r0,{pc}+0x74 ; 0x8001194
        0x08001122:    9b00        ..      LDR      r3,[sp,#0]
        0x08001124:    f000faae    ....    BL       Debug_USART_Printf ; 0x8001684
        0x08001128:    4633        3F      MOV      r3,r6
        0x0800112a:    4629        )F      MOV      r1,r5
        0x0800112c:    4818        .H      LDR      r0,[pc,#96] ; [0x8001190] = 0x20003fac
        0x0800112e:    9a00        ..      LDR      r2,[sp,#0]
        0x08001130:    f001fa48    ..H.    BL       Read_RingBuffer ; 0x80025c4
        0x08001134:    9001        ..      STR      r0,[sp,#4]
        0x08001136:    9801        ..      LDR      r0,[sp,#4]
        0x08001138:    e8bd81fc    ....    POP      {r2-r8,pc}
    $d
        0x0800113c:    20000088    ...     DCD    536871048
        0x08001140:    6f435441    ATCo    DCD    1866683457
        0x08001144:    6e616d6d    mman    DCD    1851878765
        0x08001148:    54415c64    d\AT    DCD    1413569636
        0x0800114c:    6d6d6f43    Comm    DCD    1835888451
        0x08001150:    2e646e61    and.    DCD    778333793
        0x08001154:    00000063    c...    DCD    99
        0x08001158:    3a73255b    [%s:    DCD    980624731
        0x0800115c:    205d6425    %d]     DCD    542991397
        0x08001160:    64616572    read    DCD    1684104562
        0x08001164:    74616420     dat    DCD    1952539680
        0x08001168:    6f6c2061    a lo    DCD    1869357153
        0x0800116c:    0a0d6b63    ck..    DCD    168651619
        0x08001170:    00000000    ....    DCD    0
        0x08001174:    3a73255b    [%s:    DCD    980624731
        0x08001178:    205d6425    %d]     DCD    542991397
        0x0800117c:    64616572    read    DCD    1684104562
        0x08001180:    74616420     dat    DCD    1952539680
        0x08001184:    6e752061    a un    DCD    1853169761
        0x08001188:    6b636f6c    lock    DCD    1801678700
        0x0800118c:    00000a0d    ....    DCD    2573
        0x08001190:    20003fac    .?.     DCD    536887212
        0x08001194:    3a73255b    [%s:    DCD    980624731
        0x08001198:    205d6425    %d]     DCD    542991397
        0x0800119c:    61746164    data    DCD    1635017060
        0x080011a0:    63617020     pac    DCD    1667330080
        0x080011a4:    6973206b    k si    DCD    1769152619
        0x080011a8:    253a657a    ze:%    DCD    624584058
        0x080011ac:    000a0d64    d...    DCD    658788
    $t
    i.AT_ReceiveResponse
    AT_ReceiveResponse
        0x080011b0:    b500        ..      PUSH     {lr}
        0x080011b2:    b0c1        ..      SUB      sp,sp,#0x104
        0x080011b4:    f04f32ff    O..2    MOV      r2,#0xffffffff
        0x080011b8:    f44f7180    O..q    MOV      r1,#0x100
        0x080011bc:    a801        ..      ADD      r0,sp,#4
        0x080011be:    f001fdd9    ....    BL       USART_Read_Buffer ; 0x8002d74
        0x080011c2:    9000        ..      STR      r0,[sp,#0]
        0x080011c4:    9800        ..      LDR      r0,[sp,#0]
        0x080011c6:    2801        .(      CMP      r0,#1
        0x080011c8:    d015        ..      BEQ      0x80011f6 ; AT_ReceiveResponse + 70
        0x080011ca:    2277        w"      MOVS     r2,#0x77
        0x080011cc:    a10d        ..      ADR      r1,{pc}+0x38 ; 0x8001204
        0x080011ce:    a013        ..      ADR      r0,{pc}+0x4e ; 0x800121c
        0x080011d0:    f000fa58    ..X.    BL       Debug_USART_Printf ; 0x8001684
        0x080011d4:    ab01        ..      ADD      r3,sp,#4
        0x080011d6:    2278        x"      MOVS     r2,#0x78
        0x080011d8:    a10a        ..      ADR      r1,{pc}+0x2c ; 0x8001204
        0x080011da:    a01d        ..      ADR      r0,{pc}+0x76 ; 0x8001250
        0x080011dc:    f000fa52    ..R.    BL       Debug_USART_Printf ; 0x8001684
        0x080011e0:    2279        y"      MOVS     r2,#0x79
        0x080011e2:    a108        ..      ADR      r1,{pc}+0x22 ; 0x8001204
        0x080011e4:    a01e        ..      ADR      r0,{pc}+0x7c ; 0x8001260
        0x080011e6:    f000fa4d    ..M.    BL       Debug_USART_Printf ; 0x8001684
        0x080011ea:    a801        ..      ADD      r0,sp,#4
        0x080011ec:    f7fffe5c    ..\.    BL       AT_ParseResponse ; 0x8000ea8
        0x080011f0:    2001        .       MOVS     r0,#1
        0x080011f2:    b041        A.      ADD      sp,sp,#0x104
        0x080011f4:    bd00        ..      POP      {pc}
        0x080011f6:    2273        s"      MOVS     r2,#0x73
        0x080011f8:    a102        ..      ADR      r1,{pc}+0xc ; 0x8001204
        0x080011fa:    a025        %.      ADR      r0,{pc}+0x96 ; 0x8001290
        0x080011fc:    f000fa42    ..B.    BL       Debug_USART_Printf ; 0x8001684
        0x08001200:    2000        .       MOVS     r0,#0
        0x08001202:    e7f6        ..      B        0x80011f2 ; AT_ReceiveResponse + 66
    $d
        0x08001204:    6f435441    ATCo    DCD    1866683457
        0x08001208:    6e616d6d    mman    DCD    1851878765
        0x0800120c:    54415c64    d\AT    DCD    1413569636
        0x08001210:    6d6d6f43    Comm    DCD    1835888451
        0x08001214:    2e646e61    and.    DCD    778333793
        0x08001218:    00000063    c...    DCD    99
        0x0800121c:    3a73255b    [%s:    DCD    980624731
        0x08001220:    205d6425    %d]     DCD    542991397
        0x08001224:    2d2d0a0d    ..--    DCD    757926413
        0x08001228:    2d2d2d2d    ----    DCD    757935405
        0x0800122c:    72202d2d    -- r    DCD    1914711341
        0x08001230:    6f707365    espo    DCD    1869640549
        0x08001234:    4265736e    nseB    DCD    1113944942
        0x08001238:    65666675    uffe    DCD    1701209717
        0x0800123c:    65622072    r be    DCD    1700929650
        0x08001240:    2d6e6967    gin-    DCD    762210663
        0x08001244:    2d2d2d2d    ----    DCD    757935405
        0x08001248:    0d2d2d2d    ---.    DCD    221064493
        0x0800124c:    0000000a    ....    DCD    10
        0x08001250:    3a73255b    [%s:    DCD    980624731
        0x08001254:    205d6425    %d]     DCD    542991397
        0x08001258:    0a0d7325    %s..    DCD    168653605
        0x0800125c:    00000000    ....    DCD    0
        0x08001260:    3a73255b    [%s:    DCD    980624731
        0x08001264:    205d6425    %d]     DCD    542991397
        0x08001268:    2d2d0a0d    ..--    DCD    757926413
        0x0800126c:    2d2d2d2d    ----    DCD    757935405
        0x08001270:    72202d2d    -- r    DCD    1914711341
        0x08001274:    6f707365    espo    DCD    1869640549
        0x08001278:    4265736e    nseB    DCD    1113944942
        0x0800127c:    65666675    uffe    DCD    1701209717
        0x08001280:    6e652072    r en    DCD    1852121202
        0x08001284:    2d2d2d64    d---    DCD    757935460
        0x08001288:    2d2d2d2d    ----    DCD    757935405
        0x0800128c:    000a0d2d    -...    DCD    658733
        0x08001290:    3a73255b    [%s:    DCD    980624731
        0x08001294:    205d6425    %d]     DCD    542991397
        0x08001298:    65636572    rece    DCD    1701012850
        0x0800129c:    20657669    ive     DCD    543520361
        0x080012a0:    6b736174    task    DCD    1802723700
        0x080012a4:    6173753a    :usa    DCD    1634956602
        0x080012a8:    62207472    rt b    DCD    1646294130
        0x080012ac:    65666675    uffe    DCD    1701209717
        0x080012b0:    766f2072    r ov    DCD    1986994290
        0x080012b4:    6c667265    erfl    DCD    1818653285
        0x080012b8:    0a0d776f    ow..    DCD    168654703
        0x080012bc:    00000000    ....    DCD    0
    $t
    i.AT_Reset
    AT_Reset
        0x080012c0:    f04f31ff    O..1    MOV      r1,#0xffffffff
        0x080012c4:    a001        ..      ADR      r0,{pc}+8 ; 0x80012cc
        0x080012c6:    f000b8ab    ....    B.W      AT_SendCommand ; 0x8001420
    $d
        0x080012ca:    0000        ..      DCW    0
        0x080012cc:    522b5441    AT+R    DCD    1378571329
        0x080012d0:    0a0d5453    ST..    DCD    168645715
        0x080012d4:    00000000    ....    DCD    0
    $t
    i.AT_Send
    AT_Send
        0x080012d8:    b51c        ..      PUSH     {r2-r4,lr}
        0x080012da:    460c        .F      MOV      r4,r1
        0x080012dc:    f000f958    ..X.    BL       AT_USART_SendString ; 0x8001590
        0x080012e0:    481b        .H      LDR      r0,[pc,#108] ; [0x8001350] = 0x20000088
        0x080012e2:    4621        !F      MOV      r1,r4
        0x080012e4:    6800        .h      LDR      r0,[r0,#0]
        0x080012e6:    f003fa1d    ....    BL       xQueueSemaphoreTake ; 0x8004724
        0x080012ea:    9001        ..      STR      r0,[sp,#4]
        0x080012ec:    9801        ..      LDR      r0,[sp,#4]
        0x080012ee:    2801        .(      CMP      r0,#1
        0x080012f0:    d001        ..      BEQ      0x80012f6 ; AT_Send + 30
        0x080012f2:    2005        .       MOVS     r0,#5
        0x080012f4:    bd1c        ..      POP      {r2-r4,pc}
        0x080012f6:    f000fafb    ....    BL       Get_AT_Status ; 0x80018f0
        0x080012fa:    9000        ..      STR      r0,[sp,#0]
        0x080012fc:    9800        ..      LDR      r0,[sp,#0]
        0x080012fe:    b178        x.      CBZ      r0,0x8001320 ; AT_Send + 72
        0x08001300:    9800        ..      LDR      r0,[sp,#0]
        0x08001302:    2801        .(      CMP      r0,#1
        0x08001304:    d012        ..      BEQ      0x800132c ; AT_Send + 84
        0x08001306:    9800        ..      LDR      r0,[sp,#0]
        0x08001308:    2802        .(      CMP      r0,#2
        0x0800130a:    d015        ..      BEQ      0x8001338 ; AT_Send + 96
        0x0800130c:    9800        ..      LDR      r0,[sp,#0]
        0x0800130e:    2803        .(      CMP      r0,#3
        0x08001310:    d018        ..      BEQ      0x8001344 ; AT_Send + 108
        0x08001312:    2262        b"      MOVS     r2,#0x62
        0x08001314:    a10f        ..      ADR      r1,{pc}+0x40 ; 0x8001354
        0x08001316:    a015        ..      ADR      r0,{pc}+0x56 ; 0x800136c
        0x08001318:    f000f9b4    ....    BL       Debug_USART_Printf ; 0x8001684
        0x0800131c:    9800        ..      LDR      r0,[sp,#0]
        0x0800131e:    bd1c        ..      POP      {r2-r4,pc}
        0x08001320:    2256        V"      MOVS     r2,#0x56
        0x08001322:    a10c        ..      ADR      r1,{pc}+0x32 ; 0x8001354
        0x08001324:    a01b        ..      ADR      r0,{pc}+0x70 ; 0x8001394
        0x08001326:    f000f9ad    ....    BL       Debug_USART_Printf ; 0x8001684
        0x0800132a:    e7f7        ..      B        0x800131c ; AT_Send + 68
        0x0800132c:    2259        Y"      MOVS     r2,#0x59
        0x0800132e:    a109        ..      ADR      r1,{pc}+0x26 ; 0x8001354
        0x08001330:    a01f        ..      ADR      r0,{pc}+0x80 ; 0x80013b0
        0x08001332:    f000f9a7    ....    BL       Debug_USART_Printf ; 0x8001684
        0x08001336:    e7f1        ..      B        0x800131c ; AT_Send + 68
        0x08001338:    225c        \"      MOVS     r2,#0x5c
        0x0800133a:    a106        ..      ADR      r1,{pc}+0x1a ; 0x8001354
        0x0800133c:    a024        $.      ADR      r0,{pc}+0x94 ; 0x80013d0
        0x0800133e:    f000f9a1    ....    BL       Debug_USART_Printf ; 0x8001684
        0x08001342:    e7eb        ..      B        0x800131c ; AT_Send + 68
        0x08001344:    225f        _"      MOVS     r2,#0x5f
        0x08001346:    a103        ..      ADR      r1,{pc}+0xe ; 0x8001354
        0x08001348:    a02b        +.      ADR      r0,{pc}+0xb0 ; 0x80013f8
        0x0800134a:    f000f99b    ....    BL       Debug_USART_Printf ; 0x8001684
        0x0800134e:    e7e5        ..      B        0x800131c ; AT_Send + 68
    $d
        0x08001350:    20000088    ...     DCD    536871048
        0x08001354:    6f435441    ATCo    DCD    1866683457
        0x08001358:    6e616d6d    mman    DCD    1851878765
        0x0800135c:    54415c64    d\AT    DCD    1413569636
        0x08001360:    6d6d6f43    Comm    DCD    1835888451
        0x08001364:    2e646e61    and.    DCD    778333793
        0x08001368:    00000063    c...    DCD    99
        0x0800136c:    3a73255b    [%s:    DCD    980624731
        0x08001370:    205d6425    %d]     DCD    542991397
        0x08001374:    646e6573    send    DCD    1684956531
        0x08001378:    73617420     tas    DCD    1935766560
        0x0800137c:    6567206b    k ge    DCD    1701257323
        0x08001380:    75203a74    t: u    DCD    1965046388
        0x08001384:    6365726e    nrec    DCD    1667592814
        0x08001388:    696e676f    ogni    DCD    1768843119
        0x0800138c:    0d64657a    zed.    DCD    224683386
        0x08001390:    0000000a    ....    DCD    10
        0x08001394:    3a73255b    [%s:    DCD    980624731
        0x08001398:    205d6425    %d]     DCD    542991397
        0x0800139c:    646e6573    send    DCD    1684956531
        0x080013a0:    73617420     tas    DCD    1935766560
        0x080013a4:    6567206b    k ge    DCD    1701257323
        0x080013a8:    4f203a74    t: O    DCD    1327512180
        0x080013ac:    000a0d4b    K...    DCD    658763
        0x080013b0:    3a73255b    [%s:    DCD    980624731
        0x080013b4:    205d6425    %d]     DCD    542991397
        0x080013b8:    646e6573    send    DCD    1684956531
        0x080013bc:    73617420     tas    DCD    1935766560
        0x080013c0:    6567206b    k ge    DCD    1701257323
        0x080013c4:    45203a74    t: E    DCD    1159740020
        0x080013c8:    524f5252    RROR    DCD    1380930130
        0x080013cc:    00000a0d    ....    DCD    2573
        0x080013d0:    3a73255b    [%s:    DCD    980624731
        0x080013d4:    205d6425    %d]     DCD    542991397
        0x080013d8:    646e6573    send    DCD    1684956531
        0x080013dc:    73617420     tas    DCD    1935766560
        0x080013e0:    6567206b    k ge    DCD    1701257323
        0x080013e4:    64203a74    t: d    DCD    1679833716
        0x080013e8:    20617461    ata     DCD    543257697
        0x080013ec:    75716572    requ    DCD    1970365810
        0x080013f0:    0d747365    est.    DCD    225735525
        0x080013f4:    0000000a    ....    DCD    10
        0x080013f8:    3a73255b    [%s:    DCD    980624731
        0x080013fc:    205d6425    %d]     DCD    542991397
        0x08001400:    646e6573    send    DCD    1684956531
        0x08001404:    73617420     tas    DCD    1935766560
        0x08001408:    6567206b    k ge    DCD    1701257323
        0x0800140c:    64203a74    t: d    DCD    1679833716
        0x08001410:    20617461    ata     DCD    543257697
        0x08001414:    6d6f7266    from    DCD    1836020326
        0x08001418:    736f6820     hos    DCD    1936680992
        0x0800141c:    000a0d74    t...    DCD    658804
    $t
    i.AT_SendCommand
    AT_SendCommand
        0x08001420:    b570        p.      PUSH     {r4-r6,lr}
        0x08001422:    4604        .F      MOV      r4,r0
        0x08001424:    460d        .F      MOV      r5,r1
        0x08001426:    a109        ..      ADR      r1,{pc}+0x26 ; 0x800144c
        0x08001428:    4620         F      MOV      r0,r4
        0x0800142a:    f7fefef5    ....    BL       strstr ; 0x8000218
        0x0800142e:    b128        (.      CBZ      r0,0x800143c ; AT_SendCommand + 28
        0x08001430:    4629        )F      MOV      r1,r5
        0x08001432:    4620         F      MOV      r0,r4
        0x08001434:    e8bd4070    ..p@    POP      {r4-r6,lr}
        0x08001438:    f7ffbf4e    ..N.    B.W      AT_Send ; 0x80012d8
        0x0800143c:    2233        3"      MOVS     r2,#0x33
        0x0800143e:    a104        ..      ADR      r1,{pc}+0x12 ; 0x8001450
        0x08001440:    a009        ..      ADR      r0,{pc}+0x28 ; 0x8001468
        0x08001442:    f000f91f    ....    BL       Debug_USART_Printf ; 0x8001684
        0x08001446:    2004        .       MOVS     r0,#4
        0x08001448:    bd70        p.      POP      {r4-r6,pc}
    $d
        0x0800144a:    0000        ..      DCW    0
        0x0800144c:    00000a0d    ....    DCD    2573
        0x08001450:    6f435441    ATCo    DCD    1866683457
        0x08001454:    6e616d6d    mman    DCD    1851878765
        0x08001458:    54415c64    d\AT    DCD    1413569636
        0x0800145c:    6d6d6f43    Comm    DCD    1835888451
        0x08001460:    2e646e61    and.    DCD    778333793
        0x08001464:    00000063    c...    DCD    99
        0x08001468:    3a73255b    [%s:    DCD    980624731
        0x0800146c:    205d6425    %d]     DCD    542991397
        0x08001470:    63205441    AT c    DCD    1663063105
        0x08001474:    616d6d6f    omma    DCD    1634561391
        0x08001478:    6d20646e    nd m    DCD    1830839406
        0x0800147c:    69737369    issi    DCD    1769173865
        0x08001480:    5c20676e    ng \    DCD    1545627502
        0x08001484:    206e5c72    r\n     DCD    544103538
        0x08001488:    00000a0d    ....    DCD    2573
    $t
    i.AT_SendData
    AT_SendData
        0x0800148c:    f7ffbf24    ..$.    B.W      AT_Send ; 0x80012d8
    i.AT_USART_Init
    AT_USART_Init
        0x08001490:    b570        p.      PUSH     {r4-r6,lr}
        0x08001492:    b086        ..      SUB      sp,sp,#0x18
        0x08001494:    2101        .!      MOVS     r1,#1
        0x08001496:    2008        .       MOVS     r0,#8
        0x08001498:    f001f830    ..0.    BL       RCC_APB2PeriphClockCmd ; 0x80024fc
        0x0800149c:    2101        .!      MOVS     r1,#1
        0x0800149e:    0488        ..      LSLS     r0,r1,#18
        0x080014a0:    f001f81e    ....    BL       RCC_APB1PeriphClockCmd ; 0x80024e0
        0x080014a4:    2018        .       MOVS     r0,#0x18
        0x080014a6:    f88d0017    ....    STRB     r0,[sp,#0x17]
        0x080014aa:    f44f6080    O..`    MOV      r0,#0x400
        0x080014ae:    f8ad0014    ....    STRH     r0,[sp,#0x14]
        0x080014b2:    2403        .$      MOVS     r4,#3
        0x080014b4:    f88d4016    ...@    STRB     r4,[sp,#0x16]
        0x080014b8:    4d29        )M      LDR      r5,[pc,#164] ; [0x8001560] = 0x40010c00
        0x080014ba:    a905        ..      ADD      r1,sp,#0x14
        0x080014bc:    4628        (F      MOV      r0,r5
        0x080014be:    f000f9b9    ....    BL       GPIO_Init ; 0x8001834
        0x080014c2:    2148        H!      MOVS     r1,#0x48
        0x080014c4:    f88d1017    ....    STRB     r1,[sp,#0x17]
        0x080014c8:    14e9        ..      ASRS     r1,r5,#19
        0x080014ca:    f8ad1014    ....    STRH     r1,[sp,#0x14]
        0x080014ce:    f88d4016    ...@    STRB     r4,[sp,#0x16]
        0x080014d2:    a905        ..      ADD      r1,sp,#0x14
        0x080014d4:    4628        (F      MOV      r0,r5
        0x080014d6:    f000f9ad    ....    BL       GPIO_Init ; 0x8001834
        0x080014da:    f44f30e1    O..0    MOV      r0,#0x1c200
        0x080014de:    9001        ..      STR      r0,[sp,#4]
        0x080014e0:    2400        .$      MOVS     r4,#0
        0x080014e2:    f8ad4010    ...@    STRH     r4,[sp,#0x10]
        0x080014e6:    250c        .%      MOVS     r5,#0xc
        0x080014e8:    f8ad500e    ...P    STRH     r5,[sp,#0xe]
        0x080014ec:    f8ad400c    ...@    STRH     r4,[sp,#0xc]
        0x080014f0:    f8ad400a    ...@    STRH     r4,[sp,#0xa]
        0x080014f4:    f8ad4008    ...@    STRH     r4,[sp,#8]
        0x080014f8:    4e1a        .N      LDR      r6,[pc,#104] ; [0x8001564] = 0x40004800
        0x080014fa:    a901        ..      ADD      r1,sp,#4
        0x080014fc:    4630        0F      MOV      r0,r6
        0x080014fe:    f001fbdb    ....    BL       USART_Init ; 0x8002cb8
        0x08001502:    2201        ."      MOVS     r2,#1
        0x08001504:    f2405125    @.%Q    MOV      r1,#0x525
        0x08001508:    4630        0F      MOV      r0,r6
        0x0800150a:    f001fbba    ....    BL       USART_ITConfig ; 0x8002c82
        0x0800150e:    2201        ."      MOVS     r2,#1
        0x08001510:    f44f7158    O.Xq    MOV      r1,#0x360
        0x08001514:    4630        0F      MOV      r0,r6
        0x08001516:    f001fbb4    ....    BL       USART_ITConfig ; 0x8002c82
        0x0800151a:    01a8        ..      LSLS     r0,r5,#6
        0x0800151c:    f000ffbc    ....    BL       NVIC_PriorityGroupConfig ; 0x8002498
        0x08001520:    2127        '!      MOVS     r1,#0x27
        0x08001522:    f88d1000    ....    STRB     r1,[sp,#0]
        0x08001526:    2101        .!      MOVS     r1,#1
        0x08001528:    f88d1003    ....    STRB     r1,[sp,#3]
        0x0800152c:    f88d5001    ...P    STRB     r5,[sp,#1]
        0x08001530:    f88d4002    ...@    STRB     r4,[sp,#2]
        0x08001534:    4668        hF      MOV      r0,sp
        0x08001536:    f000ff7d    ..}.    BL       NVIC_Init ; 0x8002434
        0x0800153a:    2101        .!      MOVS     r1,#1
        0x0800153c:    4630        0F      MOV      r0,r6
        0x0800153e:    f001fb6d    ..m.    BL       USART_Cmd ; 0x8002c1c
        0x08001542:    15b1        ..      ASRS     r1,r6,#22
        0x08001544:    4808        .H      LDR      r0,[pc,#32] ; [0x8001568] = 0x200000a8
        0x08001546:    f001f868    ..h.    BL       RingBuffer_Init ; 0x800261a
        0x0800154a:    2001        .       MOVS     r0,#1
        0x0800154c:    f002ffc4    ....    BL       xQueueCreateMutex ; 0x80044d8
        0x08001550:    4a06        .J      LDR      r2,[pc,#24] ; [0x800156c] = 0x20000018
        0x08001552:    60d0        .`      STR      r0,[r2,#0xc]
        0x08001554:    2100        .!      MOVS     r1,#0
        0x08001556:    68d0        .h      LDR      r0,[r2,#0xc]
        0x08001558:    f003f8e4    ....    BL       xQueueSemaphoreTake ; 0x8004724
        0x0800155c:    b006        ..      ADD      sp,sp,#0x18
        0x0800155e:    bd70        p.      POP      {r4-r6,pc}
    $d
        0x08001560:    40010c00    ...@    DCD    1073810432
        0x08001564:    40004800    .H.@    DCD    1073760256
        0x08001568:    200000a8    ...     DCD    536871080
        0x0800156c:    20000018    ...     DCD    536870936
    $t
    i.AT_USART_SendByte
    AT_USART_SendByte
        0x08001570:    b510        ..      PUSH     {r4,lr}
        0x08001572:    4c06        .L      LDR      r4,[pc,#24] ; [0x800158c] = 0x40004800
        0x08001574:    4601        .F      MOV      r1,r0
        0x08001576:    4620         F      MOV      r0,r4
        0x08001578:    f001fc7a    ..z.    BL       USART_SendData ; 0x8002e70
        0x0800157c:    2180        .!      MOVS     r1,#0x80
        0x0800157e:    4620         F      MOV      r0,r4
        0x08001580:    f001fb58    ..X.    BL       USART_GetFlagStatus ; 0x8002c34
        0x08001584:    2800        .(      CMP      r0,#0
        0x08001586:    d0f9        ..      BEQ      0x800157c ; AT_USART_SendByte + 12
        0x08001588:    bd10        ..      POP      {r4,pc}
    $d
        0x0800158a:    0000        ..      DCW    0
        0x0800158c:    40004800    .H.@    DCD    1073760256
    $t
    i.AT_USART_SendString
    AT_USART_SendString
        0x08001590:    b570        p.      PUSH     {r4-r6,lr}
        0x08001592:    4605        .F      MOV      r5,r0
        0x08001594:    2400        .$      MOVS     r4,#0
        0x08001596:    e003        ..      B        0x80015a0 ; AT_USART_SendString + 16
        0x08001598:    f7ffffea    ....    BL       AT_USART_SendByte ; 0x8001570
        0x0800159c:    1c64        d.      ADDS     r4,r4,#1
        0x0800159e:    b2e4        ..      UXTB     r4,r4
        0x080015a0:    5d28        (]      LDRB     r0,[r5,r4]
        0x080015a2:    2800        .(      CMP      r0,#0
        0x080015a4:    d1f8        ..      BNE      0x8001598 ; AT_USART_SendString + 8
        0x080015a6:    bd70        p.      POP      {r4-r6,pc}
    i.BusFault_Handler
    BusFault_Handler
        0x080015a8:    e7fe        ..      B        BusFault_Handler ; 0x80015a8
    i.DMA_Cmd
    DMA_Cmd
        0x080015aa:    2900        .)      CMP      r1,#0
        0x080015ac:    d004        ..      BEQ      0x80015b8 ; DMA_Cmd + 14
        0x080015ae:    6801        .h      LDR      r1,[r0,#0]
        0x080015b0:    f0410101    A...    ORR      r1,r1,#1
        0x080015b4:    6001        .`      STR      r1,[r0,#0]
        0x080015b6:    4770        pG      BX       lr
        0x080015b8:    6801        .h      LDR      r1,[r0,#0]
        0x080015ba:    f64f72fe    O..r    MOV      r2,#0xfffe
        0x080015be:    4011        .@      ANDS     r1,r1,r2
        0x080015c0:    6001        .`      STR      r1,[r0,#0]
        0x080015c2:    4770        pG      BX       lr
    i.DMA_Init
    DMA_Init
        0x080015c4:    b530        0.      PUSH     {r4,r5,lr}
        0x080015c6:    6802        .h      LDR      r2,[r0,#0]
        0x080015c8:    f64773f0    G..s    MOV      r3,#0x7ff0
        0x080015cc:    439a        .C      BICS     r2,r2,r3
        0x080015ce:    6a0c        .j      LDR      r4,[r1,#0x20]
        0x080015d0:    688b        .h      LDR      r3,[r1,#8]
        0x080015d2:    4323        #C      ORRS     r3,r3,r4
        0x080015d4:    e9d14504    ...E    LDRD     r4,r5,[r1,#0x10]
        0x080015d8:    432c        ,C      ORRS     r4,r4,r5
        0x080015da:    4323        #C      ORRS     r3,r3,r4
        0x080015dc:    698c        .i      LDR      r4,[r1,#0x18]
        0x080015de:    4323        #C      ORRS     r3,r3,r4
        0x080015e0:    69cc        .i      LDR      r4,[r1,#0x1c]
        0x080015e2:    4323        #C      ORRS     r3,r3,r4
        0x080015e4:    6a4c        Lj      LDR      r4,[r1,#0x24]
        0x080015e6:    4323        #C      ORRS     r3,r3,r4
        0x080015e8:    6a8c        .j      LDR      r4,[r1,#0x28]
        0x080015ea:    4323        #C      ORRS     r3,r3,r4
        0x080015ec:    4313        .C      ORRS     r3,r3,r2
        0x080015ee:    6003        .`      STR      r3,[r0,#0]
        0x080015f0:    68ca        .h      LDR      r2,[r1,#0xc]
        0x080015f2:    6042        B`      STR      r2,[r0,#4]
        0x080015f4:    680a        .h      LDR      r2,[r1,#0]
        0x080015f6:    6082        .`      STR      r2,[r0,#8]
        0x080015f8:    6849        Ih      LDR      r1,[r1,#4]
        0x080015fa:    60c1        .`      STR      r1,[r0,#0xc]
        0x080015fc:    bd30        0.      POP      {r4,r5,pc}
    i.DebugMon_Handler
    DebugMon_Handler
        0x080015fe:    4770        pG      BX       lr
    i.Debug_USART_Init
    Debug_USART_Init
        0x08001600:    b530        0.      PUSH     {r4,r5,lr}
        0x08001602:    b085        ..      SUB      sp,sp,#0x14
        0x08001604:    2101        .!      MOVS     r1,#1
        0x08001606:    2004        .       MOVS     r0,#4
        0x08001608:    f000ff78    ..x.    BL       RCC_APB2PeriphClockCmd ; 0x80024fc
        0x0800160c:    2101        .!      MOVS     r1,#1
        0x0800160e:    0448        H.      LSLS     r0,r1,#17
        0x08001610:    f000ff66    ..f.    BL       RCC_APB1PeriphClockCmd ; 0x80024e0
        0x08001614:    2018        .       MOVS     r0,#0x18
        0x08001616:    f88d0013    ....    STRB     r0,[sp,#0x13]
        0x0800161a:    2004        .       MOVS     r0,#4
        0x0800161c:    f8ad0010    ....    STRH     r0,[sp,#0x10]
        0x08001620:    2403        .$      MOVS     r4,#3
        0x08001622:    f88d4012    ...@    STRB     r4,[sp,#0x12]
        0x08001626:    4d15        .M      LDR      r5,[pc,#84] ; [0x800167c] = 0x40010800
        0x08001628:    a904        ..      ADD      r1,sp,#0x10
        0x0800162a:    4628        (F      MOV      r0,r5
        0x0800162c:    f000f902    ....    BL       GPIO_Init ; 0x8001834
        0x08001630:    2148        H!      MOVS     r1,#0x48
        0x08001632:    f88d1013    ....    STRB     r1,[sp,#0x13]
        0x08001636:    2108        .!      MOVS     r1,#8
        0x08001638:    f8ad1010    ....    STRH     r1,[sp,#0x10]
        0x0800163c:    f88d4012    ...@    STRB     r4,[sp,#0x12]
        0x08001640:    a904        ..      ADD      r1,sp,#0x10
        0x08001642:    4628        (F      MOV      r0,r5
        0x08001644:    f000f8f6    ....    BL       GPIO_Init ; 0x8001834
        0x08001648:    f44f30e1    O..0    MOV      r0,#0x1c200
        0x0800164c:    9000        ..      STR      r0,[sp,#0]
        0x0800164e:    2000        .       MOVS     r0,#0
        0x08001650:    f8ad000c    ....    STRH     r0,[sp,#0xc]
        0x08001654:    210c        .!      MOVS     r1,#0xc
        0x08001656:    f8ad100a    ....    STRH     r1,[sp,#0xa]
        0x0800165a:    f8ad0008    ....    STRH     r0,[sp,#8]
        0x0800165e:    f8ad0006    ....    STRH     r0,[sp,#6]
        0x08001662:    f8ad0004    ....    STRH     r0,[sp,#4]
        0x08001666:    4c06        .L      LDR      r4,[pc,#24] ; [0x8001680] = 0x40004400
        0x08001668:    4669        iF      MOV      r1,sp
        0x0800166a:    4620         F      MOV      r0,r4
        0x0800166c:    f001fb24    ..$.    BL       USART_Init ; 0x8002cb8
        0x08001670:    2101        .!      MOVS     r1,#1
        0x08001672:    4620         F      MOV      r0,r4
        0x08001674:    f001fad2    ....    BL       USART_Cmd ; 0x8002c1c
        0x08001678:    b005        ..      ADD      sp,sp,#0x14
        0x0800167a:    bd30        0.      POP      {r4,r5,pc}
    $d
        0x0800167c:    40010800    ...@    DCD    1073809408
        0x08001680:    40004400    .D.@    DCD    1073759232
    $t
    i.Debug_USART_Printf
    Debug_USART_Printf
        0x08001684:    b40f        ..      PUSH     {r0-r3}
        0x08001686:    b500        ..      PUSH     {lr}
        0x08001688:    b0c1        ..      SUB      sp,sp,#0x104
        0x0800168a:    ab43        C.      ADD      r3,sp,#0x10c
        0x0800168c:    f44f7180    O..q    MOV      r1,#0x100
        0x08001690:    a801        ..      ADD      r0,sp,#4
        0x08001692:    9a42        B.      LDR      r2,[sp,#0x108]
        0x08001694:    f001fce8    ....    BL       __0vsnprintf ; 0x8003068
        0x08001698:    a801        ..      ADD      r0,sp,#4
        0x0800169a:    f000f813    ....    BL       Debug_USART_SendString ; 0x80016c4
        0x0800169e:    b041        A.      ADD      sp,sp,#0x104
        0x080016a0:    f85dfb14    ]...    LDR      pc,[sp],#0x14
    i.Debug_USART_SendByte
    Debug_USART_SendByte
        0x080016a4:    b510        ..      PUSH     {r4,lr}
        0x080016a6:    4c06        .L      LDR      r4,[pc,#24] ; [0x80016c0] = 0x40004400
        0x080016a8:    4601        .F      MOV      r1,r0
        0x080016aa:    4620         F      MOV      r0,r4
        0x080016ac:    f001fbe0    ....    BL       USART_SendData ; 0x8002e70
        0x080016b0:    2180        .!      MOVS     r1,#0x80
        0x080016b2:    4620         F      MOV      r0,r4
        0x080016b4:    f001fabe    ....    BL       USART_GetFlagStatus ; 0x8002c34
        0x080016b8:    2800        .(      CMP      r0,#0
        0x080016ba:    d0f9        ..      BEQ      0x80016b0 ; Debug_USART_SendByte + 12
        0x080016bc:    bd10        ..      POP      {r4,pc}
    $d
        0x080016be:    0000        ..      DCW    0
        0x080016c0:    40004400    .D.@    DCD    1073759232
    $t
    i.Debug_USART_SendString
    Debug_USART_SendString
        0x080016c4:    b570        p.      PUSH     {r4-r6,lr}
        0x080016c6:    4605        .F      MOV      r5,r0
        0x080016c8:    2400        .$      MOVS     r4,#0
        0x080016ca:    e003        ..      B        0x80016d4 ; Debug_USART_SendString + 16
        0x080016cc:    f7ffffea    ....    BL       Debug_USART_SendByte ; 0x80016a4
        0x080016d0:    1c64        d.      ADDS     r4,r4,#1
        0x080016d2:    b2e4        ..      UXTB     r4,r4
        0x080016d4:    5d28        (]      LDRB     r0,[r5,r4]
        0x080016d6:    2800        .(      CMP      r0,#0
        0x080016d8:    d1f8        ..      BNE      0x80016cc ; Debug_USART_SendString + 8
        0x080016da:    bd70        p.      POP      {r4-r6,pc}
    i.Delay_ms
    Delay_ms
        0x080016dc:    b530        0.      PUSH     {r4,r5,lr}
        0x080016de:    4604        .F      MOV      r4,r0
        0x080016e0:    f44f757a    O.zu    MOV      r5,#0x3e8
        0x080016e4:    e002        ..      B        0x80016ec ; Delay_ms + 16
        0x080016e6:    4628        (F      MOV      r0,r5
        0x080016e8:    f000f804    ....    BL       Delay_us ; 0x80016f4
        0x080016ec:    1e64        d.      SUBS     r4,r4,#1
        0x080016ee:    1c60        `.      ADDS     r0,r4,#1
        0x080016f0:    d1f9        ..      BNE      0x80016e6 ; Delay_ms + 10
        0x080016f2:    bd30        0.      POP      {r4,r5,pc}
    i.Delay_us
    Delay_us
        0x080016f4:    b530        0.      PUSH     {r4,r5,lr}
        0x080016f6:    2100        .!      MOVS     r1,#0
        0x080016f8:    f04f25e0    O..%    MOV      r5,#0xe000e000
        0x080016fc:    696c        li      LDR      r4,[r5,#0x14]
        0x080016fe:    4a0a        .J      LDR      r2,[pc,#40] ; [0x8001728] = 0x20000014
        0x08001700:    6812        .h      LDR      r2,[r2,#0]
        0x08001702:    4350        PC      MULS     r0,r2,r0
        0x08001704:    69ab        .i      LDR      r3,[r5,#0x18]
        0x08001706:    69aa        .i      LDR      r2,[r5,#0x18]
        0x08001708:    429a        .B      CMP      r2,r3
        0x0800170a:    d0fc        ..      BEQ      0x8001706 ; Delay_us + 18
        0x0800170c:    d203        ..      BCS      0x8001716 ; Delay_us + 34
        0x0800170e:    eba30302    ....    SUB      r3,r3,r2
        0x08001712:    4419        .D      ADD      r1,r1,r3
        0x08001714:    e004        ..      B        0x8001720 ; Delay_us + 44
        0x08001716:    eba20303    ....    SUB      r3,r2,r3
        0x0800171a:    eba40303    ....    SUB      r3,r4,r3
        0x0800171e:    4419        .D      ADD      r1,r1,r3
        0x08001720:    4613        .F      MOV      r3,r2
        0x08001722:    4281        .B      CMP      r1,r0
        0x08001724:    d3ef        ..      BCC      0x8001706 ; Delay_us + 18
        0x08001726:    bd30        0.      POP      {r4,r5,pc}
    $d
        0x08001728:    20000014    ...     DCD    536870932
    $t
    i.EXTI0_IRQHandler
    EXTI0_IRQHandler
        0x0800172c:    b510        ..      PUSH     {r4,lr}
        0x0800172e:    200a        .       MOVS     r0,#0xa
        0x08001730:    f7ffffd4    ....    BL       Delay_ms ; 0x80016dc
        0x08001734:    2001        .       MOVS     r0,#1
        0x08001736:    f000f81f    ....    BL       EXTI_GetITStatus ; 0x8001778
        0x0800173a:    2801        .(      CMP      r0,#1
        0x0800173c:    d113        ..      BNE      0x8001766 ; EXTI0_IRQHandler + 58
        0x0800173e:    4c0a        .L      LDR      r4,[pc,#40] ; [0x8001768] = 0x40010800
        0x08001740:    2110        .!      MOVS     r1,#0x10
        0x08001742:    4620         F      MOV      r0,r4
        0x08001744:    f000f8c9    ....    BL       GPIO_ReadOutputDataBit ; 0x80018da
        0x08001748:    b140        @.      CBZ      r0,0x800175c ; EXTI0_IRQHandler + 48
        0x0800174a:    2110        .!      MOVS     r1,#0x10
        0x0800174c:    4620         F      MOV      r0,r4
        0x0800174e:    f000f8cb    ....    BL       GPIO_ResetBits ; 0x80018e8
        0x08001752:    e8bd4010    ...@    POP      {r4,lr}
        0x08001756:    2001        .       MOVS     r0,#1
        0x08001758:    f000b808    ....    B.W      EXTI_ClearITPendingBit ; 0x800176c
        0x0800175c:    2110        .!      MOVS     r1,#0x10
        0x0800175e:    4620         F      MOV      r0,r4
        0x08001760:    f000f8c4    ....    BL       GPIO_SetBits ; 0x80018ec
        0x08001764:    e7f5        ..      B        0x8001752 ; EXTI0_IRQHandler + 38
        0x08001766:    bd10        ..      POP      {r4,pc}
    $d
        0x08001768:    40010800    ...@    DCD    1073809408
    $t
    i.EXTI_ClearITPendingBit
    EXTI_ClearITPendingBit
        0x0800176c:    4901        .I      LDR      r1,[pc,#4] ; [0x8001774] = 0x40010414
        0x0800176e:    6008        .`      STR      r0,[r1,#0]
        0x08001770:    4770        pG      BX       lr
    $d
        0x08001772:    0000        ..      DCW    0
        0x08001774:    40010414    ...@    DCD    1073808404
    $t
    i.EXTI_GetITStatus
    EXTI_GetITStatus
        0x08001778:    4601        .F      MOV      r1,r0
        0x0800177a:    2000        .       MOVS     r0,#0
        0x0800177c:    4a05        .J      LDR      r2,[pc,#20] ; [0x8001794] = 0x40010400
        0x0800177e:    6812        .h      LDR      r2,[r2,#0]
        0x08001780:    400a        .@      ANDS     r2,r2,r1
        0x08001782:    4b04        .K      LDR      r3,[pc,#16] ; [0x8001794] = 0x40010400
        0x08001784:    3314        .3      ADDS     r3,r3,#0x14
        0x08001786:    681b        .h      LDR      r3,[r3,#0]
        0x08001788:    420b        .B      TST      r3,r1
        0x0800178a:    d002        ..      BEQ      0x8001792 ; EXTI_GetITStatus + 26
        0x0800178c:    2a00        .*      CMP      r2,#0
        0x0800178e:    d000        ..      BEQ      0x8001792 ; EXTI_GetITStatus + 26
        0x08001790:    2001        .       MOVS     r0,#1
        0x08001792:    4770        pG      BX       lr
    $d
        0x08001794:    40010400    ...@    DCD    1073808384
    $t
    i.EXTI_Init
    EXTI_Init
        0x08001798:    b530        0.      PUSH     {r4,r5,lr}
        0x0800179a:    4a1b        .J      LDR      r2,[pc,#108] ; [0x8001808] = 0x40010400
        0x0800179c:    7983        .y      LDRB     r3,[r0,#6]
        0x0800179e:    6801        .h      LDR      r1,[r0,#0]
        0x080017a0:    2b00        .+      CMP      r3,#0
        0x080017a2:    d02a        *.      BEQ      0x80017fa ; EXTI_Init + 98
        0x080017a4:    6813        .h      LDR      r3,[r2,#0]
        0x080017a6:    438b        .C      BICS     r3,r3,r1
        0x080017a8:    6013        .`      STR      r3,[r2,#0]
        0x080017aa:    1d11        ..      ADDS     r1,r2,#4
        0x080017ac:    680b        .h      LDR      r3,[r1,#0]
        0x080017ae:    6804        .h      LDR      r4,[r0,#0]
        0x080017b0:    43a3        .C      BICS     r3,r3,r4
        0x080017b2:    600b        .`      STR      r3,[r1,#0]
        0x080017b4:    7901        .y      LDRB     r1,[r0,#4]
        0x080017b6:    4411        .D      ADD      r1,r1,r2
        0x080017b8:    680b        .h      LDR      r3,[r1,#0]
        0x080017ba:    6804        .h      LDR      r4,[r0,#0]
        0x080017bc:    4323        #C      ORRS     r3,r3,r4
        0x080017be:    600b        .`      STR      r3,[r1,#0]
        0x080017c0:    4c11        .L      LDR      r4,[pc,#68] ; [0x8001808] = 0x40010400
        0x080017c2:    3408        .4      ADDS     r4,r4,#8
        0x080017c4:    6821        !h      LDR      r1,[r4,#0]
        0x080017c6:    6803        .h      LDR      r3,[r0,#0]
        0x080017c8:    4399        .C      BICS     r1,r1,r3
        0x080017ca:    6021        !`      STR      r1,[r4,#0]
        0x080017cc:    1d23        #.      ADDS     r3,r4,#4
        0x080017ce:    6819        .h      LDR      r1,[r3,#0]
        0x080017d0:    6805        .h      LDR      r5,[r0,#0]
        0x080017d2:    43a9        .C      BICS     r1,r1,r5
        0x080017d4:    6019        .`      STR      r1,[r3,#0]
        0x080017d6:    7941        Ay      LDRB     r1,[r0,#5]
        0x080017d8:    2910        .)      CMP      r1,#0x10
        0x080017da:    d005        ..      BEQ      0x80017e8 ; EXTI_Init + 80
        0x080017dc:    4411        .D      ADD      r1,r1,r2
        0x080017de:    680a        .h      LDR      r2,[r1,#0]
        0x080017e0:    6800        .h      LDR      r0,[r0,#0]
        0x080017e2:    4302        .C      ORRS     r2,r2,r0
        0x080017e4:    600a        .`      STR      r2,[r1,#0]
        0x080017e6:    bd30        0.      POP      {r4,r5,pc}
        0x080017e8:    6821        !h      LDR      r1,[r4,#0]
        0x080017ea:    6802        .h      LDR      r2,[r0,#0]
        0x080017ec:    4311        .C      ORRS     r1,r1,r2
        0x080017ee:    6021        !`      STR      r1,[r4,#0]
        0x080017f0:    6819        .h      LDR      r1,[r3,#0]
        0x080017f2:    6800        .h      LDR      r0,[r0,#0]
        0x080017f4:    4301        .C      ORRS     r1,r1,r0
        0x080017f6:    6019        .`      STR      r1,[r3,#0]
        0x080017f8:    bd30        0.      POP      {r4,r5,pc}
        0x080017fa:    7900        .y      LDRB     r0,[r0,#4]
        0x080017fc:    4410        .D      ADD      r0,r0,r2
        0x080017fe:    6802        .h      LDR      r2,[r0,#0]
        0x08001800:    438a        .C      BICS     r2,r2,r1
        0x08001802:    6002        .`      STR      r2,[r0,#0]
        0x08001804:    bd30        0.      POP      {r4,r5,pc}
    $d
        0x08001806:    0000        ..      DCW    0
        0x08001808:    40010400    ...@    DCD    1073808384
    $t
    i.GPIO_EXTILineConfig
    GPIO_EXTILineConfig
        0x0800180c:    b510        ..      PUSH     {r4,lr}
        0x0800180e:    078a        ..      LSLS     r2,r1,#30
        0x08001810:    0f12        ..      LSRS     r2,r2,#28
        0x08001812:    230f        .#      MOVS     r3,#0xf
        0x08001814:    4093        .@      LSLS     r3,r3,r2
        0x08001816:    f0210403    !...    BIC      r4,r1,#3
        0x0800181a:    4905        .I      LDR      r1,[pc,#20] ; [0x8001830] = 0x40010000
        0x0800181c:    4421        !D      ADD      r1,r1,r4
        0x0800181e:    688c        .h      LDR      r4,[r1,#8]
        0x08001820:    439c        .C      BICS     r4,r4,r3
        0x08001822:    608c        .`      STR      r4,[r1,#8]
        0x08001824:    688b        .h      LDR      r3,[r1,#8]
        0x08001826:    4090        .@      LSLS     r0,r0,r2
        0x08001828:    4303        .C      ORRS     r3,r3,r0
        0x0800182a:    608b        .`      STR      r3,[r1,#8]
        0x0800182c:    bd10        ..      POP      {r4,pc}
    $d
        0x0800182e:    0000        ..      DCW    0
        0x08001830:    40010000    ...@    DCD    1073807360
    $t
    i.GPIO_Init
    GPIO_Init
        0x08001834:    e92d41f0    -..A    PUSH     {r4-r8,lr}
        0x08001838:    2200        ."      MOVS     r2,#0
        0x0800183a:    78cc        .x      LDRB     r4,[r1,#3]
        0x0800183c:    f004030f    ....    AND      r3,r4,#0xf
        0x08001840:    06e4        ..      LSLS     r4,r4,#27
        0x08001842:    d501        ..      BPL      0x8001848 ; GPIO_Init + 20
        0x08001844:    788c        .x      LDRB     r4,[r1,#2]
        0x08001846:    4323        #C      ORRS     r3,r3,r4
        0x08001848:    780c        .x      LDRB     r4,[r1,#0]
        0x0800184a:    f04f070f    O...    MOV      r7,#0xf
        0x0800184e:    f0140fff    ....    TST      r4,#0xff
        0x08001852:    f04f0c01    O...    MOV      r12,#1
        0x08001856:    d01c        ..      BEQ      0x8001892 ; GPIO_Init + 94
        0x08001858:    6805        .h      LDR      r5,[r0,#0]
        0x0800185a:    fa0cf402    ....    LSL      r4,r12,r2
        0x0800185e:    880e        ..      LDRH     r6,[r1,#0]
        0x08001860:    4026        &@      ANDS     r6,r6,r4
        0x08001862:    42a6        .B      CMP      r6,r4
        0x08001864:    d111        ..      BNE      0x800188a ; GPIO_Init + 86
        0x08001866:    0096        ..      LSLS     r6,r2,#2
        0x08001868:    fa07f806    ....    LSL      r8,r7,r6
        0x0800186c:    ea250508    %...    BIC      r5,r5,r8
        0x08001870:    fa03f806    ....    LSL      r8,r3,r6
        0x08001874:    ea480505    H...    ORR      r5,r8,r5
        0x08001878:    78ce        .x      LDRB     r6,[r1,#3]
        0x0800187a:    2e28        (.      CMP      r6,#0x28
        0x0800187c:    d002        ..      BEQ      0x8001884 ; GPIO_Init + 80
        0x0800187e:    2e48        H.      CMP      r6,#0x48
        0x08001880:    d002        ..      BEQ      0x8001888 ; GPIO_Init + 84
        0x08001882:    e002        ..      B        0x800188a ; GPIO_Init + 86
        0x08001884:    6144        Da      STR      r4,[r0,#0x14]
        0x08001886:    e000        ..      B        0x800188a ; GPIO_Init + 86
        0x08001888:    6104        .a      STR      r4,[r0,#0x10]
        0x0800188a:    1c52        R.      ADDS     r2,r2,#1
        0x0800188c:    2a08        .*      CMP      r2,#8
        0x0800188e:    d3e4        ..      BCC      0x800185a ; GPIO_Init + 38
        0x08001890:    6005        .`      STR      r5,[r0,#0]
        0x08001892:    880a        ..      LDRH     r2,[r1,#0]
        0x08001894:    2aff        .*      CMP      r2,#0xff
        0x08001896:    d91e        ..      BLS      0x80018d6 ; GPIO_Init + 162
        0x08001898:    6845        Eh      LDR      r5,[r0,#4]
        0x0800189a:    2200        ."      MOVS     r2,#0
        0x0800189c:    f1020608    ....    ADD      r6,r2,#8
        0x080018a0:    fa0cf406    ....    LSL      r4,r12,r6
        0x080018a4:    880e        ..      LDRH     r6,[r1,#0]
        0x080018a6:    4026        &@      ANDS     r6,r6,r4
        0x080018a8:    42a6        .B      CMP      r6,r4
        0x080018aa:    d110        ..      BNE      0x80018ce ; GPIO_Init + 154
        0x080018ac:    0096        ..      LSLS     r6,r2,#2
        0x080018ae:    fa07f806    ....    LSL      r8,r7,r6
        0x080018b2:    ea250508    %...    BIC      r5,r5,r8
        0x080018b6:    fa03f806    ....    LSL      r8,r3,r6
        0x080018ba:    ea480505    H...    ORR      r5,r8,r5
        0x080018be:    78ce        .x      LDRB     r6,[r1,#3]
        0x080018c0:    2e28        (.      CMP      r6,#0x28
        0x080018c2:    d100        ..      BNE      0x80018c6 ; GPIO_Init + 146
        0x080018c4:    6144        Da      STR      r4,[r0,#0x14]
        0x080018c6:    78ce        .x      LDRB     r6,[r1,#3]
        0x080018c8:    2e48        H.      CMP      r6,#0x48
        0x080018ca:    d100        ..      BNE      0x80018ce ; GPIO_Init + 154
        0x080018cc:    6104        .a      STR      r4,[r0,#0x10]
        0x080018ce:    1c52        R.      ADDS     r2,r2,#1
        0x080018d0:    2a08        .*      CMP      r2,#8
        0x080018d2:    d3e3        ..      BCC      0x800189c ; GPIO_Init + 104
        0x080018d4:    6045        E`      STR      r5,[r0,#4]
        0x080018d6:    e8bd81f0    ....    POP      {r4-r8,pc}
    i.GPIO_ReadOutputDataBit
    GPIO_ReadOutputDataBit
        0x080018da:    4602        .F      MOV      r2,r0
        0x080018dc:    2000        .       MOVS     r0,#0
        0x080018de:    68d2        .h      LDR      r2,[r2,#0xc]
        0x080018e0:    420a        .B      TST      r2,r1
        0x080018e2:    d000        ..      BEQ      0x80018e6 ; GPIO_ReadOutputDataBit + 12
        0x080018e4:    2001        .       MOVS     r0,#1
        0x080018e6:    4770        pG      BX       lr
    i.GPIO_ResetBits
    GPIO_ResetBits
        0x080018e8:    6141        Aa      STR      r1,[r0,#0x14]
        0x080018ea:    4770        pG      BX       lr
    i.GPIO_SetBits
    GPIO_SetBits
        0x080018ec:    6101        .a      STR      r1,[r0,#0x10]
        0x080018ee:    4770        pG      BX       lr
    i.Get_AT_Status
    Get_AT_Status
        0x080018f0:    4801        .H      LDR      r0,[pc,#4] ; [0x80018f8] = 0x20000088
        0x080018f2:    6880        .h      LDR      r0,[r0,#8]
        0x080018f4:    4770        pG      BX       lr
    $d
        0x080018f6:    0000        ..      DCW    0
        0x080018f8:    20000088    ...     DCD    536871048
    $t
    i.HardFault_Handler_C
    HardFault_Handler_C
        0x080018fc:    2259        Y"      MOVS     r2,#0x59
        0x080018fe:    a102        ..      ADR      r1,{pc}+0xa ; 0x8001908
        0x08001900:    a006        ..      ADR      r0,{pc}+0x1c ; 0x800191c
        0x08001902:    f7fffebf    ....    BL       Debug_USART_Printf ; 0x8001684
        0x08001906:    e7fe        ..      B        0x8001906 ; HardFault_Handler_C + 10
    $d
        0x08001908:    72657355    User    DCD    1919251285
        0x0800190c:    6d74735c    \stm    DCD    1836348252
        0x08001910:    31663233    32f1    DCD    828781107
        0x08001914:    695f7830    0x_i    DCD    1767864368
        0x08001918:    00632e74    t.c.    DCD    6499956
        0x0800191c:    3a73255b    [%s:    DCD    980624731
        0x08001920:    205d6425    %d]     DCD    542991397
        0x08001924:    64726148    Hard    DCD    1685217608
        0x08001928:    6c756146    Faul    DCD    1819631942
        0x0800192c:    61485f74    t_Ha    DCD    1632132980
        0x08001930:    656c646e    ndle    DCD    1701602414
        0x08001934:    73692072    r is    DCD    1936269426
        0x08001938:    6e757220     run    DCD    1853190688
        0x0800193c:    676e696e    ning    DCD    1735289198
        0x08001940:    00000a0d    ....    DCD    2573
    $t
    i.JSON_GetItem
    JSON_GetItem
        0x08001944:    e92d41fc    -..A    PUSH     {r2-r8,lr}
        0x08001948:    4605        .F      MOV      r5,r0
        0x0800194a:    460f        .F      MOV      r7,r1
        0x0800194c:    2058        X       MOVS     r0,#0x58
        0x0800194e:    f002fb57    ..W.    BL       pvPortMalloc ; 0x8004000
        0x08001952:    4604        .F      MOV      r4,r0
        0x08001954:    0020         .      MOVS     r0,r4
        0x08001956:    d010        ..      BEQ      0x800197a ; JSON_GetItem + 54
        0x08001958:    2158        X!      MOVS     r1,#0x58
        0x0800195a:    f7fefc52    ..R.    BL       __aeabi_memclr ; 0x8000202
        0x0800195e:    4621        !F      MOV      r1,r4
        0x08001960:    4628        (F      MOV      r0,r5
        0x08001962:    f000f889    ....    BL       JSON_GetItemName ; 0x8001a78
        0x08001966:    2801        .(      CMP      r0,#1
        0x08001968:    d00e        ..      BEQ      0x8001988 ; JSON_GetItem + 68
        0x0800196a:    226c        l"      MOVS     r2,#0x6c
        0x0800196c:    a11e        ..      ADR      r1,{pc}+0x7c ; 0x80019e8
        0x0800196e:    a021        !.      ADR      r0,{pc}+0x86 ; 0x80019f4
        0x08001970:    f7fffe88    ....    BL       Debug_USART_Printf ; 0x8001684
        0x08001974:    2000        .       MOVS     r0,#0
        0x08001976:    e8bd81fc    ....    POP      {r2-r8,pc}
        0x0800197a:    2265        e"      MOVS     r2,#0x65
        0x0800197c:    a11a        ..      ADR      r1,{pc}+0x6c ; 0x80019e8
        0x0800197e:    a022        ".      ADR      r0,{pc}+0x8a ; 0x8001a08
        0x08001980:    f7fffe80    ....    BL       Debug_USART_Printf ; 0x8001684
        0x08001984:    2000        .       MOVS     r0,#0
        0x08001986:    e7f6        ..      B        0x8001976 ; JSON_GetItem + 50
        0x08001988:    4623        #F      MOV      r3,r4
        0x0800198a:    226f        o"      MOVS     r2,#0x6f
        0x0800198c:    a116        ..      ADR      r1,{pc}+0x5c ; 0x80019e8
        0x0800198e:    a024        $.      ADR      r0,{pc}+0x92 ; 0x8001a20
        0x08001990:    f7fffe78    ..x.    BL       Debug_USART_Printf ; 0x8001684
        0x08001994:    4621        !F      MOV      r1,r4
        0x08001996:    4628        (F      MOV      r0,r5
        0x08001998:    f000f8ce    ....    BL       JSON_GetItemValue ; 0x8001b38
        0x0800199c:    4606        .F      MOV      r6,r0
        0x0800199e:    2e01        ..      CMP      r6,#1
        0x080019a0:    d006        ..      BEQ      0x80019b0 ; JSON_GetItem + 108
        0x080019a2:    2273        s"      MOVS     r2,#0x73
        0x080019a4:    a110        ..      ADR      r1,{pc}+0x44 ; 0x80019e8
        0x080019a6:    a013        ..      ADR      r0,{pc}+0x4e ; 0x80019f4
        0x080019a8:    f7fffe6c    ..l.    BL       Debug_USART_Printf ; 0x8001684
        0x080019ac:    2000        .       MOVS     r0,#0
        0x080019ae:    e7e2        ..      B        0x8001976 ; JSON_GetItem + 50
        0x080019b0:    e9d4010a    ....    LDRD     r0,r1,[r4,#0x28]
        0x080019b4:    e9cd0100    ....    STRD     r0,r1,[sp,#0]
        0x080019b8:    2276        v"      MOVS     r2,#0x76
        0x080019ba:    a10b        ..      ADR      r1,{pc}+0x2e ; 0x80019e8
        0x080019bc:    a01e        ..      ADR      r0,{pc}+0x7c ; 0x8001a38
        0x080019be:    f7fffe61    ..a.    BL       Debug_USART_Printf ; 0x8001684
        0x080019c2:    f1040330    ..0.    ADD      r3,r4,#0x30
        0x080019c6:    2277        w"      MOVS     r2,#0x77
        0x080019c8:    a107        ..      ADR      r1,{pc}+0x20 ; 0x80019e8
        0x080019ca:    a023        #.      ADR      r0,{pc}+0x8e ; 0x8001a58
        0x080019cc:    f7fffe5a    ..Z.    BL       Debug_USART_Printf ; 0x8001684
        0x080019d0:    f8d50104    ....    LDR      r0,[r5,#0x104]
        0x080019d4:    5c29        )\      LDRB     r1,[r5,r0]
        0x080019d6:    292c        ,)      CMP      r1,#0x2c
        0x080019d8:    d102        ..      BNE      0x80019e0 ; JSON_GetItem + 156
        0x080019da:    1c40        @.      ADDS     r0,r0,#1
        0x080019dc:    f8c50104    ....    STR      r0,[r5,#0x104]
        0x080019e0:    603c        <`      STR      r4,[r7,#0]
        0x080019e2:    4630        0F      MOV      r0,r6
        0x080019e4:    e7c7        ..      B        0x8001976 ; JSON_GetItem + 50
    $d
        0x080019e6:    0000        ..      DCW    0
        0x080019e8:    5454514d    MQTT    DCD    1414811981
        0x080019ec:    4f534a5c    \JSO    DCD    1330858588
        0x080019f0:    00632e4e    N.c.    DCD    6499918
        0x080019f4:    3a73255b    [%s:    DCD    980624731
        0x080019f8:    205d6425    %d]     DCD    542991397
        0x080019fc:    41466470    pdFA    DCD    1095132272
        0x08001a00:    0a0d544c    LT..    DCD    168645708
        0x08001a04:    00000000    ....    DCD    0
        0x08001a08:    3a73255b    [%s:    DCD    980624731
        0x08001a0c:    205d6425    %d]     DCD    542991397
        0x08001a10:    6c6c616d    mall    DCD    1819042157
        0x08001a14:    6620636f    oc f    DCD    1713398639
        0x08001a18:    656c6961    aile    DCD    1701603681
        0x08001a1c:    000a0d64    d...    DCD    658788
        0x08001a20:    3a73255b    [%s:    DCD    980624731
        0x08001a24:    205d6425    %d]     DCD    542991397
        0x08001a28:    6d657469    item    DCD    1835365481
        0x08001a2c:    6d616e20     nam    DCD    1835101728
        0x08001a30:    25203a65    e: %    DCD    622869093
        0x08001a34:    000a0d73    s...    DCD    658803
        0x08001a38:    3a73255b    [%s:    DCD    980624731
        0x08001a3c:    205d6425    %d]     DCD    542991397
        0x08001a40:    6d657469    item    DCD    1835365481
        0x08001a44:    6c617620     val    DCD    1818326560
        0x08001a48:    754e6575    ueNu    DCD    1968072053
        0x08001a4c:    7265626d    mber    DCD    1919246957
        0x08001a50:    0d66253a    :%f.    DCD    224798010
        0x08001a54:    0000000a    ....    DCD    10
        0x08001a58:    3a73255b    [%s:    DCD    980624731
        0x08001a5c:    205d6425    %d]     DCD    542991397
        0x08001a60:    6d657469    item    DCD    1835365481
        0x08001a64:    6c617620     val    DCD    1818326560
        0x08001a68:    74536575    ueSt    DCD    1951622517
        0x08001a6c:    676e6972    ring    DCD    1735289202
        0x08001a70:    0d73253a    :%s.    DCD    225649978
        0x08001a74:    0000000a    ....    DCD    10
    $t
    i.JSON_GetItemName
    JSON_GetItemName
        0x08001a78:    b510        ..      PUSH     {r4,lr}
        0x08001a7a:    2200        ."      MOVS     r2,#0
        0x08001a7c:    f8d03104    ...1    LDR      r3,[r0,#0x104]
        0x08001a80:    5cc4        .\      LDRB     r4,[r0,r3]
        0x08001a82:    2c22        ",      CMP      r4,#0x22
        0x08001a84:    d006        ..      BEQ      0x8001a94 ; JSON_GetItemName + 28
        0x08001a86:    2286        ."      MOVS     r2,#0x86
        0x08001a88:    a112        ..      ADR      r1,{pc}+0x4c ; 0x8001ad4
        0x08001a8a:    a015        ..      ADR      r0,{pc}+0x56 ; 0x8001ae0
        0x08001a8c:    f7fffdfa    ....    BL       Debug_USART_Printf ; 0x8001684
        0x08001a90:    2000        .       MOVS     r0,#0
        0x08001a92:    bd10        ..      POP      {r4,pc}
        0x08001a94:    1c5b        [.      ADDS     r3,r3,#1
        0x08001a96:    f8c03104    ...1    STR      r3,[r0,#0x104]
        0x08001a9a:    e007        ..      B        0x8001aac ; JSON_GetItemName + 52
        0x08001a9c:    4614        .F      MOV      r4,r2
        0x08001a9e:    1c52        R.      ADDS     r2,r2,#1
        0x08001aa0:    550b        .U      STRB     r3,[r1,r4]
        0x08001aa2:    f8d03104    ...1    LDR      r3,[r0,#0x104]
        0x08001aa6:    1c5b        [.      ADDS     r3,r3,#1
        0x08001aa8:    f8c03104    ...1    STR      r3,[r0,#0x104]
        0x08001aac:    2a1f        .*      CMP      r2,#0x1f
        0x08001aae:    d204        ..      BCS      0x8001aba ; JSON_GetItemName + 66
        0x08001ab0:    f8d03104    ...1    LDR      r3,[r0,#0x104]
        0x08001ab4:    5cc3        .\      LDRB     r3,[r0,r3]
        0x08001ab6:    2b22        "+      CMP      r3,#0x22
        0x08001ab8:    d1f0        ..      BNE      0x8001a9c ; JSON_GetItemName + 36
        0x08001aba:    2a1f        .*      CMP      r2,#0x1f
        0x08001abc:    d306        ..      BCC      0x8001acc ; JSON_GetItemName + 84
        0x08001abe:    2293        ."      MOVS     r2,#0x93
        0x08001ac0:    a104        ..      ADR      r1,{pc}+0x14 ; 0x8001ad4
        0x08001ac2:    a012        ..      ADR      r0,{pc}+0x4a ; 0x8001b0c
        0x08001ac4:    f7fffdde    ....    BL       Debug_USART_Printf ; 0x8001684
        0x08001ac8:    2000        .       MOVS     r0,#0
        0x08001aca:    bd10        ..      POP      {r4,pc}
        0x08001acc:    2000        .       MOVS     r0,#0
        0x08001ace:    5488        .T      STRB     r0,[r1,r2]
        0x08001ad0:    2001        .       MOVS     r0,#1
        0x08001ad2:    bd10        ..      POP      {r4,pc}
    $d
        0x08001ad4:    5454514d    MQTT    DCD    1414811981
        0x08001ad8:    4f534a5c    \JSO    DCD    1330858588
        0x08001adc:    00632e4e    N.c.    DCD    6499918
        0x08001ae0:    3a73255b    [%s:    DCD    980624731
        0x08001ae4:    205d6425    %d]     DCD    542991397
        0x08001ae8:    6f636e69    inco    DCD    1868787305
        0x08001aec:    7461706d    mpat    DCD    1952542829
        0x08001af0:    656c6269    ible    DCD    1701601897
        0x08001af4:    6d616e20     nam    DCD    1835101728
        0x08001af8:    666f2065    e of    DCD    1718558821
        0x08001afc:    6f736a20     jso    DCD    1869834784
        0x08001b00:    7469206e    n it    DCD    1953046638
        0x08001b04:    0a0d6d65    em..    DCD    168652133
        0x08001b08:    00000000    ....    DCD    0
        0x08001b0c:    3a73255b    [%s:    DCD    980624731
        0x08001b10:    205d6425    %d]     DCD    542991397
        0x08001b14:    6c696166    fail    DCD    1818845542
        0x08001b18:    206f7420     to     DCD    544175136
        0x08001b1c:    74697277    writ    DCD    1953067639
        0x08001b20:    74692065    e it    DCD    1953046629
        0x08001b24:    6e3a6d65    em:n    DCD    1849322853
        0x08001b28:    20656d61    ame     DCD    543518049
        0x08001b2c:    7265766f    over    DCD    1919252079
        0x08001b30:    776f6c66    flow    DCD    2003790950
        0x08001b34:    00000a0d    ....    DCD    2573
    $t
    i.JSON_GetItemValue
    JSON_GetItemValue
        0x08001b38:    b510        ..      PUSH     {r4,lr}
        0x08001b3a:    e002        ..      B        0x8001b42 ; JSON_GetItemValue + 10
        0x08001b3c:    1c52        R.      ADDS     r2,r2,#1
        0x08001b3e:    f8c02104    ...!    STR      r2,[r0,#0x104]
        0x08001b42:    f8d02104    ...!    LDR      r2,[r0,#0x104]
        0x08001b46:    5c83        .\      LDRB     r3,[r0,r2]
        0x08001b48:    2b3a        :+      CMP      r3,#0x3a
        0x08001b4a:    d1f7        ..      BNE      0x8001b3c ; JSON_GetItemValue + 4
        0x08001b4c:    f8d02104    ...!    LDR      r2,[r0,#0x104]
        0x08001b50:    1c52        R.      ADDS     r2,r2,#1
        0x08001b52:    f8c02104    ...!    STR      r2,[r0,#0x104]
        0x08001b56:    5c82        .\      LDRB     r2,[r0,r2]
        0x08001b58:    f1a20330    ..0.    SUB      r3,r2,#0x30
        0x08001b5c:    2b09        .+      CMP      r3,#9
        0x08001b5e:    d904        ..      BLS      0x8001b6a ; JSON_GetItemValue + 50
        0x08001b60:    2a2d        -*      CMP      r2,#0x2d
        0x08001b62:    d002        ..      BEQ      0x8001b6a ; JSON_GetItemValue + 50
        0x08001b64:    2a22        "*      CMP      r2,#0x22
        0x08001b66:    d00b        ..      BEQ      0x8001b80 ; JSON_GetItemValue + 72
        0x08001b68:    e015        ..      B        0x8001b96 ; JSON_GetItemValue + 94
        0x08001b6a:    f000f935    ..5.    BL       JSON_ParseNumber ; 0x8001dd8
        0x08001b6e:    2801        .(      CMP      r0,#1
        0x08001b70:    d011        ..      BEQ      0x8001b96 ; JSON_GetItemValue + 94
        0x08001b72:    22a6        ."      MOVS     r2,#0xa6
        0x08001b74:    a109        ..      ADR      r1,{pc}+0x28 ; 0x8001b9c
        0x08001b76:    a00c        ..      ADR      r0,{pc}+0x32 ; 0x8001ba8
        0x08001b78:    f7fffd84    ....    BL       Debug_USART_Printf ; 0x8001684
        0x08001b7c:    2000        .       MOVS     r0,#0
        0x08001b7e:    bd10        ..      POP      {r4,pc}
        0x08001b80:    f000f97a    ..z.    BL       JSON_ParseString ; 0x8001e78
        0x08001b84:    2801        .(      CMP      r0,#1
        0x08001b86:    d006        ..      BEQ      0x8001b96 ; JSON_GetItemValue + 94
        0x08001b88:    22ad        ."      MOVS     r2,#0xad
        0x08001b8a:    a104        ..      ADR      r1,{pc}+0x12 ; 0x8001b9c
        0x08001b8c:    a006        ..      ADR      r0,{pc}+0x1c ; 0x8001ba8
        0x08001b8e:    f7fffd79    ..y.    BL       Debug_USART_Printf ; 0x8001684
        0x08001b92:    2000        .       MOVS     r0,#0
        0x08001b94:    bd10        ..      POP      {r4,pc}
        0x08001b96:    2001        .       MOVS     r0,#1
        0x08001b98:    bd10        ..      POP      {r4,pc}
    $d
        0x08001b9a:    0000        ..      DCW    0
        0x08001b9c:    5454514d    MQTT    DCD    1414811981
        0x08001ba0:    4f534a5c    \JSO    DCD    1330858588
        0x08001ba4:    00632e4e    N.c.    DCD    6499918
        0x08001ba8:    3a73255b    [%s:    DCD    980624731
        0x08001bac:    205d6425    %d]     DCD    542991397
        0x08001bb0:    41466470    pdFA    DCD    1095132272
        0x08001bb4:    0a0d544c    LT..    DCD    168645708
        0x08001bb8:    00000000    ....    DCD    0
    $t
    i.JSON_GetParams
    JSON_GetParams
        0x08001bbc:    b570        p.      PUSH     {r4-r6,lr}
        0x08001bbe:    b0c4        ..      SUB      sp,sp,#0x110
        0x08001bc0:    4606        .F      MOV      r6,r0
        0x08001bc2:    460d        .F      MOV      r5,r1
        0x08001bc4:    f44f7184    O..q    MOV      r1,#0x108
        0x08001bc8:    a802        ..      ADD      r0,sp,#8
        0x08001bca:    f7fefb1a    ....    BL       __aeabi_memclr ; 0x8000202
        0x08001bce:    2400        .$      MOVS     r4,#0
        0x08001bd0:    a234        4.      ADR      r2,{pc}+0xd4 ; 0x8001ca4
        0x08001bd2:    a902        ..      ADD      r1,sp,#8
        0x08001bd4:    4630        0F      MOV      r0,r6
        0x08001bd6:    f000f8b3    ....    BL       JSON_Item2JSONString ; 0x8001d40
        0x08001bda:    2801        .(      CMP      r0,#1
        0x08001bdc:    d007        ..      BEQ      0x8001bee ; JSON_GetParams + 50
        0x08001bde:    2217        ."      MOVS     r2,#0x17
        0x08001be0:    a132        2.      ADR      r1,{pc}+0xcc ; 0x8001cac
        0x08001be2:    a035        5.      ADR      r0,{pc}+0xd6 ; 0x8001cb8
        0x08001be4:    f7fffd4e    ..N.    BL       Debug_USART_Printf ; 0x8001684
        0x08001be8:    2000        .       MOVS     r0,#0
        0x08001bea:    b044        D.      ADD      sp,sp,#0x110
        0x08001bec:    bd70        p.      POP      {r4-r6,pc}
        0x08001bee:    9843        C.      LDR      r0,[sp,#0x10c]
        0x08001bf0:    1c40        @.      ADDS     r0,r0,#1
        0x08001bf2:    9043        C.      STR      r0,[sp,#0x10c]
        0x08001bf4:    ae02        ..      ADD      r6,sp,#8
        0x08001bf6:    e04f        O.      B        0x8001c98 ; JSON_GetParams + 220
        0x08001bf8:    b16c        l.      CBZ      r4,0x8001c16 ; JSON_GetParams + 90
        0x08001bfa:    f1040150    ..P.    ADD      r1,r4,#0x50
        0x08001bfe:    a802        ..      ADD      r0,sp,#8
        0x08001c00:    f7fffea0    ....    BL       JSON_GetItem ; 0x8001944
        0x08001c04:    2801        .(      CMP      r0,#1
        0x08001c06:    d030        0.      BEQ      0x8001c6a ; JSON_GetParams + 174
        0x08001c08:    2234        4"      MOVS     r2,#0x34
        0x08001c0a:    a128        (.      ADR      r1,{pc}+0xa2 ; 0x8001cac
        0x08001c0c:    a02a        *.      ADR      r0,{pc}+0xac ; 0x8001cb8
        0x08001c0e:    f7fffd39    ..9.    BL       Debug_USART_Printf ; 0x8001684
        0x08001c12:    2000        .       MOVS     r0,#0
        0x08001c14:    e7e9        ..      B        0x8001bea ; JSON_GetParams + 46
        0x08001c16:    2224        $"      MOVS     r2,#0x24
        0x08001c18:    a124        $.      ADR      r1,{pc}+0x94 ; 0x8001cac
        0x08001c1a:    a02c        ,.      ADR      r0,{pc}+0xb2 ; 0x8001ccc
        0x08001c1c:    f7fffd32    ..2.    BL       Debug_USART_Printf ; 0x8001684
        0x08001c20:    4629        )F      MOV      r1,r5
        0x08001c22:    a802        ..      ADD      r0,sp,#8
        0x08001c24:    f7fffe8e    ....    BL       JSON_GetItem ; 0x8001944
        0x08001c28:    2801        .(      CMP      r0,#1
        0x08001c2a:    d006        ..      BEQ      0x8001c3a ; JSON_GetParams + 126
        0x08001c2c:    2227        '"      MOVS     r2,#0x27
        0x08001c2e:    a11f        ..      ADR      r1,{pc}+0x7e ; 0x8001cac
        0x08001c30:    a021        !.      ADR      r0,{pc}+0x88 ; 0x8001cb8
        0x08001c32:    f7fffd27    ..'.    BL       Debug_USART_Printf ; 0x8001684
        0x08001c36:    2000        .       MOVS     r0,#0
        0x08001c38:    e7d7        ..      B        0x8001bea ; JSON_GetParams + 46
        0x08001c3a:    682c        ,h      LDR      r4,[r5,#0]
        0x08001c3c:    222b        +"      MOVS     r2,#0x2b
        0x08001c3e:    4623        #F      MOV      r3,r4
        0x08001c40:    a11a        ..      ADR      r1,{pc}+0x6c ; 0x8001cac
        0x08001c42:    a029        ).      ADR      r0,{pc}+0xa6 ; 0x8001ce8
        0x08001c44:    f7fffd1e    ....    BL       Debug_USART_Printf ; 0x8001684
        0x08001c48:    e9d4010a    ....    LDRD     r0,r1,[r4,#0x28]
        0x08001c4c:    e9cd0100    ....    STRD     r0,r1,[sp,#0]
        0x08001c50:    222c        ,"      MOVS     r2,#0x2c
        0x08001c52:    a116        ..      ADR      r1,{pc}+0x5a ; 0x8001cac
        0x08001c54:    a02a        *.      ADR      r0,{pc}+0xac ; 0x8001d00
        0x08001c56:    f7fffd15    ....    BL       Debug_USART_Printf ; 0x8001684
        0x08001c5a:    f1040330    ..0.    ADD      r3,r4,#0x30
        0x08001c5e:    222d        -"      MOVS     r2,#0x2d
        0x08001c60:    a112        ..      ADR      r1,{pc}+0x4c ; 0x8001cac
        0x08001c62:    a02f        /.      ADR      r0,{pc}+0xbe ; 0x8001d20
        0x08001c64:    f7fffd0e    ....    BL       Debug_USART_Printf ; 0x8001684
        0x08001c68:    e016        ..      B        0x8001c98 ; JSON_GetParams + 220
        0x08001c6a:    6d24        $m      LDR      r4,[r4,#0x50]
        0x08001c6c:    2238        8"      MOVS     r2,#0x38
        0x08001c6e:    4623        #F      MOV      r3,r4
        0x08001c70:    a10e        ..      ADR      r1,{pc}+0x3c ; 0x8001cac
        0x08001c72:    a01d        ..      ADR      r0,{pc}+0x76 ; 0x8001ce8
        0x08001c74:    f7fffd06    ....    BL       Debug_USART_Printf ; 0x8001684
        0x08001c78:    e9d4010a    ....    LDRD     r0,r1,[r4,#0x28]
        0x08001c7c:    e9cd0100    ....    STRD     r0,r1,[sp,#0]
        0x08001c80:    2239        9"      MOVS     r2,#0x39
        0x08001c82:    a10a        ..      ADR      r1,{pc}+0x2a ; 0x8001cac
        0x08001c84:    a01e        ..      ADR      r0,{pc}+0x7c ; 0x8001d00
        0x08001c86:    f7fffcfd    ....    BL       Debug_USART_Printf ; 0x8001684
        0x08001c8a:    f1040330    ..0.    ADD      r3,r4,#0x30
        0x08001c8e:    223a        :"      MOVS     r2,#0x3a
        0x08001c90:    a106        ..      ADR      r1,{pc}+0x1c ; 0x8001cac
        0x08001c92:    a023        #.      ADR      r0,{pc}+0x8e ; 0x8001d20
        0x08001c94:    f7fffcf6    ....    BL       Debug_USART_Printf ; 0x8001684
        0x08001c98:    9843        C.      LDR      r0,[sp,#0x10c]
        0x08001c9a:    5c30        0\      LDRB     r0,[r6,r0]
        0x08001c9c:    287d        }(      CMP      r0,#0x7d
        0x08001c9e:    d1ab        ..      BNE      0x8001bf8 ; JSON_GetParams + 60
        0x08001ca0:    2001        .       MOVS     r0,#1
        0x08001ca2:    e7a2        ..      B        0x8001bea ; JSON_GetParams + 46
    $d
        0x08001ca4:    61726170    para    DCD    1634886000
        0x08001ca8:    0000736d    ms..    DCD    29549
        0x08001cac:    5454514d    MQTT    DCD    1414811981
        0x08001cb0:    4f534a5c    \JSO    DCD    1330858588
        0x08001cb4:    00632e4e    N.c.    DCD    6499918
        0x08001cb8:    3a73255b    [%s:    DCD    980624731
        0x08001cbc:    205d6425    %d]     DCD    542991397
        0x08001cc0:    41466470    pdFA    DCD    1095132272
        0x08001cc4:    0a0d544c    LT..    DCD    168645708
        0x08001cc8:    00000000    ....    DCD    0
        0x08001ccc:    3a73255b    [%s:    DCD    980624731
        0x08001cd0:    205d6425    %d]     DCD    542991397
        0x08001cd4:    20746567    get     DCD    544499047
        0x08001cd8:    73726966    firs    DCD    1936877926
        0x08001cdc:    74692074    t it    DCD    1953046644
        0x08001ce0:    0a0d6d65    em..    DCD    168652133
        0x08001ce4:    00000000    ....    DCD    0
        0x08001ce8:    3a73255b    [%s:    DCD    980624731
        0x08001cec:    205d6425    %d]     DCD    542991397
        0x08001cf0:    6d657469    item    DCD    1835365481
        0x08001cf4:    6d616e20     nam    DCD    1835101728
        0x08001cf8:    25203a65    e: %    DCD    622869093
        0x08001cfc:    000a0d73    s...    DCD    658803
        0x08001d00:    3a73255b    [%s:    DCD    980624731
        0x08001d04:    205d6425    %d]     DCD    542991397
        0x08001d08:    6d657469    item    DCD    1835365481
        0x08001d0c:    6c617620     val    DCD    1818326560
        0x08001d10:    754e6575    ueNu    DCD    1968072053
        0x08001d14:    7265626d    mber    DCD    1919246957
        0x08001d18:    7325203a    : %s    DCD    1931812922
        0x08001d1c:    00000a0d    ....    DCD    2573
        0x08001d20:    3a73255b    [%s:    DCD    980624731
        0x08001d24:    205d6425    %d]     DCD    542991397
        0x08001d28:    6d657469    item    DCD    1835365481
        0x08001d2c:    6c617620     val    DCD    1818326560
        0x08001d30:    74536575    ueSt    DCD    1951622517
        0x08001d34:    676e6972    ring    DCD    1735289202
        0x08001d38:    7325203a    : %s    DCD    1931812922
        0x08001d3c:    00000a0d    ....    DCD    2573
    $t
    i.JSON_Item2JSONString
    JSON_Item2JSONString
        0x08001d40:    b570        p.      PUSH     {r4-r6,lr}
        0x08001d42:    460c        .F      MOV      r4,r1
        0x08001d44:    4605        .F      MOV      r5,r0
        0x08001d46:    4611        .F      MOV      r1,r2
        0x08001d48:    4628        (F      MOV      r0,r5
        0x08001d4a:    f7fefa65    ..e.    BL       strstr ; 0x8000218
        0x08001d4e:    b128        (.      CBZ      r0,0x8001d5c ; JSON_Item2JSONString + 28
        0x08001d50:    1b41        A.      SUBS     r1,r0,r5
        0x08001d52:    1c49        I.      ADDS     r1,r1,#1
        0x08001d54:    5c68        h\      LDRB     r0,[r5,r1]
        0x08001d56:    283a        :(      CMP      r0,#0x3a
        0x08001d58:    d1fb        ..      BNE      0x8001d52 ; JSON_Item2JSONString + 18
        0x08001d5a:    e012        ..      B        0x8001d82 ; JSON_Item2JSONString + 66
        0x08001d5c:    2249        I"      MOVS     r2,#0x49
        0x08001d5e:    a112        ..      ADR      r1,{pc}+0x4a ; 0x8001da8
        0x08001d60:    a014        ..      ADR      r0,{pc}+0x54 ; 0x8001db4
        0x08001d62:    f7fffc8f    ....    BL       Debug_USART_Printf ; 0x8001684
        0x08001d66:    2000        .       MOVS     r0,#0
        0x08001d68:    bd70        p.      POP      {r4-r6,pc}
        0x08001d6a:    5c6a        j\      LDRB     r2,[r5,r1]
        0x08001d6c:    5422        "T      STRB     r2,[r4,r0]
        0x08001d6e:    f8d40104    ....    LDR      r0,[r4,#0x104]
        0x08001d72:    1c40        @.      ADDS     r0,r0,#1
        0x08001d74:    f8c40104    ....    STR      r0,[r4,#0x104]
        0x08001d78:    f8d40100    ....    LDR      r0,[r4,#0x100]
        0x08001d7c:    1c40        @.      ADDS     r0,r0,#1
        0x08001d7e:    f8c40100    ....    STR      r0,[r4,#0x100]
        0x08001d82:    b144        D.      CBZ      r4,0x8001d96 ; JSON_Item2JSONString + 86
        0x08001d84:    f8d40104    ....    LDR      r0,[r4,#0x104]
        0x08001d88:    28ff        .(      CMP      r0,#0xff
        0x08001d8a:    d204        ..      BCS      0x8001d96 ; JSON_Item2JSONString + 86
        0x08001d8c:    460a        .F      MOV      r2,r1
        0x08001d8e:    1c49        I.      ADDS     r1,r1,#1
        0x08001d90:    5caa        .\      LDRB     r2,[r5,r2]
        0x08001d92:    2a7d        }*      CMP      r2,#0x7d
        0x08001d94:    d1e9        ..      BNE      0x8001d6a ; JSON_Item2JSONString + 42
        0x08001d96:    f8d41104    ....    LDR      r1,[r4,#0x104]
        0x08001d9a:    2000        .       MOVS     r0,#0
        0x08001d9c:    5460        `T      STRB     r0,[r4,r1]
        0x08001d9e:    f8c40104    ....    STR      r0,[r4,#0x104]
        0x08001da2:    2001        .       MOVS     r0,#1
        0x08001da4:    bd70        p.      POP      {r4-r6,pc}
    $d
        0x08001da6:    0000        ..      DCW    0
        0x08001da8:    5454514d    MQTT    DCD    1414811981
        0x08001dac:    4f534a5c    \JSO    DCD    1330858588
        0x08001db0:    00632e4e    N.c.    DCD    6499918
        0x08001db4:    3a73255b    [%s:    DCD    980624731
        0x08001db8:    205d6425    %d]     DCD    542991397
        0x08001dbc:    4e4f534a    JSON    DCD    1313821514
        0x08001dc0:    65746920     ite    DCD    1702127904
        0x08001dc4:    6f64206d    m do    DCD    1868832877
        0x08001dc8:    276e7365    esn'    DCD    661549925
        0x08001dcc:    78652074    t ex    DCD    2019893364
        0x08001dd0:    0d747369    ist.    DCD    225735529
        0x08001dd4:    0000000a    ....    DCD    10
    $t
    i.JSON_ParseNumber
    JSON_ParseNumber
        0x08001dd8:    b570        p.      PUSH     {r4-r6,lr}
        0x08001dda:    b088        ..      SUB      sp,sp,#0x20
        0x08001ddc:    4604        .F      MOV      r4,r0
        0x08001dde:    460e        .F      MOV      r6,r1
        0x08001de0:    2120         !      MOVS     r1,#0x20
        0x08001de2:    4668        hF      MOV      r0,sp
        0x08001de4:    f7fefa0d    ....    BL       __aeabi_memclr ; 0x8000202
        0x08001de8:    2000        .       MOVS     r0,#0
        0x08001dea:    466b        kF      MOV      r3,sp
        0x08001dec:    e007        ..      B        0x8001dfe ; JSON_ParseNumber + 38
        0x08001dee:    4602        .F      MOV      r2,r0
        0x08001df0:    1c40        @.      ADDS     r0,r0,#1
        0x08001df2:    5499        .T      STRB     r1,[r3,r2]
        0x08001df4:    f8d41104    ....    LDR      r1,[r4,#0x104]
        0x08001df8:    1c49        I.      ADDS     r1,r1,#1
        0x08001dfa:    f8c41104    ....    STR      r1,[r4,#0x104]
        0x08001dfe:    b154        T.      CBZ      r4,0x8001e16 ; JSON_ParseNumber + 62
        0x08001e00:    f8d42100    ...!    LDR      r2,[r4,#0x100]
        0x08001e04:    f8d41104    ....    LDR      r1,[r4,#0x104]
        0x08001e08:    4291        .B      CMP      r1,r2
        0x08001e0a:    da04        ..      BGE      0x8001e16 ; JSON_ParseNumber + 62
        0x08001e0c:    5c61        a\      LDRB     r1,[r4,r1]
        0x08001e0e:    292c        ,)      CMP      r1,#0x2c
        0x08001e10:    d001        ..      BEQ      0x8001e16 ; JSON_ParseNumber + 62
        0x08001e12:    297d        })      CMP      r1,#0x7d
        0x08001e14:    d1eb        ..      BNE      0x8001dee ; JSON_ParseNumber + 22
        0x08001e16:    2100        .!      MOVS     r1,#0
        0x08001e18:    5419        .T      STRB     r1,[r3,r0]
        0x08001e1a:    4668        hF      MOV      r0,sp
        0x08001e1c:    f002f95a    ..Z.    BL       strtod ; 0x80040d4
        0x08001e20:    4604        .F      MOV      r4,r0
        0x08001e22:    460d        .F      MOV      r5,r1
        0x08001e24:    2200        ."      MOVS     r2,#0
        0x08001e26:    4613        .F      MOV      r3,r2
        0x08001e28:    4620         F      MOV      r0,r4
        0x08001e2a:    4629        )F      MOV      r1,r5
        0x08001e2c:    f7fefbbc    ....    BL       __aeabi_cdcmpeq ; 0x80005a8
        0x08001e30:    d10b        ..      BNE      0x8001e4a ; JSON_ParseNumber + 114
        0x08001e32:    f89d0000    ....    LDRB     r0,[sp,#0]
        0x08001e36:    2830        0(      CMP      r0,#0x30
        0x08001e38:    d007        ..      BEQ      0x8001e4a ; JSON_ParseNumber + 114
        0x08001e3a:    22c8        ."      MOVS     r2,#0xc8
        0x08001e3c:    a105        ..      ADR      r1,{pc}+0x18 ; 0x8001e54
        0x08001e3e:    a008        ..      ADR      r0,{pc}+0x22 ; 0x8001e60
        0x08001e40:    f7fffc20    .. .    BL       Debug_USART_Printf ; 0x8001684
        0x08001e44:    2000        .       MOVS     r0,#0
        0x08001e46:    b008        ..      ADD      sp,sp,#0x20
        0x08001e48:    bd70        p.      POP      {r4-r6,pc}
        0x08001e4a:    2001        .       MOVS     r0,#1
        0x08001e4c:    6230        0b      STR      r0,[r6,#0x20]
        0x08001e4e:    e9c6450a    ...E    STRD     r4,r5,[r6,#0x28]
        0x08001e52:    e7f8        ..      B        0x8001e46 ; JSON_ParseNumber + 110
    $d
        0x08001e54:    5454514d    MQTT    DCD    1414811981
        0x08001e58:    4f534a5c    \JSO    DCD    1330858588
        0x08001e5c:    00632e4e    N.c.    DCD    6499918
        0x08001e60:    3a73255b    [%s:    DCD    980624731
        0x08001e64:    205d6425    %d]     DCD    542991397
        0x08001e68:    74727473    strt    DCD    1953657971
        0x08001e6c:    6620646f    od f    DCD    1713398895
        0x08001e70:    65696c61    alie    DCD    1701407841
        0x08001e74:    000a0d64    d...    DCD    658788
    $t
    i.JSON_ParseString
    JSON_ParseString
        0x08001e78:    b510        ..      PUSH     {r4,lr}
        0x08001e7a:    2200        ."      MOVS     r2,#0
        0x08001e7c:    f8d03104    ...1    LDR      r3,[r0,#0x104]
        0x08001e80:    1c5b        [.      ADDS     r3,r3,#1
        0x08001e82:    f8c03104    ...1    STR      r3,[r0,#0x104]
        0x08001e86:    e009        ..      B        0x8001e9c ; JSON_ParseString + 36
        0x08001e88:    4614        .F      MOV      r4,r2
        0x08001e8a:    440c        .D      ADD      r4,r4,r1
        0x08001e8c:    1c52        R.      ADDS     r2,r2,#1
        0x08001e8e:    f8843030    ..00    STRB     r3,[r4,#0x30]
        0x08001e92:    f8d03104    ...1    LDR      r3,[r0,#0x104]
        0x08001e96:    1c5b        [.      ADDS     r3,r3,#1
        0x08001e98:    f8c03104    ...1    STR      r3,[r0,#0x104]
        0x08001e9c:    b140        @.      CBZ      r0,0x8001eb0 ; JSON_ParseString + 56
        0x08001e9e:    f8d04100    ...A    LDR      r4,[r0,#0x100]
        0x08001ea2:    f8d03104    ...1    LDR      r3,[r0,#0x104]
        0x08001ea6:    42a3        .B      CMP      r3,r4
        0x08001ea8:    da02        ..      BGE      0x8001eb0 ; JSON_ParseString + 56
        0x08001eaa:    5cc3        .\      LDRB     r3,[r0,r3]
        0x08001eac:    2b22        "+      CMP      r3,#0x22
        0x08001eae:    d1eb        ..      BNE      0x8001e88 ; JSON_ParseString + 16
        0x08001eb0:    f8d03104    ...1    LDR      r3,[r0,#0x104]
        0x08001eb4:    1c5b        [.      ADDS     r3,r3,#1
        0x08001eb6:    f8c03104    ...1    STR      r3,[r0,#0x104]
        0x08001eba:    440a        .D      ADD      r2,r2,r1
        0x08001ebc:    2000        .       MOVS     r0,#0
        0x08001ebe:    f8820030    ..0.    STRB     r0,[r2,#0x30]
        0x08001ec2:    2002        .       MOVS     r0,#2
        0x08001ec4:    6208        .b      STR      r0,[r1,#0x20]
        0x08001ec6:    2001        .       MOVS     r0,#1
        0x08001ec8:    bd10        ..      POP      {r4,pc}
        0x08001eca:    0000        ..      MOVS     r0,r0
    i.JSON_PrintItemList
    JSON_PrintItemList
        0x08001ecc:    b51c        ..      PUSH     {r2-r4,lr}
        0x08001ece:    2800        .(      CMP      r0,#0
        0x08001ed0:    d001        ..      BEQ      0x8001ed6 ; JSON_PrintItemList + 10
        0x08001ed2:    4604        .F      MOV      r4,r0
        0x08001ed4:    e029        ).      B        0x8001f2a ; JSON_PrintItemList + 94
        0x08001ed6:    b002        ..      ADD      sp,sp,#8
        0x08001ed8:    22e8        ."      MOVS     r2,#0xe8
        0x08001eda:    e8bd4010    ...@    POP      {r4,lr}
        0x08001ede:    a114        ..      ADR      r1,{pc}+0x52 ; 0x8001f30
        0x08001ee0:    a016        ..      ADR      r0,{pc}+0x5c ; 0x8001f3c
        0x08001ee2:    f7ffbbcf    ....    B        Debug_USART_Printf ; 0x8001684
        0x08001ee6:    6a20         j      LDR      r0,[r4,#0x20]
        0x08001ee8:    2801        .(      CMP      r0,#1
        0x08001eea:    d009        ..      BEQ      0x8001f00 ; JSON_PrintItemList + 52
        0x08001eec:    2802        .(      CMP      r0,#2
        0x08001eee:    d012        ..      BEQ      0x8001f16 ; JSON_PrintItemList + 74
        0x08001ef0:    b002        ..      ADD      sp,sp,#8
        0x08001ef2:    22f4        ."      MOVS     r2,#0xf4
        0x08001ef4:    e8bd4010    ...@    POP      {r4,lr}
        0x08001ef8:    a10d        ..      ADR      r1,{pc}+0x38 ; 0x8001f30
        0x08001efa:    a016        ..      ADR      r0,{pc}+0x5a ; 0x8001f54
        0x08001efc:    f7ffbbc2    ....    B        Debug_USART_Printf ; 0x8001684
        0x08001f00:    e9d4010a    ....    LDRD     r0,r1,[r4,#0x28]
        0x08001f04:    e9cd0100    ....    STRD     r0,r1,[sp,#0]
        0x08001f08:    4623        #F      MOV      r3,r4
        0x08001f0a:    22f0        ."      MOVS     r2,#0xf0
        0x08001f0c:    a108        ..      ADR      r1,{pc}+0x24 ; 0x8001f30
        0x08001f0e:    a018        ..      ADR      r0,{pc}+0x62 ; 0x8001f70
        0x08001f10:    f7fffbb8    ....    BL       Debug_USART_Printf ; 0x8001684
        0x08001f14:    e008        ..      B        0x8001f28 ; JSON_PrintItemList + 92
        0x08001f16:    f1040030    ..0.    ADD      r0,r4,#0x30
        0x08001f1a:    9000        ..      STR      r0,[sp,#0]
        0x08001f1c:    4623        #F      MOV      r3,r4
        0x08001f1e:    22f2        ."      MOVS     r2,#0xf2
        0x08001f20:    a103        ..      ADR      r1,{pc}+0x10 ; 0x8001f30
        0x08001f22:    a018        ..      ADR      r0,{pc}+0x62 ; 0x8001f84
        0x08001f24:    f7fffbae    ....    BL       Debug_USART_Printf ; 0x8001684
        0x08001f28:    6d24        $m      LDR      r4,[r4,#0x50]
        0x08001f2a:    2c00        .,      CMP      r4,#0
        0x08001f2c:    d1db        ..      BNE      0x8001ee6 ; JSON_PrintItemList + 26
        0x08001f2e:    bd1c        ..      POP      {r2-r4,pc}
    $d
        0x08001f30:    5454514d    MQTT    DCD    1414811981
        0x08001f34:    4f534a5c    \JSO    DCD    1330858588
        0x08001f38:    00632e4e    N.c.    DCD    6499918
        0x08001f3c:    3a73255b    [%s:    DCD    980624731
        0x08001f40:    205d6425    %d]     DCD    542991397
        0x08001f44:    7473696c    list    DCD    1953720684
        0x08001f48:    20736920     is     DCD    544434464
        0x08001f4c:    74706d65    empt    DCD    1953525093
        0x08001f50:    000a0d79    y...    DCD    658809
        0x08001f54:    3a73255b    [%s:    DCD    980624731
        0x08001f58:    205d6425    %d]     DCD    542991397
        0x08001f5c:    756f7277    wrou    DCD    1970238071
        0x08001f60:    6920676e    ng i    DCD    1763731310
        0x08001f64:    206d6574    tem     DCD    544040308
        0x08001f68:    65707974    type    DCD    1701869940
        0x08001f6c:    00000a0d    ....    DCD    2573
        0x08001f70:    3a73255b    [%s:    DCD    980624731
        0x08001f74:    205d6425    %d]     DCD    542991397
        0x08001f78:    253a7325    %s:%    DCD    624587557
        0x08001f7c:    3e2d2066    f ->    DCD    1043144806
        0x08001f80:    00000020     ...    DCD    32
        0x08001f84:    3a73255b    [%s:    DCD    980624731
        0x08001f88:    205d6425    %d]     DCD    542991397
        0x08001f8c:    253a7325    %s:%    DCD    624587557
        0x08001f90:    3e2d2073    s ->    DCD    1043144819
        0x08001f94:    00000020     ...    DCD    32
    $t
    i.Key_Init
    Key_Init
        0x08001f98:    b57f        ..      PUSH     {r0-r6,lr}
        0x08001f9a:    2101        .!      MOVS     r1,#1
        0x08001f9c:    2004        .       MOVS     r0,#4
        0x08001f9e:    f000faad    ....    BL       RCC_APB2PeriphClockCmd ; 0x80024fc
        0x08001fa2:    2101        .!      MOVS     r1,#1
        0x08001fa4:    4608        .F      MOV      r0,r1
        0x08001fa6:    f000faa9    ....    BL       RCC_APB2PeriphClockCmd ; 0x80024fc
        0x08001faa:    2048        H       MOVS     r0,#0x48
        0x08001fac:    f88d000f    ....    STRB     r0,[sp,#0xf]
        0x08001fb0:    2401        .$      MOVS     r4,#1
        0x08001fb2:    f8ad400c    ...@    STRH     r4,[sp,#0xc]
        0x08001fb6:    2003        .       MOVS     r0,#3
        0x08001fb8:    f88d000e    ....    STRB     r0,[sp,#0xe]
        0x08001fbc:    a903        ..      ADD      r1,sp,#0xc
        0x08001fbe:    4810        .H      LDR      r0,[pc,#64] ; [0x8002000] = 0x40010800
        0x08001fc0:    f7fffc38    ..8.    BL       GPIO_Init ; 0x8001834
        0x08001fc4:    2100        .!      MOVS     r1,#0
        0x08001fc6:    4608        .F      MOV      r0,r1
        0x08001fc8:    f7fffc20    .. .    BL       GPIO_EXTILineConfig ; 0x800180c
        0x08001fcc:    9401        ..      STR      r4,[sp,#4]
        0x08001fce:    2500        .%      MOVS     r5,#0
        0x08001fd0:    f88d5008    ...P    STRB     r5,[sp,#8]
        0x08001fd4:    2008        .       MOVS     r0,#8
        0x08001fd6:    f88d0009    ....    STRB     r0,[sp,#9]
        0x08001fda:    f88d400a    ...@    STRB     r4,[sp,#0xa]
        0x08001fde:    a801        ..      ADD      r0,sp,#4
        0x08001fe0:    f7fffbda    ....    BL       EXTI_Init ; 0x8001798
        0x08001fe4:    2006        .       MOVS     r0,#6
        0x08001fe6:    f88d0000    ....    STRB     r0,[sp,#0]
        0x08001fea:    f88d5001    ...P    STRB     r5,[sp,#1]
        0x08001fee:    f88d5002    ...P    STRB     r5,[sp,#2]
        0x08001ff2:    f88d4003    ...@    STRB     r4,[sp,#3]
        0x08001ff6:    4668        hF      MOV      r0,sp
        0x08001ff8:    f000fa1c    ....    BL       NVIC_Init ; 0x8002434
        0x08001ffc:    bd7f        ..      POP      {r0-r6,pc}
    $d
        0x08001ffe:    0000        ..      DCW    0
        0x08002000:    40010800    ...@    DCD    1073809408
    $t
    i.LED_Blink
    LED_Blink
        0x08002004:    b570        p.      PUSH     {r4-r6,lr}
        0x08002006:    2403        .$      MOVS     r4,#3
        0x08002008:    f44f767a    O.zv    MOV      r6,#0x3e8
        0x0800200c:    4d09        .M      LDR      r5,[pc,#36] ; [0x8002034] = 0x40010800
        0x0800200e:    e00d        ..      B        0x800202c ; LED_Blink + 40
        0x08002010:    2110        .!      MOVS     r1,#0x10
        0x08002012:    4628        (F      MOV      r0,r5
        0x08002014:    f7fffc6a    ..j.    BL       GPIO_SetBits ; 0x80018ec
        0x08002018:    4630        0F      MOV      r0,r6
        0x0800201a:    f7fffb5f    .._.    BL       Delay_ms ; 0x80016dc
        0x0800201e:    2110        .!      MOVS     r1,#0x10
        0x08002020:    4628        (F      MOV      r0,r5
        0x08002022:    f7fffc61    ..a.    BL       GPIO_ResetBits ; 0x80018e8
        0x08002026:    4630        0F      MOV      r0,r6
        0x08002028:    f7fffb58    ..X.    BL       Delay_ms ; 0x80016dc
        0x0800202c:    1e64        d.      SUBS     r4,r4,#1
        0x0800202e:    1c60        `.      ADDS     r0,r4,#1
        0x08002030:    d1ee        ..      BNE      0x8002010 ; LED_Blink + 12
        0x08002032:    bd70        p.      POP      {r4-r6,pc}
    $d
        0x08002034:    40010800    ...@    DCD    1073809408
    $t
    i.LED_Init
    LED_Init
        0x08002038:    b508        ..      PUSH     {r3,lr}
        0x0800203a:    2101        .!      MOVS     r1,#1
        0x0800203c:    2004        .       MOVS     r0,#4
        0x0800203e:    f000fa5d    ..].    BL       RCC_APB2PeriphClockCmd ; 0x80024fc
        0x08002042:    2010        .       MOVS     r0,#0x10
        0x08002044:    f88d0003    ....    STRB     r0,[sp,#3]
        0x08002048:    f8ad0000    ....    STRH     r0,[sp,#0]
        0x0800204c:    2003        .       MOVS     r0,#3
        0x0800204e:    f88d0002    ....    STRB     r0,[sp,#2]
        0x08002052:    4669        iF      MOV      r1,sp
        0x08002054:    4801        .H      LDR      r0,[pc,#4] ; [0x800205c] = 0x40010800
        0x08002056:    f7fffbed    ....    BL       GPIO_Init ; 0x8001834
        0x0800205a:    bd08        ..      POP      {r3,pc}
    $d
        0x0800205c:    40010800    ...@    DCD    1073809408
    $t
    i.MQTT_ClientConfig
    MQTT_ClientConfig
        0x08002060:    2100        .!      MOVS     r1,#0
        0x08002062:    6041        A`      STR      r1,[r0,#4]
        0x08002064:    2201        ."      MOVS     r2,#1
        0x08002066:    6002        .`      STR      r2,[r0,#0]
        0x08002068:    4a09        .J      LDR      r2,[pc,#36] ; [0x8002090] = 0x8004e10
        0x0800206a:    6082        .`      STR      r2,[r0,#8]
        0x0800206c:    a209        ..      ADR      r2,{pc}+0x28 ; 0x8002094
        0x0800206e:    60c2        .`      STR      r2,[r0,#0xc]
        0x08002070:    4a0e        .J      LDR      r2,[pc,#56] ; [0x80020ac] = 0x8004dcc
        0x08002072:    6102        .a      STR      r2,[r0,#0x10]
        0x08002074:    a20e        ..      ADR      r2,{pc}+0x3c ; 0x80020b0
        0x08002076:    6142        Ba      STR      r2,[r0,#0x14]
        0x08002078:    f240725b    @.[r    MOV      r2,#0x75b
        0x0800207c:    6182        .a      STR      r2,[r0,#0x18]
        0x0800207e:    223c        <"      MOVS     r2,#0x3c
        0x08002080:    61c2        .a      STR      r2,[r0,#0x1c]
        0x08002082:    6201        .b      STR      r1,[r0,#0x20]
        0x08002084:    6241        Ab      STR      r1,[r0,#0x24]
        0x08002086:    a216        ..      ADR      r2,{pc}+0x5a ; 0x80020e0
        0x08002088:    6282        .b      STR      r2,[r0,#0x28]
        0x0800208a:    62c1        .b      STR      r1,[r0,#0x2c]
        0x0800208c:    4770        pG      BX       lr
    $d
        0x0800208e:    0000        ..      DCW    0
        0x08002090:    08004e10    .N..    DCD    134237712
        0x08002094:    72616d53    Smar    DCD    1918987603
        0x08002098:    6f485f74    t_Ho    DCD    1867014004
        0x0800209c:    6b26656d    me&k    DCD    1797678445
        0x080020a0:    39647931    1yd9    DCD    962885937
        0x080020a4:    4677567a    zVwF    DCD    1182226042
        0x080020a8:    00007a61    az..    DCD    31329
        0x080020ac:    08004dcc    .M..    DCD    134237644
        0x080020b0:    2d746f69    iot-    DCD    762605417
        0x080020b4:    307a3630    06z0    DCD    813315632
        0x080020b8:    68346430    0d4h    DCD    1748263984
        0x080020bc:    77626e37    7nbw    DCD    2002939447
        0x080020c0:    2e353168    h15.    DCD    775237992
        0x080020c4:    7474716d    mqtt    DCD    1953788269
        0x080020c8:    746f692e    .iot    DCD    1953458478
        0x080020cc:    2e627568    hub.    DCD    778204520
        0x080020d0:    79696c61    aliy    DCD    2036952161
        0x080020d4:    73636e75    uncs    DCD    1935896181
        0x080020d8:    6d6f632e    .com    DCD    1836016430
        0x080020dc:    00000000    ....    DCD    0
        0x080020e0:    7379732f    /sys    DCD    1937339183
        0x080020e4:    79316b2f    /k1y    DCD    2033281839
        0x080020e8:    567a3964    d9zV    DCD    1450850660
        0x080020ec:    7a614677    wFaz    DCD    2053195383
        0x080020f0:    616d532f    /Sma    DCD    1634554671
        0x080020f4:    485f7472    rt_H    DCD    1214215282
        0x080020f8:    2f656d6f    ome/    DCD    795176303
        0x080020fc:    6e696874    thin    DCD    1852401780
        0x08002100:    76652f67    g/ev    DCD    1986342759
        0x08002104:    2f746e65    ent/    DCD    796159589
        0x08002108:    706f7270    prop    DCD    1886351984
        0x0800210c:    79747265    erty    DCD    2037674597
        0x08002110:    736f702f    /pos    DCD    1936683055
        0x08002114:    00000074    t...    DCD    116
    $t
    i.MQTT_Connect
    MQTT_Connect
        0x08002118:    b510        ..      PUSH     {r4,lr}
        0x0800211a:    4604        .F      MOV      r4,r0
        0x0800211c:    4620         F      MOV      r0,r4
        0x0800211e:    f000f935    ..5.    BL       MQTT_UserConfig ; 0x800238c
        0x08002122:    4620         F      MOV      r0,r4
        0x08002124:    f000f806    ....    BL       MQTT_ConnectConfig ; 0x8002134
        0x08002128:    4620         F      MOV      r0,r4
        0x0800212a:    e8bd4010    ...@    POP      {r4,lr}
        0x0800212e:    f000b847    ..G.    B.W      MQTT_ConnectSever ; 0x80021c0
        0x08002132:    0000        ..      MOVS     r0,r0
    i.MQTT_ConnectConfig
    MQTT_ConnectConfig
        0x08002134:    b500        ..      PUSH     {lr}
        0x08002136:    b0c3        ..      SUB      sp,sp,#0x10c
        0x08002138:    e9d01207    ....    LDRD     r1,r2,[r0,#0x1c]
        0x0800213c:    e9cd1200    ....    STRD     r1,r2,[sp,#0]
        0x08002140:    6843        Ch      LDR      r3,[r0,#4]
        0x08002142:    a20a        ..      ADR      r2,{pc}+0x2a ; 0x800216c
        0x08002144:    f44f7180    O..q    MOV      r1,#0x100
        0x08002148:    a803        ..      ADD      r0,sp,#0xc
        0x0800214a:    f000ff75    ..u.    BL       __0snprintf ; 0x8003038
        0x0800214e:    f04f31ff    O..1    MOV      r1,#0xffffffff
        0x08002152:    a803        ..      ADD      r0,sp,#0xc
        0x08002154:    f7fff964    ..d.    BL       AT_SendCommand ; 0x8001420
        0x08002158:    2800        .(      CMP      r0,#0
        0x0800215a:    d005        ..      BEQ      0x8002168 ; MQTT_ConnectConfig + 52
        0x0800215c:    225e        ^"      MOVS     r2,#0x5e
        0x0800215e:    a10c        ..      ADR      r1,{pc}+0x32 ; 0x8002190
        0x08002160:    a010        ..      ADR      r0,{pc}+0x44 ; 0x80021a4
        0x08002162:    f7fffa8f    ....    BL       Debug_USART_Printf ; 0x8001684
        0x08002166:    2001        .       MOVS     r0,#1
        0x08002168:    b043        C.      ADD      sp,sp,#0x10c
        0x0800216a:    bd00        ..      POP      {pc}
    $d
        0x0800216c:    4d2b5441    AT+M    DCD    1294685249
        0x08002170:    43545451    QTTC    DCD    1129600081
        0x08002174:    434e4e4f    ONNC    DCD    1129205327
        0x08002178:    253d4746    FG=%    DCD    624772934
        0x0800217c:    64252c64    d,%d    DCD    1680157796
        0x08002180:    2c64252c    ,%d,    DCD    744760620
        0x08002184:    222c2222    "","    DCD    573317666
        0x08002188:    2c302c22    ",0,    DCD    741354530
        0x0800218c:    000a0d30    0...    DCD    658736
        0x08002190:    5454514d    MQTT    DCD    1414811981
        0x08002194:    54514d5c    \MQT    DCD    1414614364
        0x08002198:    696c4354    TCli    DCD    1768702804
        0x0800219c:    2e746e65    ent.    DCD    779382373
        0x080021a0:    00000063    c...    DCD    99
        0x080021a4:    3a73255b    [%s:    DCD    980624731
        0x080021a8:    205d6425    %d]     DCD    542991397
        0x080021ac:    6e6e6f63    conn    DCD    1852731235
        0x080021b0:    20746365    ect     DCD    544498533
        0x080021b4:    61663a63    c:fa    DCD    1634089571
        0x080021b8:    64656c69    iled    DCD    1684368489
        0x080021bc:    00000a0d    ....    DCD    2573
    $t
    i.MQTT_ConnectSever
    MQTT_ConnectSever
        0x080021c0:    b500        ..      PUSH     {lr}
        0x080021c2:    b0c3        ..      SUB      sp,sp,#0x10c
        0x080021c4:    e9d02305    ...#    LDRD     r2,r3,[r0,#0x14]
        0x080021c8:    6a41        Aj      LDR      r1,[r0,#0x24]
        0x080021ca:    e9cd2300    ...#    STRD     r2,r3,[sp,#0]
        0x080021ce:    9102        ..      STR      r1,[sp,#8]
        0x080021d0:    6843        Ch      LDR      r3,[r0,#4]
        0x080021d2:    a20a        ..      ADR      r2,{pc}+0x2a ; 0x80021fc
        0x080021d4:    f44f7180    O..q    MOV      r1,#0x100
        0x080021d8:    a803        ..      ADD      r0,sp,#0xc
        0x080021da:    f000ff2d    ..-.    BL       __0snprintf ; 0x8003038
        0x080021de:    f04f31ff    O..1    MOV      r1,#0xffffffff
        0x080021e2:    a803        ..      ADD      r0,sp,#0xc
        0x080021e4:    f7fff91c    ....    BL       AT_SendCommand ; 0x8001420
        0x080021e8:    2800        .(      CMP      r0,#0
        0x080021ea:    d005        ..      BEQ      0x80021f8 ; MQTT_ConnectSever + 56
        0x080021ec:    2273        s"      MOVS     r2,#0x73
        0x080021ee:    a10a        ..      ADR      r1,{pc}+0x2a ; 0x8002218
        0x080021f0:    a00e        ..      ADR      r0,{pc}+0x3c ; 0x800222c
        0x080021f2:    f7fffa47    ..G.    BL       Debug_USART_Printf ; 0x8001684
        0x080021f6:    2002        .       MOVS     r0,#2
        0x080021f8:    b043        C.      ADD      sp,sp,#0x10c
        0x080021fa:    bd00        ..      POP      {pc}
    $d
        0x080021fc:    4d2b5441    AT+M    DCD    1294685249
        0x08002200:    43545451    QTTC    DCD    1129600081
        0x08002204:    3d4e4e4f    ONN=    DCD    1028542031
        0x08002208:    222c6425    %d,"    DCD    573334565
        0x0800220c:    2c227325    %s",    DCD    740455205
        0x08002210:    252c6425    %d,%    DCD    623666213
        0x08002214:    000a0d64    d...    DCD    658788
        0x08002218:    5454514d    MQTT    DCD    1414811981
        0x0800221c:    54514d5c    \MQT    DCD    1414614364
        0x08002220:    696c4354    TCli    DCD    1768702804
        0x08002224:    2e746e65    ent.    DCD    779382373
        0x08002228:    00000063    c...    DCD    99
        0x0800222c:    3a73255b    [%s:    DCD    980624731
        0x08002230:    205d6425    %d]     DCD    542991397
        0x08002234:    6e6e6f63    conn    DCD    1852731235
        0x08002238:    20746365    ect     DCD    544498533
        0x0800223c:    76726573    serv    DCD    1987208563
        0x08002240:    663a7265    er:f    DCD    1715106405
        0x08002244:    656c6961    aile    DCD    1701603681
        0x08002248:    000a0d64    d...    DCD    658788
    $t
    i.MQTT_Publish
    MQTT_Publish
        0x0800224c:    b537        7.      PUSH     {r0-r2,r4,r5,lr}
        0x0800224e:    f5ad7d06    ...}    SUB      sp,sp,#0x218
        0x08002252:    a221        !.      ADR      r2,{pc}+0x86 ; 0x80022d8
        0x08002254:    9986        ..      LDR      r1,[sp,#0x218]
        0x08002256:    9887        ..      LDR      r0,[sp,#0x21c]
        0x08002258:    a322        ".      ADR      r3,{pc}+0x8c ; 0x80022e4
        0x0800225a:    e9cd2004    ...     STRD     r2,r0,[sp,#0x10]
        0x0800225e:    e9cd3102    ...1    STRD     r3,r1,[sp,#8]
        0x08002262:    9888        ..      LDR      r0,[sp,#0x220]
        0x08002264:    a122        ".      ADR      r1,{pc}+0x8c ; 0x80022f0
        0x08002266:    e9cd1000    ....    STRD     r1,r0,[sp,#0]
        0x0800226a:    4824        $H      LDR      r0,[pc,#144] ; [0x80022fc] = 0x20000094
        0x0800226c:    f44f7480    O..t    MOV      r4,#0x100
        0x08002270:    4a23        #J      LDR      r2,[pc,#140] ; [0x8002300] = 0x8004e68
        0x08002272:    6803        .h      LDR      r3,[r0,#0]
        0x08002274:    1c59        Y.      ADDS     r1,r3,#1
        0x08002276:    6001        .`      STR      r1,[r0,#0]
        0x08002278:    4621        !F      MOV      r1,r4
        0x0800227a:    a846        F.      ADD      r0,sp,#0x118
        0x0800227c:    f000fedc    ....    BL       __0snprintf ; 0x8003038
        0x08002280:    4a20         J      LDR      r2,[pc,#128] ; [0x8002304] = 0x20003fc0
        0x08002282:    2500        .%      MOVS     r5,#0
        0x08002284:    e9d2310a    ...1    LDRD     r3,r1,[r2,#0x28]
        0x08002288:    e9cd1502    ....    STRD     r1,r5,[sp,#8]
        0x0800228c:    e9cd3000    ...0    STRD     r3,r0,[sp,#0]
        0x08002290:    6853        Sh      LDR      r3,[r2,#4]
        0x08002292:    a21d        ..      ADR      r2,{pc}+0x76 ; 0x8002308
        0x08002294:    4621        !F      MOV      r1,r4
        0x08002296:    a806        ..      ADD      r0,sp,#0x18
        0x08002298:    f000fece    ....    BL       __0snprintf ; 0x8003038
        0x0800229c:    1e6c        l.      SUBS     r4,r5,#1
        0x0800229e:    4621        !F      MOV      r1,r4
        0x080022a0:    a806        ..      ADD      r0,sp,#0x18
        0x080022a2:    f7fff8bd    ....    BL       AT_SendCommand ; 0x8001420
        0x080022a6:    2802        .(      CMP      r0,#2
        0x080022a8:    d008        ..      BEQ      0x80022bc ; MQTT_Publish + 112
        0x080022aa:    229a        ."      MOVS     r2,#0x9a
        0x080022ac:    a11f        ..      ADR      r1,{pc}+0x80 ; 0x800232c
        0x080022ae:    a024        $.      ADR      r0,{pc}+0x92 ; 0x8002340
        0x080022b0:    f7fff9e8    ....    BL       Debug_USART_Printf ; 0x8001684
        0x080022b4:    2003        .       MOVS     r0,#3
        0x080022b6:    f50d7d09    ...}    ADD      sp,sp,#0x224
        0x080022ba:    bd30        0.      POP      {r4,r5,pc}
        0x080022bc:    4621        !F      MOV      r1,r4
        0x080022be:    a846        F.      ADD      r0,sp,#0x118
        0x080022c0:    f7fff8e4    ....    BL       AT_SendData ; 0x800148c
        0x080022c4:    2800        .(      CMP      r0,#0
        0x080022c6:    d0f6        ..      BEQ      0x80022b6 ; MQTT_Publish + 106
        0x080022c8:    22a0        ."      MOVS     r2,#0xa0
        0x080022ca:    a118        ..      ADR      r1,{pc}+0x62 ; 0x800232c
        0x080022cc:    a026        &.      ADR      r0,{pc}+0x9c ; 0x8002368
        0x080022ce:    f7fff9d9    ....    BL       Debug_USART_Printf ; 0x8001684
        0x080022d2:    2003        .       MOVS     r0,#3
        0x080022d4:    e7ef        ..      B        0x80022b6 ; MQTT_Publish + 106
    $d
        0x080022d6:    0000        ..      DCW    0
        0x080022d8:    65746157    Wate    DCD    1702125911
        0x080022dc:    6d655272    rRem    DCD    1835356786
        0x080022e0:    006e6961    ain.    DCD    7235937
        0x080022e4:    646f6f46    Food    DCD    1685024582
        0x080022e8:    616d6552    Rema    DCD    1634559314
        0x080022ec:    00006e69    in..    DCD    28265
        0x080022f0:    6867694c    Ligh    DCD    1751607628
        0x080022f4:    69775374    tSwi    DCD    1769427828
        0x080022f8:    00686374    tch.    DCD    6841204
        0x080022fc:    20000094    ...     DCD    536871060
        0x08002300:    08004e68    hN..    DCD    134237800
        0x08002304:    20003fc0    .?.     DCD    536887232
        0x08002308:    4d2b5441    AT+M    DCD    1294685249
        0x0800230c:    50545451    QTTP    DCD    1347703889
        0x08002310:    41524255    UBRA    DCD    1095909973
        0x08002314:    64253d57    W=%d    DCD    1680162135
        0x08002318:    7325222c    ,"%s    DCD    1931813420
        0x0800231c:    64252c22    ",%d    DCD    1680157730
        0x08002320:    2c64252c    ,%d,    DCD    744760620
        0x08002324:    0a0d6425    %d..    DCD    168649765
        0x08002328:    00000000    ....    DCD    0
        0x0800232c:    5454514d    MQTT    DCD    1414811981
        0x08002330:    54514d5c    \MQT    DCD    1414614364
        0x08002334:    696c4354    TCli    DCD    1768702804
        0x08002338:    2e746e65    ent.    DCD    779382373
        0x0800233c:    00000063    c...    DCD    99
        0x08002340:    3a73255b    [%s:    DCD    980624731
        0x08002344:    205d6425    %d]     DCD    542991397
        0x08002348:    7474716d    mqtt    DCD    1953788269
        0x0800234c:    79727420     try    DCD    2037543968
        0x08002350:    206f7420     to     DCD    544175136
        0x08002354:    6c627570    publ    DCD    1818391920
        0x08002358:    3a687369    ish:    DCD    979923817
        0x0800235c:    6c696166    fail    DCD    1818845542
        0x08002360:    0a0d6465    ed..    DCD    168649829
        0x08002364:    00000000    ....    DCD    0
        0x08002368:    3a73255b    [%s:    DCD    980624731
        0x0800236c:    205d6425    %d]     DCD    542991397
        0x08002370:    7474716d    mqtt    DCD    1953788269
        0x08002374:    62757020     pub    DCD    1651863584
        0x08002378:    6873696c    lish    DCD    1752394092
        0x0800237c:    74616420     dat    DCD    1952539680
        0x08002380:    61663a61    a:fa    DCD    1634089569
        0x08002384:    64656c69    iled    DCD    1684368489
        0x08002388:    00000a0d    ....    DCD    2573
    $t
    i.MQTT_UserConfig
    MQTT_UserConfig
        0x0800238c:    b510        ..      PUSH     {r4,lr}
        0x0800238e:    b0c4        ..      SUB      sp,sp,#0x110
        0x08002390:    e9d04202    ...B    LDRD     r4,r2,[r0,#8]
        0x08002394:    6803        .h      LDR      r3,[r0,#0]
        0x08002396:    6901        .i      LDR      r1,[r0,#0x10]
        0x08002398:    e9cd3400    ...4    STRD     r3,r4,[sp,#0]
        0x0800239c:    e9cd2102    ...!    STRD     r2,r1,[sp,#8]
        0x080023a0:    6843        Ch      LDR      r3,[r0,#4]
        0x080023a2:    a20a        ..      ADR      r2,{pc}+0x2a ; 0x80023cc
        0x080023a4:    f44f7180    O..q    MOV      r1,#0x100
        0x080023a8:    a804        ..      ADD      r0,sp,#0x10
        0x080023aa:    f000fe45    ..E.    BL       __0snprintf ; 0x8003038
        0x080023ae:    f04f31ff    O..1    MOV      r1,#0xffffffff
        0x080023b2:    a804        ..      ADD      r0,sp,#0x10
        0x080023b4:    f7fff834    ..4.    BL       AT_SendCommand ; 0x8001420
        0x080023b8:    2800        .(      CMP      r0,#0
        0x080023ba:    d005        ..      BEQ      0x80023c8 ; MQTT_UserConfig + 60
        0x080023bc:    223c        <"      MOVS     r2,#0x3c
        0x080023be:    a10f        ..      ADR      r1,{pc}+0x3e ; 0x80023fc
        0x080023c0:    a013        ..      ADR      r0,{pc}+0x50 ; 0x8002410
        0x080023c2:    f7fff95f    .._.    BL       Debug_USART_Printf ; 0x8001684
        0x080023c6:    2000        .       MOVS     r0,#0
        0x080023c8:    b044        D.      ADD      sp,sp,#0x110
        0x080023ca:    bd10        ..      POP      {r4,pc}
    $d
        0x080023cc:    4d2b5441    AT+M    DCD    1294685249
        0x080023d0:    55545451    QTTU    DCD    1431589969
        0x080023d4:    43524553    SERC    DCD    1129465171
        0x080023d8:    253d4746    FG=%    DCD    624772934
        0x080023dc:    64252c64    d,%d    DCD    1680157796
        0x080023e0:    7325222c    ,"%s    DCD    1931813420
        0x080023e4:    25222c22    ","%    DCD    622996514
        0x080023e8:    222c2273    s","    DCD    573317747
        0x080023ec:    2c227325    %s",    DCD    740455205
        0x080023f0:    2c302c30    0,0,    DCD    741354544
        0x080023f4:    0a0d2222    ""..    DCD    168632866
        0x080023f8:    00000000    ....    DCD    0
        0x080023fc:    5454514d    MQTT    DCD    1414811981
        0x08002400:    54514d5c    \MQT    DCD    1414614364
        0x08002404:    696c4354    TCli    DCD    1768702804
        0x08002408:    2e746e65    ent.    DCD    779382373
        0x0800240c:    00000063    c...    DCD    99
        0x08002410:    3a73255b    [%s:    DCD    980624731
        0x08002414:    205d6425    %d]     DCD    542991397
        0x08002418:    72657375    user    DCD    1919251317
        0x0800241c:    6e6f6320     con    DCD    1852793632
        0x08002420:    3a676966    fig:    DCD    979855718
        0x08002424:    6c696166    fail    DCD    1818845542
        0x08002428:    0a0d6465    ed..    DCD    168649829
        0x0800242c:    00000000    ....    DCD    0
    $t
    i.MemManage_Handler
    MemManage_Handler
        0x08002430:    e7fe        ..      B        MemManage_Handler ; 0x8002430
    i.NMI_Handler
    NMI_Handler
        0x08002432:    4770        pG      BX       lr
    i.NVIC_Init
    NVIC_Init
        0x08002434:    b570        p.      PUSH     {r4-r6,lr}
        0x08002436:    230f        .#      MOVS     r3,#0xf
        0x08002438:    78c2        .x      LDRB     r2,[r0,#3]
        0x0800243a:    2601        .&      MOVS     r6,#1
        0x0800243c:    7801        .x      LDRB     r1,[r0,#0]
        0x0800243e:    2a00        .*      CMP      r2,#0
        0x08002440:    d01e        ..      BEQ      0x8002480 ; NVIC_Init + 76
        0x08002442:    4a14        .J      LDR      r2,[pc,#80] ; [0x8002494] = 0xe000ed0c
        0x08002444:    6812        .h      LDR      r2,[r2,#0]
        0x08002446:    f40262e0    ...b    AND      r2,r2,#0x700
        0x0800244a:    f5c262e0    ...b    RSB      r2,r2,#0x700
        0x0800244e:    0a12        ..      LSRS     r2,r2,#8
        0x08002450:    f1c20404    ....    RSB      r4,r2,#4
        0x08002454:    40d3        .@      LSRS     r3,r3,r2
        0x08002456:    7845        Ex      LDRB     r5,[r0,#1]
        0x08002458:    40a5        .@      LSLS     r5,r5,r4
        0x0800245a:    7882        .x      LDRB     r2,[r0,#2]
        0x0800245c:    401a        .@      ANDS     r2,r2,r3
        0x0800245e:    432a        *C      ORRS     r2,r2,r5
        0x08002460:    0112        ..      LSLS     r2,r2,#4
        0x08002462:    f10121e0    ...!    ADD      r1,r1,#0xe000e000
        0x08002466:    f8812400    ...$    STRB     r2,[r1,#0x400]
        0x0800246a:    7800        .x      LDRB     r0,[r0,#0]
        0x0800246c:    f000011f    ....    AND      r1,r0,#0x1f
        0x08002470:    408e        .@      LSLS     r6,r6,r1
        0x08002472:    0940        @.      LSRS     r0,r0,#5
        0x08002474:    0080        ..      LSLS     r0,r0,#2
        0x08002476:    f10020e0    ...     ADD      r0,r0,#0xe000e000
        0x0800247a:    f8c06100    ...a    STR      r6,[r0,#0x100]
        0x0800247e:    bd70        p.      POP      {r4-r6,pc}
        0x08002480:    f001001f    ....    AND      r0,r1,#0x1f
        0x08002484:    4086        .@      LSLS     r6,r6,r0
        0x08002486:    0948        H.      LSRS     r0,r1,#5
        0x08002488:    0080        ..      LSLS     r0,r0,#2
        0x0800248a:    f10020e0    ...     ADD      r0,r0,#0xe000e000
        0x0800248e:    f8c06180    ...a    STR      r6,[r0,#0x180]
        0x08002492:    bd70        p.      POP      {r4-r6,pc}
    $d
        0x08002494:    e000ed0c    ....    DCD    3758157068
    $t
    i.NVIC_PriorityGroupConfig
    NVIC_PriorityGroupConfig
        0x08002498:    4902        .I      LDR      r1,[pc,#8] ; [0x80024a4] = 0x5fa0000
        0x0800249a:    4308        .C      ORRS     r0,r0,r1
        0x0800249c:    4902        .I      LDR      r1,[pc,#8] ; [0x80024a8] = 0xe000ed0c
        0x0800249e:    6008        .`      STR      r0,[r1,#0]
        0x080024a0:    4770        pG      BX       lr
    $d
        0x080024a2:    0000        ..      DCW    0
        0x080024a4:    05fa0000    ....    DCD    100270080
        0x080024a8:    e000ed0c    ....    DCD    3758157068
    $t
    i.PendSV_Handler
    PendSV_Handler
        0x080024ac:    f7fdbe4a    ..J.    B        xPortPendSVHandler ; 0x8000144
    i.RCC_ADCCLKConfig
    RCC_ADCCLKConfig
        0x080024b0:    4a03        .J      LDR      r2,[pc,#12] ; [0x80024c0] = 0x40021000
        0x080024b2:    6851        Qh      LDR      r1,[r2,#4]
        0x080024b4:    f4214140    !.@A    BIC      r1,r1,#0xc000
        0x080024b8:    4301        .C      ORRS     r1,r1,r0
        0x080024ba:    6051        Q`      STR      r1,[r2,#4]
        0x080024bc:    4770        pG      BX       lr
    $d
        0x080024be:    0000        ..      DCW    0
        0x080024c0:    40021000    ...@    DCD    1073876992
    $t
    i.RCC_AHBPeriphClockCmd
    RCC_AHBPeriphClockCmd
        0x080024c4:    4a05        .J      LDR      r2,[pc,#20] ; [0x80024dc] = 0x40021000
        0x080024c6:    2900        .)      CMP      r1,#0
        0x080024c8:    d003        ..      BEQ      0x80024d2 ; RCC_AHBPeriphClockCmd + 14
        0x080024ca:    6951        Qi      LDR      r1,[r2,#0x14]
        0x080024cc:    4301        .C      ORRS     r1,r1,r0
        0x080024ce:    6151        Qa      STR      r1,[r2,#0x14]
        0x080024d0:    4770        pG      BX       lr
        0x080024d2:    6951        Qi      LDR      r1,[r2,#0x14]
        0x080024d4:    4381        .C      BICS     r1,r1,r0
        0x080024d6:    6151        Qa      STR      r1,[r2,#0x14]
        0x080024d8:    4770        pG      BX       lr
    $d
        0x080024da:    0000        ..      DCW    0
        0x080024dc:    40021000    ...@    DCD    1073876992
    $t
    i.RCC_APB1PeriphClockCmd
    RCC_APB1PeriphClockCmd
        0x080024e0:    4a05        .J      LDR      r2,[pc,#20] ; [0x80024f8] = 0x40021000
        0x080024e2:    2900        .)      CMP      r1,#0
        0x080024e4:    d003        ..      BEQ      0x80024ee ; RCC_APB1PeriphClockCmd + 14
        0x080024e6:    69d1        .i      LDR      r1,[r2,#0x1c]
        0x080024e8:    4301        .C      ORRS     r1,r1,r0
        0x080024ea:    61d1        .a      STR      r1,[r2,#0x1c]
        0x080024ec:    4770        pG      BX       lr
        0x080024ee:    69d1        .i      LDR      r1,[r2,#0x1c]
        0x080024f0:    4381        .C      BICS     r1,r1,r0
        0x080024f2:    61d1        .a      STR      r1,[r2,#0x1c]
        0x080024f4:    4770        pG      BX       lr
    $d
        0x080024f6:    0000        ..      DCW    0
        0x080024f8:    40021000    ...@    DCD    1073876992
    $t
    i.RCC_APB2PeriphClockCmd
    RCC_APB2PeriphClockCmd
        0x080024fc:    4a05        .J      LDR      r2,[pc,#20] ; [0x8002514] = 0x40021000
        0x080024fe:    2900        .)      CMP      r1,#0
        0x08002500:    d003        ..      BEQ      0x800250a ; RCC_APB2PeriphClockCmd + 14
        0x08002502:    6991        .i      LDR      r1,[r2,#0x18]
        0x08002504:    4301        .C      ORRS     r1,r1,r0
        0x08002506:    6191        .a      STR      r1,[r2,#0x18]
        0x08002508:    4770        pG      BX       lr
        0x0800250a:    6991        .i      LDR      r1,[r2,#0x18]
        0x0800250c:    4381        .C      BICS     r1,r1,r0
        0x0800250e:    6191        .a      STR      r1,[r2,#0x18]
        0x08002510:    4770        pG      BX       lr
    $d
        0x08002512:    0000        ..      DCW    0
        0x08002514:    40021000    ...@    DCD    1073876992
    $t
    i.RCC_GetClocksFreq
    RCC_GetClocksFreq
        0x08002518:    b510        ..      PUSH     {r4,lr}
        0x0800251a:    4a26        &J      LDR      r2,[pc,#152] ; [0x80025b4] = 0x40021000
        0x0800251c:    6851        Qh      LDR      r1,[r2,#4]
        0x0800251e:    f001010c    ....    AND      r1,r1,#0xc
        0x08002522:    4b25        %K      LDR      r3,[pc,#148] ; [0x80025b8] = 0x7a1200
        0x08002524:    2900        .)      CMP      r1,#0
        0x08002526:    d027        '.      BEQ      0x8002578 ; RCC_GetClocksFreq + 96
        0x08002528:    2904        .)      CMP      r1,#4
        0x0800252a:    d027        '.      BEQ      0x800257c ; RCC_GetClocksFreq + 100
        0x0800252c:    2908        .)      CMP      r1,#8
        0x0800252e:    d027        '.      BEQ      0x8002580 ; RCC_GetClocksFreq + 104
        0x08002530:    6003        .`      STR      r3,[r0,#0]
        0x08002532:    6851        Qh      LDR      r1,[r2,#4]
        0x08002534:    f00101f0    ....    AND      r1,r1,#0xf0
        0x08002538:    0909        ..      LSRS     r1,r1,#4
        0x0800253a:    4b20         K      LDR      r3,[pc,#128] ; [0x80025bc] = 0x20000004
        0x0800253c:    5c5c        \\      LDRB     r4,[r3,r1]
        0x0800253e:    6801        .h      LDR      r1,[r0,#0]
        0x08002540:    40e1        .@      LSRS     r1,r1,r4
        0x08002542:    6041        A`      STR      r1,[r0,#4]
        0x08002544:    6854        Th      LDR      r4,[r2,#4]
        0x08002546:    f40464e0    ...d    AND      r4,r4,#0x700
        0x0800254a:    0a24        $.      LSRS     r4,r4,#8
        0x0800254c:    5d1c        .]      LDRB     r4,[r3,r4]
        0x0800254e:    fa21f404    !...    LSR      r4,r1,r4
        0x08002552:    6084        .`      STR      r4,[r0,#8]
        0x08002554:    6854        Th      LDR      r4,[r2,#4]
        0x08002556:    f4045460    ..`T    AND      r4,r4,#0x3800
        0x0800255a:    0ae4        ..      LSRS     r4,r4,#11
        0x0800255c:    5d1b        .]      LDRB     r3,[r3,r4]
        0x0800255e:    40d9        .@      LSRS     r1,r1,r3
        0x08002560:    60c1        .`      STR      r1,[r0,#0xc]
        0x08002562:    6852        Rh      LDR      r2,[r2,#4]
        0x08002564:    f4024240    ..@B    AND      r2,r2,#0xc000
        0x08002568:    0b92        ..      LSRS     r2,r2,#14
        0x0800256a:    4b14        .K      LDR      r3,[pc,#80] ; [0x80025bc] = 0x20000004
        0x0800256c:    1f1b        ..      SUBS     r3,r3,#4
        0x0800256e:    5c9a        .\      LDRB     r2,[r3,r2]
        0x08002570:    fbb1f1f2    ....    UDIV     r1,r1,r2
        0x08002574:    6101        .a      STR      r1,[r0,#0x10]
        0x08002576:    bd10        ..      POP      {r4,pc}
        0x08002578:    6003        .`      STR      r3,[r0,#0]
        0x0800257a:    e7da        ..      B        0x8002532 ; RCC_GetClocksFreq + 26
        0x0800257c:    6003        .`      STR      r3,[r0,#0]
        0x0800257e:    e7d8        ..      B        0x8002532 ; RCC_GetClocksFreq + 26
        0x08002580:    6851        Qh      LDR      r1,[r2,#4]
        0x08002582:    f4011170    ..p.    AND      r1,r1,#0x3c0000
        0x08002586:    6853        Sh      LDR      r3,[r2,#4]
        0x08002588:    f4033380    ...3    AND      r3,r3,#0x10000
        0x0800258c:    2402        .$      MOVS     r4,#2
        0x0800258e:    eb044191    ...A    ADD      r1,r4,r1,LSR #18
        0x08002592:    b133        3.      CBZ      r3,0x80025a2 ; RCC_GetClocksFreq + 138
        0x08002594:    6853        Sh      LDR      r3,[r2,#4]
        0x08002596:    039b        ..      LSLS     r3,r3,#14
        0x08002598:    d507        ..      BPL      0x80025aa ; RCC_GetClocksFreq + 146
        0x0800259a:    4b09        .K      LDR      r3,[pc,#36] ; [0x80025c0] = 0x3d0900
        0x0800259c:    4359        YC      MULS     r1,r3,r1
        0x0800259e:    6001        .`      STR      r1,[r0,#0]
        0x080025a0:    e7c7        ..      B        0x8002532 ; RCC_GetClocksFreq + 26
        0x080025a2:    4b07        .K      LDR      r3,[pc,#28] ; [0x80025c0] = 0x3d0900
        0x080025a4:    4359        YC      MULS     r1,r3,r1
        0x080025a6:    6001        .`      STR      r1,[r0,#0]
        0x080025a8:    e7c3        ..      B        0x8002532 ; RCC_GetClocksFreq + 26
        0x080025aa:    4b03        .K      LDR      r3,[pc,#12] ; [0x80025b8] = 0x7a1200
        0x080025ac:    4359        YC      MULS     r1,r3,r1
        0x080025ae:    6001        .`      STR      r1,[r0,#0]
        0x080025b0:    e7bf        ..      B        0x8002532 ; RCC_GetClocksFreq + 26
    $d
        0x080025b2:    0000        ..      DCW    0
        0x080025b4:    40021000    ...@    DCD    1073876992
        0x080025b8:    007a1200    ..z.    DCD    8000000
        0x080025bc:    20000004    ...     DCD    536870916
        0x080025c0:    003d0900    ..=.    DCD    4000000
    $t
    i.Read_RingBuffer
    Read_RingBuffer
        0x080025c4:    b570        p.      PUSH     {r4-r6,lr}
        0x080025c6:    4604        .F      MOV      r4,r0
        0x080025c8:    2c00        .,      CMP      r4,#0
        0x080025ca:    d010        ..      BEQ      0x80025ee ; Read_RingBuffer + 42
        0x080025cc:    6820         h      LDR      r0,[r4,#0]
        0x080025ce:    b170        p.      CBZ      r0,0x80025ee ; Read_RingBuffer + 42
        0x080025d0:    4620         F      MOV      r0,r4
        0x080025d2:    f001fa41    ..A.    BL       is_RingBuffer_Empty ; 0x8003a58
        0x080025d6:    b950        P.      CBNZ     r0,0x80025ee ; Read_RingBuffer + 42
        0x080025d8:    b149        I.      CBZ      r1,0x80025ee ; Read_RingBuffer + 42
        0x080025da:    68a0        .h      LDR      r0,[r4,#8]
        0x080025dc:    4290        .B      CMP      r0,r2
        0x080025de:    d200        ..      BCS      0x80025e2 ; Read_RingBuffer + 30
        0x080025e0:    68a2        .h      LDR      r2,[r4,#8]
        0x080025e2:    429a        .B      CMP      r2,r3
        0x080025e4:    d300        ..      BCC      0x80025e8 ; Read_RingBuffer + 36
        0x080025e6:    1e5a        Z.      SUBS     r2,r3,#1
        0x080025e8:    68e3        .h      LDR      r3,[r4,#0xc]
        0x080025ea:    2000        .       MOVS     r0,#0
        0x080025ec:    e00b        ..      B        0x8002606 ; Read_RingBuffer + 66
        0x080025ee:    2000        .       MOVS     r0,#0
        0x080025f0:    bd70        p.      POP      {r4-r6,pc}
        0x080025f2:    6825        %h      LDR      r5,[r4,#0]
        0x080025f4:    5ced        .\      LDRB     r5,[r5,r3]
        0x080025f6:    540d        .T      STRB     r5,[r1,r0]
        0x080025f8:    6865        eh      LDR      r5,[r4,#4]
        0x080025fa:    1c5b        [.      ADDS     r3,r3,#1
        0x080025fc:    fbb3f6f5    ....    UDIV     r6,r3,r5
        0x08002600:    fb053316    ...3    MLS      r3,r5,r6,r3
        0x08002604:    1c40        @.      ADDS     r0,r0,#1
        0x08002606:    4290        .B      CMP      r0,r2
        0x08002608:    d3f3        ..      BCC      0x80025f2 ; Read_RingBuffer + 46
        0x0800260a:    2000        .       MOVS     r0,#0
        0x0800260c:    5488        .T      STRB     r0,[r1,r2]
        0x0800260e:    68a0        .h      LDR      r0,[r4,#8]
        0x08002610:    1a80        ..      SUBS     r0,r0,r2
        0x08002612:    60a0        .`      STR      r0,[r4,#8]
        0x08002614:    60e3        .`      STR      r3,[r4,#0xc]
        0x08002616:    2001        .       MOVS     r0,#1
        0x08002618:    bd70        p.      POP      {r4-r6,pc}
    i.RingBuffer_Init
    RingBuffer_Init
        0x0800261a:    b570        p.      PUSH     {r4-r6,lr}
        0x0800261c:    4604        .F      MOV      r4,r0
        0x0800261e:    460d        .F      MOV      r5,r1
        0x08002620:    4628        (F      MOV      r0,r5
        0x08002622:    f001fced    ....    BL       pvPortMalloc ; 0x8004000
        0x08002626:    6020         `      STR      r0,[r4,#0]
        0x08002628:    b134        4.      CBZ      r4,0x8002638 ; RingBuffer_Init + 30
        0x0800262a:    6065        e`      STR      r5,[r4,#4]
        0x0800262c:    2000        .       MOVS     r0,#0
        0x0800262e:    60a0        .`      STR      r0,[r4,#8]
        0x08002630:    60e0        .`      STR      r0,[r4,#0xc]
        0x08002632:    6120         a      STR      r0,[r4,#0x10]
        0x08002634:    2001        .       MOVS     r0,#1
        0x08002636:    bd70        p.      POP      {r4-r6,pc}
        0x08002638:    2000        .       MOVS     r0,#0
        0x0800263a:    bd70        p.      POP      {r4-r6,pc}
    i.SVC_Handler
    SVC_Handler
        0x0800263c:    f7fdbd60    ..`.    B        vPortSVCHandler ; 0x8000100
    i.SaveJSONDataToBuffer
    SaveJSONDataToBuffer
        0x08002640:    b51c        ..      PUSH     {r2-r4,lr}
        0x08002642:    4604        .F      MOV      r4,r0
        0x08002644:    2000        .       MOVS     r0,#0
        0x08002646:    9001        ..      STR      r0,[sp,#4]
        0x08002648:    9801        ..      LDR      r0,[sp,#4]
        0x0800264a:    1c40        @.      ADDS     r0,r0,#1
        0x0800264c:    9001        ..      STR      r0,[sp,#4]
        0x0800264e:    5c20         \      LDRB     r0,[r4,r0]
        0x08002650:    287b        {(      CMP      r0,#0x7b
        0x08002652:    d1f9        ..      BNE      0x8002648 ; SaveJSONDataToBuffer + 8
        0x08002654:    e00b        ..      B        0x800266e ; SaveJSONDataToBuffer + 46
        0x08002656:    9801        ..      LDR      r0,[sp,#4]
        0x08002658:    2201        ."      MOVS     r2,#1
        0x0800265a:    1c41        A.      ADDS     r1,r0,#1
        0x0800265c:    9101        ..      STR      r1,[sp,#4]
        0x0800265e:    1901        ..      ADDS     r1,r0,r4
        0x08002660:    4806        .H      LDR      r0,[pc,#24] ; [0x800267c] = 0x20003fac
        0x08002662:    f000fcbf    ....    BL       Write_RingBuffer ; 0x8002fe4
        0x08002666:    9000        ..      STR      r0,[sp,#0]
        0x08002668:    9800        ..      LDR      r0,[sp,#0]
        0x0800266a:    2801        .(      CMP      r0,#1
        0x0800266c:    d103        ..      BNE      0x8002676 ; SaveJSONDataToBuffer + 54
        0x0800266e:    9801        ..      LDR      r0,[sp,#4]
        0x08002670:    5c20         \      LDRB     r0,[r4,r0]
        0x08002672:    2800        .(      CMP      r0,#0
        0x08002674:    d1ef        ..      BNE      0x8002656 ; SaveJSONDataToBuffer + 22
        0x08002676:    9800        ..      LDR      r0,[sp,#0]
        0x08002678:    bd1c        ..      POP      {r2-r4,pc}
    $d
        0x0800267a:    0000        ..      DCW    0
        0x0800267c:    20003fac    .?.     DCD    536887212
    $t
    i.Sensor_AD_Init
    Sensor_AD_Init
        0x08002680:    b5f0        ..      PUSH     {r4-r7,lr}
        0x08002682:    b091        ..      SUB      sp,sp,#0x44
        0x08002684:    2101        .!      MOVS     r1,#1
        0x08002686:    024d        M.      LSLS     r5,r1,#9
        0x08002688:    4628        (F      MOV      r0,r5
        0x0800268a:    f7ffff37    ..7.    BL       RCC_APB2PeriphClockCmd ; 0x80024fc
        0x0800268e:    2101        .!      MOVS     r1,#1
        0x08002690:    2004        .       MOVS     r0,#4
        0x08002692:    f7ffff33    ..3.    BL       RCC_APB2PeriphClockCmd ; 0x80024fc
        0x08002696:    2101        .!      MOVS     r1,#1
        0x08002698:    4608        .F      MOV      r0,r1
        0x0800269a:    f7ffff13    ....    BL       RCC_AHBPeriphClockCmd ; 0x80024c4
        0x0800269e:    01a8        ..      LSLS     r0,r5,#6
        0x080026a0:    f7ffff06    ....    BL       RCC_ADCCLKConfig ; 0x80024b0
        0x080026a4:    2400        .$      MOVS     r4,#0
        0x080026a6:    f88d4043    ..C@    STRB     r4,[sp,#0x43]
        0x080026aa:    2060        `       MOVS     r0,#0x60
        0x080026ac:    f8ad0040    ..@.    STRH     r0,[sp,#0x40]
        0x080026b0:    2003        .       MOVS     r0,#3
        0x080026b2:    f88d0042    ..B.    STRB     r0,[sp,#0x42]
        0x080026b6:    a910        ..      ADD      r1,sp,#0x40
        0x080026b8:    482c        ,H      LDR      r0,[pc,#176] ; [0x800276c] = 0x40010800
        0x080026ba:    f7fff8bb    ....    BL       GPIO_Init ; 0x8001834
        0x080026be:    4f2c        ,O      LDR      r7,[pc,#176] ; [0x8002770] = 0x40012400
        0x080026c0:    2305        .#      MOVS     r3,#5
        0x080026c2:    2201        ."      MOVS     r2,#1
        0x080026c4:    4619        .F      MOV      r1,r3
        0x080026c6:    4638        8F      MOV      r0,r7
        0x080026c8:    f7fefb7e    ..~.    BL       ADC_RegularChannelConfig ; 0x8000dc8
        0x080026cc:    2305        .#      MOVS     r3,#5
        0x080026ce:    2202        ."      MOVS     r2,#2
        0x080026d0:    2106        .!      MOVS     r1,#6
        0x080026d2:    4638        8F      MOV      r0,r7
        0x080026d4:    f7fefb78    ..x.    BL       ADC_RegularChannelConfig ; 0x8000dc8
        0x080026d8:    940b        ..      STR      r4,[sp,#0x2c]
        0x080026da:    940e        ..      STR      r4,[sp,#0x38]
        0x080026dc:    f44f2060    O.`     MOV      r0,#0xe0000
        0x080026e0:    900d        ..      STR      r0,[sp,#0x34]
        0x080026e2:    2001        .       MOVS     r0,#1
        0x080026e4:    f88d0031    ..1.    STRB     r0,[sp,#0x31]
        0x080026e8:    f88d0030    ..0.    STRB     r0,[sp,#0x30]
        0x080026ec:    2602        .&      MOVS     r6,#2
        0x080026ee:    f88d603c    ..<`    STRB     r6,[sp,#0x3c]
        0x080026f2:    a90b        ..      ADD      r1,sp,#0x2c
        0x080026f4:    4638        8F      MOV      r0,r7
        0x080026f6:    f7fefb43    ..C.    BL       ADC_Init ; 0x8000d80
        0x080026fa:    481d        .H      LDR      r0,[pc,#116] ; [0x8002770] = 0x40012400
        0x080026fc:    304c        L0      ADDS     r0,r0,#0x4c
        0x080026fe:    9000        ..      STR      r0,[sp,#0]
        0x08002700:    9506        ..      STR      r5,[sp,#0x18]
        0x08002702:    9404        ..      STR      r4,[sp,#0x10]
        0x08002704:    481b        .H      LDR      r0,[pc,#108] ; [0x8002774] = 0x200000bc
        0x08002706:    9001        ..      STR      r0,[sp,#4]
        0x08002708:    00a8        ..      LSLS     r0,r5,#2
        0x0800270a:    9007        ..      STR      r0,[sp,#0x1c]
        0x0800270c:    2080        .       MOVS     r0,#0x80
        0x0800270e:    9005        ..      STR      r0,[sp,#0x14]
        0x08002710:    9402        ..      STR      r4,[sp,#8]
        0x08002712:    9603        ..      STR      r6,[sp,#0xc]
        0x08002714:    2020                MOVS     r0,#0x20
        0x08002716:    9008        ..      STR      r0,[sp,#0x20]
        0x08002718:    940a        ..      STR      r4,[sp,#0x28]
        0x0800271a:    01c0        ..      LSLS     r0,r0,#7
        0x0800271c:    9009        ..      STR      r0,[sp,#0x24]
        0x0800271e:    4c16        .L      LDR      r4,[pc,#88] ; [0x8002778] = 0x40020008
        0x08002720:    4669        iF      MOV      r1,sp
        0x08002722:    4620         F      MOV      r0,r4
        0x08002724:    f7feff4e    ..N.    BL       DMA_Init ; 0x80015c4
        0x08002728:    2101        .!      MOVS     r1,#1
        0x0800272a:    4620         F      MOV      r0,r4
        0x0800272c:    f7feff3d    ..=.    BL       DMA_Cmd ; 0x80015aa
        0x08002730:    2101        .!      MOVS     r1,#1
        0x08002732:    4638        8F      MOV      r0,r7
        0x08002734:    f7fefb0a    ....    BL       ADC_DMACmd ; 0x8000d4c
        0x08002738:    2101        .!      MOVS     r1,#1
        0x0800273a:    4638        8F      MOV      r0,r7
        0x0800273c:    f7fefafa    ....    BL       ADC_Cmd ; 0x8000d34
        0x08002740:    4638        8F      MOV      r0,r7
        0x08002742:    f7fefb7b    ..{.    BL       ADC_ResetCalibration ; 0x8000e3c
        0x08002746:    4638        8F      MOV      r0,r7
        0x08002748:    f7fefb13    ....    BL       ADC_GetResetCalibrationStatus ; 0x8000d72
        0x0800274c:    2801        .(      CMP      r0,#1
        0x0800274e:    d0fa        ..      BEQ      0x8002746 ; Sensor_AD_Init + 198
        0x08002750:    4638        8F      MOV      r0,r7
        0x08002752:    f7fefb84    ....    BL       ADC_StartCalibration ; 0x8000e5e
        0x08002756:    4638        8F      MOV      r0,r7
        0x08002758:    f7fefb04    ....    BL       ADC_GetCalibrationStatus ; 0x8000d64
        0x0800275c:    2801        .(      CMP      r0,#1
        0x0800275e:    d0fa        ..      BEQ      0x8002756 ; Sensor_AD_Init + 214
        0x08002760:    2101        .!      MOVS     r1,#1
        0x08002762:    4638        8F      MOV      r0,r7
        0x08002764:    f7fefb6f    ..o.    BL       ADC_SoftwareStartConvCmd ; 0x8000e46
        0x08002768:    b011        ..      ADD      sp,sp,#0x44
        0x0800276a:    bdf0        ..      POP      {r4-r7,pc}
    $d
        0x0800276c:    40010800    ...@    DCD    1073809408
        0x08002770:    40012400    .$.@    DCD    1073816576
        0x08002774:    200000bc    ...     DCD    536871100
        0x08002778:    40020008    ...@    DCD    1073872904
    $t
    i.SetSysClock
    SetSysClock
        0x0800277c:    f3af8000    ....    NOP.W    
    i.SetSysClockTo72
    SetSysClockTo72
        0x08002780:    b50c        ..      PUSH     {r2,r3,lr}
        0x08002782:    2200        ."      MOVS     r2,#0
        0x08002784:    9201        ..      STR      r2,[sp,#4]
        0x08002786:    9200        ..      STR      r2,[sp,#0]
        0x08002788:    4827        'H      LDR      r0,[pc,#156] ; [0x8002828] = 0x40021000
        0x0800278a:    6801        .h      LDR      r1,[r0,#0]
        0x0800278c:    f4413180    A..1    ORR      r1,r1,#0x10000
        0x08002790:    6001        .`      STR      r1,[r0,#0]
        0x08002792:    f44f63a0    O..c    MOV      r3,#0x500
        0x08002796:    6801        .h      LDR      r1,[r0,#0]
        0x08002798:    f4013100    ...1    AND      r1,r1,#0x20000
        0x0800279c:    9100        ..      STR      r1,[sp,#0]
        0x0800279e:    9901        ..      LDR      r1,[sp,#4]
        0x080027a0:    1c49        I.      ADDS     r1,r1,#1
        0x080027a2:    9101        ..      STR      r1,[sp,#4]
        0x080027a4:    9900        ..      LDR      r1,[sp,#0]
        0x080027a6:    b911        ..      CBNZ     r1,0x80027ae ; SetSysClockTo72 + 46
        0x080027a8:    9901        ..      LDR      r1,[sp,#4]
        0x080027aa:    4299        .B      CMP      r1,r3
        0x080027ac:    d1f3        ..      BNE      0x8002796 ; SetSysClockTo72 + 22
        0x080027ae:    6801        .h      LDR      r1,[r0,#0]
        0x080027b0:    0389        ..      LSLS     r1,r1,#14
        0x080027b2:    d502        ..      BPL      0x80027ba ; SetSysClockTo72 + 58
        0x080027b4:    2101        .!      MOVS     r1,#1
        0x080027b6:    9100        ..      STR      r1,[sp,#0]
        0x080027b8:    e000        ..      B        0x80027bc ; SetSysClockTo72 + 60
        0x080027ba:    9200        ..      STR      r2,[sp,#0]
        0x080027bc:    9900        ..      LDR      r1,[sp,#0]
        0x080027be:    2901        .)      CMP      r1,#1
        0x080027c0:    d130        0.      BNE      0x8002824 ; SetSysClockTo72 + 164
        0x080027c2:    491a        .I      LDR      r1,[pc,#104] ; [0x800282c] = 0x40022000
        0x080027c4:    680a        .h      LDR      r2,[r1,#0]
        0x080027c6:    f0420210    B...    ORR      r2,r2,#0x10
        0x080027ca:    600a        .`      STR      r2,[r1,#0]
        0x080027cc:    680a        .h      LDR      r2,[r1,#0]
        0x080027ce:    f0220203    "...    BIC      r2,r2,#3
        0x080027d2:    600a        .`      STR      r2,[r1,#0]
        0x080027d4:    680a        .h      LDR      r2,[r1,#0]
        0x080027d6:    f0420202    B...    ORR      r2,r2,#2
        0x080027da:    600a        .`      STR      r2,[r1,#0]
        0x080027dc:    6841        Ah      LDR      r1,[r0,#4]
        0x080027de:    6041        A`      STR      r1,[r0,#4]
        0x080027e0:    6841        Ah      LDR      r1,[r0,#4]
        0x080027e2:    6041        A`      STR      r1,[r0,#4]
        0x080027e4:    6841        Ah      LDR      r1,[r0,#4]
        0x080027e6:    f4416180    A..a    ORR      r1,r1,#0x400
        0x080027ea:    6041        A`      STR      r1,[r0,#4]
        0x080027ec:    6841        Ah      LDR      r1,[r0,#4]
        0x080027ee:    f421117c    !.|.    BIC      r1,r1,#0x3f0000
        0x080027f2:    6041        A`      STR      r1,[r0,#4]
        0x080027f4:    6841        Ah      LDR      r1,[r0,#4]
        0x080027f6:    f44111e8    A...    ORR      r1,r1,#0x1d0000
        0x080027fa:    6041        A`      STR      r1,[r0,#4]
        0x080027fc:    6801        .h      LDR      r1,[r0,#0]
        0x080027fe:    f0417180    A..q    ORR      r1,r1,#0x1000000
        0x08002802:    6001        .`      STR      r1,[r0,#0]
        0x08002804:    6801        .h      LDR      r1,[r0,#0]
        0x08002806:    0189        ..      LSLS     r1,r1,#6
        0x08002808:    d5fc        ..      BPL      0x8002804 ; SetSysClockTo72 + 132
        0x0800280a:    6841        Ah      LDR      r1,[r0,#4]
        0x0800280c:    f0210103    !...    BIC      r1,r1,#3
        0x08002810:    6041        A`      STR      r1,[r0,#4]
        0x08002812:    6841        Ah      LDR      r1,[r0,#4]
        0x08002814:    f0410102    A...    ORR      r1,r1,#2
        0x08002818:    6041        A`      STR      r1,[r0,#4]
        0x0800281a:    6841        Ah      LDR      r1,[r0,#4]
        0x0800281c:    f3c10181    ....    UBFX     r1,r1,#2,#2
        0x08002820:    2902        .)      CMP      r1,#2
        0x08002822:    d1fa        ..      BNE      0x800281a ; SetSysClockTo72 + 154
        0x08002824:    bd0c        ..      POP      {r2,r3,pc}
    $d
        0x08002826:    0000        ..      DCW    0
        0x08002828:    40021000    ...@    DCD    1073876992
        0x0800282c:    40022000    . .@    DCD    1073881088
    $t
    i.Set_AT_Status
    Set_AT_Status
        0x08002830:    4901        .I      LDR      r1,[pc,#4] ; [0x8002838] = 0x20000088
        0x08002832:    6088        .`      STR      r0,[r1,#8]
        0x08002834:    4770        pG      BX       lr
    $d
        0x08002836:    0000        ..      DCW    0
        0x08002838:    20000088    ...     DCD    536871048
    $t
    i.SysTick_Handler
    SysTick_Handler
        0x0800283c:    f001be36    ..6.    B.W      xPortSysTickHandler ; 0x80044ac
    i.SystemInit
    SystemInit
        0x08002840:    b510        ..      PUSH     {r4,lr}
        0x08002842:    480f        .H      LDR      r0,[pc,#60] ; [0x8002880] = 0x40021000
        0x08002844:    6801        .h      LDR      r1,[r0,#0]
        0x08002846:    f0410101    A...    ORR      r1,r1,#1
        0x0800284a:    6001        .`      STR      r1,[r0,#0]
        0x0800284c:    6841        Ah      LDR      r1,[r0,#4]
        0x0800284e:    4a0d        .J      LDR      r2,[pc,#52] ; [0x8002884] = 0xf8ff0000
        0x08002850:    4011        .@      ANDS     r1,r1,r2
        0x08002852:    6041        A`      STR      r1,[r0,#4]
        0x08002854:    6801        .h      LDR      r1,[r0,#0]
        0x08002856:    4a0c        .J      LDR      r2,[pc,#48] ; [0x8002888] = 0xfef6ffff
        0x08002858:    4011        .@      ANDS     r1,r1,r2
        0x0800285a:    6001        .`      STR      r1,[r0,#0]
        0x0800285c:    6801        .h      LDR      r1,[r0,#0]
        0x0800285e:    f4212180    !..!    BIC      r1,r1,#0x40000
        0x08002862:    6001        .`      STR      r1,[r0,#0]
        0x08002864:    6841        Ah      LDR      r1,[r0,#4]
        0x08002866:    f42101fe    !...    BIC      r1,r1,#0x7f0000
        0x0800286a:    6041        A`      STR      r1,[r0,#4]
        0x0800286c:    f44f011f    O...    MOV      r1,#0x9f0000
        0x08002870:    6081        .`      STR      r1,[r0,#8]
        0x08002872:    f7ffff83    ....    BL       SetSysClock ; 0x800277c
        0x08002876:    4905        .I      LDR      r1,[pc,#20] ; [0x800288c] = 0xe000ed08
        0x08002878:    f04f6000    O..`    MOV      r0,#0x8000000
        0x0800287c:    6008        .`      STR      r0,[r1,#0]
        0x0800287e:    bd10        ..      POP      {r4,pc}
    $d
        0x08002880:    40021000    ...@    DCD    1073876992
        0x08002884:    f8ff0000    ....    DCD    4177461248
        0x08002888:    fef6ffff    ....    DCD    4277600255
        0x0800288c:    e000ed08    ....    DCD    3758157064
    $t
    i.Task_ATConnect
    Task_ATConnect
        0x08002890:    b086        ..      SUB      sp,sp,#0x18
        0x08002892:    f7fffbb7    ....    BL       LED_Blink ; 0x8002004
        0x08002896:    f44f74fa    O..t    MOV      r4,#0x1f4
        0x0800289a:    2243        C"      MOVS     r2,#0x43
        0x0800289c:    a11c        ..      ADR      r1,{pc}+0x74 ; 0x8002910
        0x0800289e:    a01f        ..      ADR      r0,{pc}+0x7e ; 0x800291c
        0x080028a0:    f7fefef0    ....    BL       Debug_USART_Printf ; 0x8001684
        0x080028a4:    f7fefd0c    ....    BL       AT_Reset ; 0x80012c0
        0x080028a8:    4620         F      MOV      r0,r4
        0x080028aa:    f7feff17    ....    BL       Delay_ms ; 0x80016dc
        0x080028ae:    a803        ..      ADD      r0,sp,#0xc
        0x080028b0:    f000fae4    ....    BL       WiFi_Config ; 0x8002e7c
        0x080028b4:    a803        ..      ADD      r0,sp,#0xc
        0x080028b6:    f000faf5    ....    BL       WiFi_Connect ; 0x8002ea4
        0x080028ba:    b138        8.      CBZ      r0,0x80028cc ; Task_ATConnect + 60
        0x080028bc:    224c        L"      MOVS     r2,#0x4c
        0x080028be:    a114        ..      ADR      r1,{pc}+0x52 ; 0x8002910
        0x080028c0:    a01c        ..      ADR      r0,{pc}+0x74 ; 0x8002934
        0x080028c2:    f7fefedf    ....    BL       Debug_USART_Printf ; 0x8001684
        0x080028c6:    4620         F      MOV      r0,r4
        0x080028c8:    f7feff08    ....    BL       Delay_ms ; 0x80016dc
        0x080028cc:    4821        !H      LDR      r0,[pc,#132] ; [0x8002954] = 0x20003fc0
        0x080028ce:    f7fffbc7    ....    BL       MQTT_ClientConfig ; 0x8002060
        0x080028d2:    4820         H      LDR      r0,[pc,#128] ; [0x8002954] = 0x20003fc0
        0x080028d4:    f7fffc20    .. .    BL       MQTT_Connect ; 0x8002118
        0x080028d8:    b140        @.      CBZ      r0,0x80028ec ; Task_ATConnect + 92
        0x080028da:    2258        X"      MOVS     r2,#0x58
        0x080028dc:    a10c        ..      ADR      r1,{pc}+0x34 ; 0x8002910
        0x080028de:    a01e        ..      ADR      r0,{pc}+0x7a ; 0x8002958
        0x080028e0:    f7fefed0    ....    BL       Debug_USART_Printf ; 0x8001684
        0x080028e4:    4620         F      MOV      r0,r4
        0x080028e6:    f7fefef9    ....    BL       Delay_ms ; 0x80016dc
        0x080028ea:    e7fe        ..      B        0x80028ea ; Task_ATConnect + 90
        0x080028ec:    f001fc4c    ..L.    BL       vPortEnterCritical ; 0x8004188
        0x080028f0:    4821        !H      LDR      r0,[pc,#132] ; [0x8002978] = 0x200000a4
        0x080028f2:    2101        .!      MOVS     r1,#1
        0x080028f4:    e9cd1000    ....    STRD     r1,r0,[sp,#0]
        0x080028f8:    024a        J.      LSLS     r2,r1,#9
        0x080028fa:    2300        .#      MOVS     r3,#0
        0x080028fc:    a11f        ..      ADR      r1,{pc}+0x80 ; 0x800297c
        0x080028fe:    4824        $H      LDR      r0,[pc,#144] ; [0x8002990] = 0x8002a85
        0x08002900:    f001ffce    ....    BL       xTaskCreate ; 0x80048a0
        0x08002904:    f001fc4e    ..N.    BL       vPortExitCritical ; 0x80041a4
        0x08002908:    2000        .       MOVS     r0,#0
        0x0800290a:    f001fd33    ..3.    BL       vTaskSuspend ; 0x8004374
        0x0800290e:    e7c4        ..      B        0x800289a ; Task_ATConnect + 10
    $d
        0x08002910:    72657355    User    DCD    1919251285
        0x08002914:    69616d5c    \mai    DCD    1767992668
        0x08002918:    00632e6e    n.c.    DCD    6499950
        0x0800291c:    3a73255b    [%s:    DCD    980624731
        0x08002920:    205d6425    %d]     DCD    542991397
        0x08002924:    6e6e6f63    conn    DCD    1852731235
        0x08002928:    20746365    ect     DCD    544498533
        0x0800292c:    6b736174    task    DCD    1802723700
        0x08002930:    00000a0d    ....    DCD    2573
        0x08002934:    3a73255b    [%s:    DCD    980624731
        0x08002938:    205d6425    %d]     DCD    542991397
        0x0800293c:    69666977    wifi    DCD    1768319351
        0x08002940:    6e6f6320     con    DCD    1852793632
        0x08002944:    7463656e    nect    DCD    1952671086
        0x08002948:    69616620     fai    DCD    1767990816
        0x0800294c:    0d64656c    led.    DCD    224683372
        0x08002950:    0000000a    ....    DCD    10
        0x08002954:    20003fc0    .?.     DCD    536887232
        0x08002958:    3a73255b    [%s:    DCD    980624731
        0x0800295c:    205d6425    %d]     DCD    542991397
        0x08002960:    7474716d    mqtt    DCD    1953788269
        0x08002964:    6e6f6320     con    DCD    1852793632
        0x08002968:    7463656e    nect    DCD    1952671086
        0x0800296c:    69616620     fai    DCD    1767990816
        0x08002970:    0d64656c    led.    DCD    224683372
        0x08002974:    0000000a    ....    DCD    10
        0x08002978:    200000a4    ...     DCD    536871076
        0x0800297c:    6b736154    Task    DCD    1802723668
        0x08002980:    54514d5f    _MQT    DCD    1414614367
        0x08002984:    74614454    TDat    DCD    1952531540
        0x08002988:    6e655361    aSen    DCD    1852134241
        0x0800298c:    00000064    d...    DCD    100
        0x08002990:    08002a85    .*..    DCD    134228613
    $t
    i.Task_ATResponseRcv
    Task_ATResponseRcv
        0x08002994:    226c        l"      MOVS     r2,#0x6c
        0x08002996:    a103        ..      ADR      r1,{pc}+0xe ; 0x80029a4
        0x08002998:    a005        ..      ADR      r0,{pc}+0x18 ; 0x80029b0
        0x0800299a:    f7fefe73    ..s.    BL       Debug_USART_Printf ; 0x8001684
        0x0800299e:    f7fefc07    ....    BL       AT_ReceiveResponse ; 0x80011b0
        0x080029a2:    e7f7        ..      B        Task_ATResponseRcv ; 0x8002994
    $d
        0x080029a4:    72657355    User    DCD    1919251285
        0x080029a8:    69616d5c    \mai    DCD    1767992668
        0x080029ac:    00632e6e    n.c.    DCD    6499950
        0x080029b0:    3a73255b    [%s:    DCD    980624731
        0x080029b4:    205d6425    %d]     DCD    542991397
        0x080029b8:    65636572    rece    DCD    1701012850
        0x080029bc:    20657669    ive     DCD    543520361
        0x080029c0:    6b736174    task    DCD    1802723700
        0x080029c4:    00000a0d    ....    DCD    2573
    $t
    i.Task_MQTTDataRcv
    Task_MQTTDataRcv
        0x080029c8:    b0c2        ..      SUB      sp,sp,#0x108
        0x080029ca:    4e18        .N      LDR      r6,[pc,#96] ; [0x8002a2c] = 0x40010800
        0x080029cc:    2500        .%      MOVS     r5,#0
        0x080029ce:    15b4        ..      ASRS     r4,r6,#22
        0x080029d0:    1e6f        o.      SUBS     r7,r5,#1
        0x080029d2:    e00b        ..      B        0x80029ec ; Task_MQTTDataRcv + 36
        0x080029d4:    f000ffda    ....    BL       getItemValueNumber ; 0x800398c
        0x080029d8:    b120         .      CBZ      r0,0x80029e4 ; Task_MQTTDataRcv + 28
        0x080029da:    2110        .!      MOVS     r1,#0x10
        0x080029dc:    4630        0F      MOV      r0,r6
        0x080029de:    f7feff85    ....    BL       GPIO_SetBits ; 0x80018ec
        0x080029e2:    e003        ..      B        0x80029ec ; Task_MQTTDataRcv + 36
        0x080029e4:    2110        .!      MOVS     r1,#0x10
        0x080029e6:    4630        0F      MOV      r0,r6
        0x080029e8:    f7feff7e    ..~.    BL       GPIO_ResetBits ; 0x80018e8
        0x080029ec:    2275        u"      MOVS     r2,#0x75
        0x080029ee:    a110        ..      ADR      r1,{pc}+0x42 ; 0x8002a30
        0x080029f0:    a012        ..      ADR      r0,{pc}+0x4c ; 0x8002a3c
        0x080029f2:    f7fefe47    ..G.    BL       Debug_USART_Printf ; 0x8001684
        0x080029f6:    4621        !F      MOV      r1,r4
        0x080029f8:    463a        :F      MOV      r2,r7
        0x080029fa:    a802        ..      ADD      r0,sp,#8
        0x080029fc:    f7fefb6e    ..n.    BL       AT_Read_DataPacketBuffer ; 0x80010dc
        0x08002a00:    ab02        ..      ADD      r3,sp,#8
        0x08002a02:    227c        |"      MOVS     r2,#0x7c
        0x08002a04:    a10a        ..      ADR      r1,{pc}+0x2c ; 0x8002a30
        0x08002a06:    a014        ..      ADR      r0,{pc}+0x52 ; 0x8002a58
        0x08002a08:    f7fefe3c    ..<.    BL       Debug_USART_Printf ; 0x8001684
        0x08002a0c:    9501        ..      STR      r5,[sp,#4]
        0x08002a0e:    a901        ..      ADD      r1,sp,#4
        0x08002a10:    a802        ..      ADD      r0,sp,#8
        0x08002a12:    f7fff8d3    ....    BL       JSON_GetParams ; 0x8001bbc
        0x08002a16:    9801        ..      LDR      r0,[sp,#4]
        0x08002a18:    f7fffa58    ..X.    BL       JSON_PrintItemList ; 0x8001ecc
        0x08002a1c:    a116        ..      ADR      r1,{pc}+0x5c ; 0x8002a78
        0x08002a1e:    9801        ..      LDR      r0,[sp,#4]
        0x08002a20:    f000ffd8    ....    BL       isInItemList ; 0x80039d4
        0x08002a24:    2800        .(      CMP      r0,#0
        0x08002a26:    d0e1        ..      BEQ      0x80029ec ; Task_MQTTDataRcv + 36
        0x08002a28:    e7d4        ..      B        0x80029d4 ; Task_MQTTDataRcv + 12
    $d
        0x08002a2a:    0000        ..      DCW    0
        0x08002a2c:    40010800    ...@    DCD    1073809408
        0x08002a30:    72657355    User    DCD    1919251285
        0x08002a34:    69616d5c    \mai    DCD    1767992668
        0x08002a38:    00632e6e    n.c.    DCD    6499950
        0x08002a3c:    3a73255b    [%s:    DCD    980624731
        0x08002a40:    205d6425    %d]     DCD    542991397
        0x08002a44:    61746164    data    DCD    1635017060
        0x08002a48:    61657220     rea    DCD    1634038304
        0x08002a4c:    61742064    d ta    DCD    1635000420
        0x08002a50:    0a0d6b73    sk..    DCD    168651635
        0x08002a54:    00000000    ....    DCD    0
        0x08002a58:    3a73255b    [%s:    DCD    980624731
        0x08002a5c:    205d6425    %d]     DCD    542991397
        0x08002a60:    61746164    data    DCD    1635017060
        0x08002a64:    6f726620     fro    DCD    1869768224
        0x08002a68:    6573206d    m se    DCD    1702043757
        0x08002a6c:    72657672    rver    DCD    1919252082
        0x08002a70:    0d73253a    :%s.    DCD    225649978
        0x08002a74:    0000000a    ....    DCD    10
        0x08002a78:    6867694c    Ligh    DCD    1751607628
        0x08002a7c:    69775374    tSwi    DCD    1769427828
        0x08002a80:    00686374    tch.    DCD    6841204
    $t
    i.Task_MQTTDataSend
    Task_MQTTDataSend
        0x08002a84:    4d11        .M      LDR      r5,[pc,#68] ; [0x8002acc] = 0x40010800
        0x08002a86:    4c12        .L      LDR      r4,[pc,#72] ; [0x8002ad0] = 0x200000bc
        0x08002a88:    f2413688    A..6    MOV      r6,#0x1388
        0x08002a8c:    2110        .!      MOVS     r1,#0x10
        0x08002a8e:    4628        (F      MOV      r0,r5
        0x08002a90:    f7feff23    ..#.    BL       GPIO_ReadOutputDataBit ; 0x80018da
        0x08002a94:    60a0        .`      STR      r0,[r4,#8]
        0x08002a96:    229d        ."      MOVS     r2,#0x9d
        0x08002a98:    a10e        ..      ADR      r1,{pc}+0x3c ; 0x8002ad4
        0x08002a9a:    a011        ..      ADR      r0,{pc}+0x46 ; 0x8002ae0
        0x08002a9c:    6823        #h      LDR      r3,[r4,#0]
        0x08002a9e:    f7fefdf1    ....    BL       Debug_USART_Printf ; 0x8001684
        0x08002aa2:    229e        ."      MOVS     r2,#0x9e
        0x08002aa4:    a10b        ..      ADR      r1,{pc}+0x30 ; 0x8002ad4
        0x08002aa6:    a015        ..      ADR      r0,{pc}+0x56 ; 0x8002afc
        0x08002aa8:    6863        ch      LDR      r3,[r4,#4]
        0x08002aaa:    f7fefdeb    ....    BL       Debug_USART_Printf ; 0x8001684
        0x08002aae:    229f        ."      MOVS     r2,#0x9f
        0x08002ab0:    a108        ..      ADR      r1,{pc}+0x24 ; 0x8002ad4
        0x08002ab2:    a019        ..      ADR      r0,{pc}+0x66 ; 0x8002b18
        0x08002ab4:    68a3        .h      LDR      r3,[r4,#8]
        0x08002ab6:    f7fefde5    ....    BL       Debug_USART_Printf ; 0x8001684
        0x08002aba:    e8940007    ....    LDM      r4,{r0-r2}
        0x08002abe:    f7fffbc5    ....    BL       MQTT_Publish ; 0x800224c
        0x08002ac2:    4630        0F      MOV      r0,r6
        0x08002ac4:    f001fba8    ....    BL       vTaskDelay ; 0x8004218
        0x08002ac8:    e7e0        ..      B        0x8002a8c ; Task_MQTTDataSend + 8
    $d
        0x08002aca:    0000        ..      DCW    0
        0x08002acc:    40010800    ...@    DCD    1073809408
        0x08002ad0:    200000bc    ...     DCD    536871100
        0x08002ad4:    72657355    User    DCD    1919251285
        0x08002ad8:    69616d5c    \mai    DCD    1767992668
        0x08002adc:    00632e6e    n.c.    DCD    6499950
        0x08002ae0:    3a73255b    [%s:    DCD    980624731
        0x08002ae4:    205d6425    %d]     DCD    542991397
        0x08002ae8:    646f6f66    food    DCD    1685024614
        0x08002aec:    6e657320     sen    DCD    1852142368
        0x08002af0:    3a726f73    sor:    DCD    980578163
        0x08002af4:    0d642520     %d.    DCD    224666912
        0x08002af8:    0000000a    ....    DCD    10
        0x08002afc:    3a73255b    [%s:    DCD    980624731
        0x08002b00:    205d6425    %d]     DCD    542991397
        0x08002b04:    65746177    wate    DCD    1702125943
        0x08002b08:    65732072    r se    DCD    1702043762
        0x08002b0c:    726f736e    nsor    DCD    1919906670
        0x08002b10:    6425203a    : %d    DCD    1680154682
        0x08002b14:    00000a0d    ....    DCD    2573
        0x08002b18:    3a73255b    [%s:    DCD    980624731
        0x08002b1c:    205d6425    %d]     DCD    542991397
        0x08002b20:    6867696c    ligh    DCD    1751607660
        0x08002b24:    65732074    t se    DCD    1702043764
        0x08002b28:    726f736e    nsor    DCD    1919906670
        0x08002b2c:    6425203a    : %d    DCD    1680154682
        0x08002b30:    00000a0d    ....    DCD    2573
    $t
    i.USART3_IRQHandler
    USART3_IRQHandler
        0x08002b34:    e92d41fc    -..A    PUSH     {r2-r8,lr}
        0x08002b38:    4f23        #O      LDR      r7,[pc,#140] ; [0x8002bc8] = 0x40004800
        0x08002b3a:    f44f7858    O.Xx    MOV      r8,#0x360
        0x08002b3e:    4641        AF      MOV      r1,r8
        0x08002b40:    4638        8F      MOV      r0,r7
        0x08002b42:    f000f87e    ..~.    BL       USART_GetITStatus ; 0x8002c42
        0x08002b46:    2501        .%      MOVS     r5,#1
        0x08002b48:    2600        .&      MOVS     r6,#0
        0x08002b4a:    4c20         L      LDR      r4,[pc,#128] ; [0x8002bcc] = 0x20000018
        0x08002b4c:    2800        .(      CMP      r0,#0
        0x08002b4e:    d013        ..      BEQ      0x8002b78 ; USART3_IRQHandler + 68
        0x08002b50:    2298        ."      MOVS     r2,#0x98
        0x08002b52:    a11f        ..      ADR      r1,{pc}+0x7e ; 0x8002bd0
        0x08002b54:    a023        #.      ADR      r0,{pc}+0x90 ; 0x8002be4
        0x08002b56:    f7fefd95    ....    BL       Debug_USART_Printf ; 0x8001684
        0x08002b5a:    60a5        .`      STR      r5,[r4,#8]
        0x08002b5c:    4638        8F      MOV      r0,r7
        0x08002b5e:    f000f983    ....    BL       USART_ReceiveData ; 0x8002e68
        0x08002b62:    4641        AF      MOV      r1,r8
        0x08002b64:    4638        8F      MOV      r0,r7
        0x08002b66:    f000f86c    ..l.    BL       USART_GetITStatus ; 0x8002c42
        0x08002b6a:    b928        (.      CBNZ     r0,0x8002b78 ; USART3_IRQHandler + 68
        0x08002b6c:    229c        ."      MOVS     r2,#0x9c
        0x08002b6e:    a118        ..      ADR      r1,{pc}+0x62 ; 0x8002bd0
        0x08002b70:    a021        !.      ADR      r0,{pc}+0x88 ; 0x8002bf8
        0x08002b72:    f7fefd87    ....    BL       Debug_USART_Printf ; 0x8001684
        0x08002b76:    60a6        .`      STR      r6,[r4,#8]
        0x08002b78:    f2405125    @.%Q    MOV      r1,#0x525
        0x08002b7c:    4638        8F      MOV      r0,r7
        0x08002b7e:    f000f860    ..`.    BL       USART_GetITStatus ; 0x8002c42
        0x08002b82:    2800        .(      CMP      r0,#0
        0x08002b84:    d01c        ..      BEQ      0x8002bc0 ; USART3_IRQHandler + 140
        0x08002b86:    4638        8F      MOV      r0,r7
        0x08002b88:    f000f96e    ..n.    BL       USART_ReceiveData ; 0x8002e68
        0x08002b8c:    9000        ..      STR      r0,[sp,#0]
        0x08002b8e:    490f        .I      LDR      r1,[pc,#60] ; [0x8002bcc] = 0x20000018
        0x08002b90:    68e0        .h      LDR      r0,[r4,#0xc]
        0x08002b92:    f001fd93    ....    BL       xQueueGiveFromISR ; 0x80046bc
        0x08002b96:    6820         h      LDR      r0,[r4,#0]
        0x08002b98:    b138        8.      CBZ      r0,0x8002baa ; USART3_IRQHandler + 118
        0x08002b9a:    491e        .I      LDR      r1,[pc,#120] ; [0x8002c14] = 0xe000ed04
        0x08002b9c:    f04f5080    O..P    MOV      r0,#0x10000000
        0x08002ba0:    6008        .`      STR      r0,[r1,#0]
        0x08002ba2:    f3bf8f4f    ..O.    DSB      
        0x08002ba6:    f3bf8f6f    ..o.    ISB      
        0x08002baa:    2201        ."      MOVS     r2,#1
        0x08002bac:    4669        iF      MOV      r1,sp
        0x08002bae:    481a        .H      LDR      r0,[pc,#104] ; [0x8002c18] = 0x200000a8
        0x08002bb0:    f000fa18    ....    BL       Write_RingBuffer ; 0x8002fe4
        0x08002bb4:    9001        ..      STR      r0,[sp,#4]
        0x08002bb6:    f89d0004    ....    LDRB     r0,[sp,#4]
        0x08002bba:    2801        .(      CMP      r0,#1
        0x08002bbc:    d002        ..      BEQ      0x8002bc4 ; USART3_IRQHandler + 144
        0x08002bbe:    6065        e`      STR      r5,[r4,#4]
        0x08002bc0:    e8bd81fc    ....    POP      {r2-r8,pc}
        0x08002bc4:    6066        f`      STR      r6,[r4,#4]
        0x08002bc6:    e7fb        ..      B        0x8002bc0 ; USART3_IRQHandler + 140
    $d
        0x08002bc8:    40004800    .H.@    DCD    1073760256
        0x08002bcc:    20000018    ...     DCD    536870936
        0x08002bd0:    64726148    Hard    DCD    1685217608
        0x08002bd4:    65726177    ware    DCD    1701994871
        0x08002bd8:    5f54415c    \AT_    DCD    1599357276
        0x08002bdc:    52415355    USAR    DCD    1380012885
        0x08002be0:    00632e54    T.c.    DCD    6499924
        0x08002be4:    3a73255b    [%s:    DCD    980624731
        0x08002be8:    205d6425    %d]     DCD    542991397
        0x08002bec:    2045524f    ORE     DCD    541413967
        0x08002bf0:    0a0d5449    IT..    DCD    168645705
        0x08002bf4:    00000000    ....    DCD    0
        0x08002bf8:    3a73255b    [%s:    DCD    980624731
        0x08002bfc:    205d6425    %d]     DCD    542991397
        0x08002c00:    2045524f    ORE     DCD    541413967
        0x08002c04:    63205449    IT c    DCD    1663063113
        0x08002c08:    7261656c    lear    DCD    1918985580
        0x08002c0c:    0a0d6465    ed..    DCD    168649829
        0x08002c10:    00000000    ....    DCD    0
        0x08002c14:    e000ed04    ....    DCD    3758157060
        0x08002c18:    200000a8    ...     DCD    536871080
    $t
    i.USART_Cmd
    USART_Cmd
        0x08002c1c:    2900        .)      CMP      r1,#0
        0x08002c1e:    d004        ..      BEQ      0x8002c2a ; USART_Cmd + 14
        0x08002c20:    8981        ..      LDRH     r1,[r0,#0xc]
        0x08002c22:    f4415100    A..Q    ORR      r1,r1,#0x2000
        0x08002c26:    8181        ..      STRH     r1,[r0,#0xc]
        0x08002c28:    4770        pG      BX       lr
        0x08002c2a:    8981        ..      LDRH     r1,[r0,#0xc]
        0x08002c2c:    f4215100    !..Q    BIC      r1,r1,#0x2000
        0x08002c30:    8181        ..      STRH     r1,[r0,#0xc]
        0x08002c32:    4770        pG      BX       lr
    i.USART_GetFlagStatus
    USART_GetFlagStatus
        0x08002c34:    4602        .F      MOV      r2,r0
        0x08002c36:    2000        .       MOVS     r0,#0
        0x08002c38:    8812        ..      LDRH     r2,[r2,#0]
        0x08002c3a:    420a        .B      TST      r2,r1
        0x08002c3c:    d000        ..      BEQ      0x8002c40 ; USART_GetFlagStatus + 12
        0x08002c3e:    2001        .       MOVS     r0,#1
        0x08002c40:    4770        pG      BX       lr
    i.USART_GetITStatus
    USART_GetITStatus
        0x08002c42:    b570        p.      PUSH     {r4-r6,lr}
        0x08002c44:    2400        .$      MOVS     r4,#0
        0x08002c46:    f640126a    @.j.    MOV      r2,#0x96a
        0x08002c4a:    f3c11342    ..B.    UBFX     r3,r1,#5,#3
        0x08002c4e:    f001051f    ....    AND      r5,r1,#0x1f
        0x08002c52:    2601        .&      MOVS     r6,#1
        0x08002c54:    fa06f205    ....    LSL      r2,r6,r5
        0x08002c58:    2b01        .+      CMP      r3,#1
        0x08002c5a:    d00c        ..      BEQ      0x8002c76 ; USART_GetITStatus + 52
        0x08002c5c:    2b02        .+      CMP      r3,#2
        0x08002c5e:    d00d        ..      BEQ      0x8002c7c ; USART_GetITStatus + 58
        0x08002c60:    8a83        ..      LDRH     r3,[r0,#0x14]
        0x08002c62:    4013        .@      ANDS     r3,r3,r2
        0x08002c64:    0a09        ..      LSRS     r1,r1,#8
        0x08002c66:    408e        .@      LSLS     r6,r6,r1
        0x08002c68:    8800        ..      LDRH     r0,[r0,#0]
        0x08002c6a:    4030        0@      ANDS     r0,r0,r6
        0x08002c6c:    b10b        ..      CBZ      r3,0x8002c72 ; USART_GetITStatus + 48
        0x08002c6e:    b100        ..      CBZ      r0,0x8002c72 ; USART_GetITStatus + 48
        0x08002c70:    2401        .$      MOVS     r4,#1
        0x08002c72:    4620         F      MOV      r0,r4
        0x08002c74:    bd70        p.      POP      {r4-r6,pc}
        0x08002c76:    8983        ..      LDRH     r3,[r0,#0xc]
        0x08002c78:    4013        .@      ANDS     r3,r3,r2
        0x08002c7a:    e7f3        ..      B        0x8002c64 ; USART_GetITStatus + 34
        0x08002c7c:    8a03        ..      LDRH     r3,[r0,#0x10]
        0x08002c7e:    4013        .@      ANDS     r3,r3,r2
        0x08002c80:    e7f0        ..      B        0x8002c64 ; USART_GetITStatus + 34
    i.USART_ITConfig
    USART_ITConfig
        0x08002c82:    b510        ..      PUSH     {r4,lr}
        0x08002c84:    f640136a    @.j.    MOV      r3,#0x96a
        0x08002c88:    f3c11342    ..B.    UBFX     r3,r1,#5,#3
        0x08002c8c:    f001041f    ....    AND      r4,r1,#0x1f
        0x08002c90:    2101        .!      MOVS     r1,#1
        0x08002c92:    40a1        .@      LSLS     r1,r1,r4
        0x08002c94:    2b01        .+      CMP      r3,#1
        0x08002c96:    d007        ..      BEQ      0x8002ca8 ; USART_ITConfig + 38
        0x08002c98:    2b02        .+      CMP      r3,#2
        0x08002c9a:    d007        ..      BEQ      0x8002cac ; USART_ITConfig + 42
        0x08002c9c:    3014        .0      ADDS     r0,r0,#0x14
        0x08002c9e:    b13a        :.      CBZ      r2,0x8002cb0 ; USART_ITConfig + 46
        0x08002ca0:    6802        .h      LDR      r2,[r0,#0]
        0x08002ca2:    430a        .C      ORRS     r2,r2,r1
        0x08002ca4:    6002        .`      STR      r2,[r0,#0]
        0x08002ca6:    bd10        ..      POP      {r4,pc}
        0x08002ca8:    300c        .0      ADDS     r0,r0,#0xc
        0x08002caa:    e7f8        ..      B        0x8002c9e ; USART_ITConfig + 28
        0x08002cac:    3010        .0      ADDS     r0,r0,#0x10
        0x08002cae:    e7f6        ..      B        0x8002c9e ; USART_ITConfig + 28
        0x08002cb0:    6802        .h      LDR      r2,[r0,#0]
        0x08002cb2:    438a        .C      BICS     r2,r2,r1
        0x08002cb4:    6002        .`      STR      r2,[r0,#0]
        0x08002cb6:    bd10        ..      POP      {r4,pc}
    i.USART_Init
    USART_Init
        0x08002cb8:    b530        0.      PUSH     {r4,r5,lr}
        0x08002cba:    b085        ..      SUB      sp,sp,#0x14
        0x08002cbc:    4604        .F      MOV      r4,r0
        0x08002cbe:    460d        .F      MOV      r5,r1
        0x08002cc0:    8a20         .      LDRH     r0,[r4,#0x10]
        0x08002cc2:    f64c71ff    L..q    MOV      r1,#0xcfff
        0x08002cc6:    4008        .@      ANDS     r0,r0,r1
        0x08002cc8:    88e9        ..      LDRH     r1,[r5,#6]
        0x08002cca:    4301        .C      ORRS     r1,r1,r0
        0x08002ccc:    8221        !.      STRH     r1,[r4,#0x10]
        0x08002cce:    89a0        ..      LDRH     r0,[r4,#0xc]
        0x08002cd0:    f64e11f3    N...    MOV      r1,#0xe9f3
        0x08002cd4:    4008        .@      ANDS     r0,r0,r1
        0x08002cd6:    88a9        ..      LDRH     r1,[r5,#4]
        0x08002cd8:    892a        *.      LDRH     r2,[r5,#8]
        0x08002cda:    4311        .C      ORRS     r1,r1,r2
        0x08002cdc:    896a        j.      LDRH     r2,[r5,#0xa]
        0x08002cde:    4302        .C      ORRS     r2,r2,r0
        0x08002ce0:    4311        .C      ORRS     r1,r1,r2
        0x08002ce2:    81a1        ..      STRH     r1,[r4,#0xc]
        0x08002ce4:    8aa0        ..      LDRH     r0,[r4,#0x14]
        0x08002ce6:    f64f41ff    O..A    MOV      r1,#0xfcff
        0x08002cea:    4008        .@      ANDS     r0,r0,r1
        0x08002cec:    89a9        ..      LDRH     r1,[r5,#0xc]
        0x08002cee:    4301        .C      ORRS     r1,r1,r0
        0x08002cf0:    82a1        ..      STRH     r1,[r4,#0x14]
        0x08002cf2:    4668        hF      MOV      r0,sp
        0x08002cf4:    f7fffc10    ....    BL       RCC_GetClocksFreq ; 0x8002518
        0x08002cf8:    481d        .H      LDR      r0,[pc,#116] ; [0x8002d70] = 0x40013800
        0x08002cfa:    4284        .B      CMP      r4,r0
        0x08002cfc:    d101        ..      BNE      0x8002d02 ; USART_Init + 74
        0x08002cfe:    9803        ..      LDR      r0,[sp,#0xc]
        0x08002d00:    e000        ..      B        0x8002d04 ; USART_Init + 76
        0x08002d02:    9802        ..      LDR      r0,[sp,#8]
        0x08002d04:    89a1        ..      LDRH     r1,[r4,#0xc]
        0x08002d06:    0409        ..      LSLS     r1,r1,#16
        0x08002d08:    d508        ..      BPL      0x8002d1c ; USART_Init + 100
        0x08002d0a:    eb0001c0    ....    ADD      r1,r0,r0,LSL #3
        0x08002d0e:    eb011000    ....    ADD      r0,r1,r0,LSL #4
        0x08002d12:    6829        )h      LDR      r1,[r5,#0]
        0x08002d14:    0049        I.      LSLS     r1,r1,#1
        0x08002d16:    fbb0f0f1    ....    UDIV     r0,r0,r1
        0x08002d1a:    e007        ..      B        0x8002d2c ; USART_Init + 116
        0x08002d1c:    eb0001c0    ....    ADD      r1,r0,r0,LSL #3
        0x08002d20:    eb011000    ....    ADD      r0,r1,r0,LSL #4
        0x08002d24:    6829        )h      LDR      r1,[r5,#0]
        0x08002d26:    0089        ..      LSLS     r1,r1,#2
        0x08002d28:    fbb0f0f1    ....    UDIV     r0,r0,r1
        0x08002d2c:    2264        d"      MOVS     r2,#0x64
        0x08002d2e:    fbb0f1f2    ....    UDIV     r1,r0,r2
        0x08002d32:    0109        ..      LSLS     r1,r1,#4
        0x08002d34:    090b        ..      LSRS     r3,r1,#4
        0x08002d36:    f06f0518    o...    MVN      r5,#0x18
        0x08002d3a:    436b        kC      MULS     r3,r5,r3
        0x08002d3c:    eb000083    ....    ADD      r0,r0,r3,LSL #2
        0x08002d40:    89a3        ..      LDRH     r3,[r4,#0xc]
        0x08002d42:    041d        ..      LSLS     r5,r3,#16
        0x08002d44:    f04f0332    O.2.    MOV      r3,#0x32
        0x08002d48:    d507        ..      BPL      0x8002d5a ; USART_Init + 162
        0x08002d4a:    eb0300c0    ....    ADD      r0,r3,r0,LSL #3
        0x08002d4e:    fbb0f0f2    ....    UDIV     r0,r0,r2
        0x08002d52:    f0000007    ....    AND      r0,r0,#7
        0x08002d56:    4308        .C      ORRS     r0,r0,r1
        0x08002d58:    e006        ..      B        0x8002d68 ; USART_Init + 176
        0x08002d5a:    eb031000    ....    ADD      r0,r3,r0,LSL #4
        0x08002d5e:    fbb0f0f2    ....    UDIV     r0,r0,r2
        0x08002d62:    f000000f    ....    AND      r0,r0,#0xf
        0x08002d66:    4308        .C      ORRS     r0,r0,r1
        0x08002d68:    8120         .      STRH     r0,[r4,#8]
        0x08002d6a:    b005        ..      ADD      sp,sp,#0x14
        0x08002d6c:    bd30        0.      POP      {r4,r5,pc}
    $d
        0x08002d6e:    0000        ..      DCW    0
        0x08002d70:    40013800    .8.@    DCD    1073821696
    $t
    i.USART_Read_Buffer
    USART_Read_Buffer
        0x08002d74:    e92d41f0    -..A    PUSH     {r4-r8,lr}
        0x08002d78:    4606        .F      MOV      r6,r0
        0x08002d7a:    460f        .F      MOV      r7,r1
        0x08002d7c:    4690        .F      MOV      r8,r2
        0x08002d7e:    4c1a        .L      LDR      r4,[pc,#104] ; [0x8002de8] = 0x200000a8
        0x08002d80:    4d1a        .M      LDR      r5,[pc,#104] ; [0x8002dec] = 0x20000018
        0x08002d82:    e010        ..      B        0x8002da6 ; USART_Read_Buffer + 50
        0x08002d84:    2274        t"      MOVS     r2,#0x74
        0x08002d86:    a11a        ..      ADR      r1,{pc}+0x6a ; 0x8002df0
        0x08002d88:    a01e        ..      ADR      r0,{pc}+0x7c ; 0x8002e04
        0x08002d8a:    f7fefc7b    ..{.    BL       Debug_USART_Printf ; 0x8001684
        0x08002d8e:    4641        AF      MOV      r1,r8
        0x08002d90:    68e8        .h      LDR      r0,[r5,#0xc]
        0x08002d92:    f001fcc7    ....    BL       xQueueSemaphoreTake ; 0x8004724
        0x08002d96:    2064        d       MOVS     r0,#0x64
        0x08002d98:    f7fefca0    ....    BL       Delay_ms ; 0x80016dc
        0x08002d9c:    2277        w"      MOVS     r2,#0x77
        0x08002d9e:    a114        ..      ADR      r1,{pc}+0x52 ; 0x8002df0
        0x08002da0:    a020         .      ADR      r0,{pc}+0x84 ; 0x8002e24
        0x08002da2:    f7fefc6f    ..o.    BL       Debug_USART_Printf ; 0x8001684
        0x08002da6:    68a1        .h      LDR      r1,[r4,#8]
        0x08002da8:    2900        .)      CMP      r1,#0
        0x08002daa:    d0eb        ..      BEQ      0x8002d84 ; USART_Read_Buffer + 16
        0x08002dac:    6868        hh      LDR      r0,[r5,#4]
        0x08002dae:    2801        .(      CMP      r0,#1
        0x08002db0:    d009        ..      BEQ      0x8002dc6 ; USART_Read_Buffer + 82
        0x08002db2:    6868        hh      LDR      r0,[r5,#4]
        0x08002db4:    b188        ..      CBZ      r0,0x8002dda ; USART_Read_Buffer + 102
        0x08002db6:    228c        ."      MOVS     r2,#0x8c
        0x08002db8:    a10d        ..      ADR      r1,{pc}+0x38 ; 0x8002df0
        0x08002dba:    a022        ".      ADR      r0,{pc}+0x8a ; 0x8002e44
        0x08002dbc:    f7fefc62    ..b.    BL       Debug_USART_Printf ; 0x8001684
        0x08002dc0:    6868        hh      LDR      r0,[r5,#4]
        0x08002dc2:    e8bd81f0    ....    POP      {r4-r8,pc}
        0x08002dc6:    227d        }"      MOVS     r2,#0x7d
        0x08002dc8:    a109        ..      ADR      r1,{pc}+0x28 ; 0x8002df0
        0x08002dca:    4826        &H      LDR      r0,[pc,#152] ; [0x8002e64] = 0x8004d88
        0x08002dcc:    f7fefc5a    ..Z.    BL       Debug_USART_Printf ; 0x8001684
        0x08002dd0:    2000        .       MOVS     r0,#0
        0x08002dd2:    60a0        .`      STR      r0,[r4,#8]
        0x08002dd4:    6920         i      LDR      r0,[r4,#0x10]
        0x08002dd6:    60e0        .`      STR      r0,[r4,#0xc]
        0x08002dd8:    e7f2        ..      B        0x8002dc0 ; USART_Read_Buffer + 76
        0x08002dda:    68a2        .h      LDR      r2,[r4,#8]
        0x08002ddc:    463b        ;F      MOV      r3,r7
        0x08002dde:    4631        1F      MOV      r1,r6
        0x08002de0:    4801        .H      LDR      r0,[pc,#4] ; [0x8002de8] = 0x200000a8
        0x08002de2:    f7fffbef    ....    BL       Read_RingBuffer ; 0x80025c4
        0x08002de6:    e7eb        ..      B        0x8002dc0 ; USART_Read_Buffer + 76
    $d
        0x08002de8:    200000a8    ...     DCD    536871080
        0x08002dec:    20000018    ...     DCD    536870936
        0x08002df0:    64726148    Hard    DCD    1685217608
        0x08002df4:    65726177    ware    DCD    1701994871
        0x08002df8:    5f54415c    \AT_    DCD    1599357276
        0x08002dfc:    52415355    USAR    DCD    1380012885
        0x08002e00:    00632e54    T.c.    DCD    6499924
        0x08002e04:    3a73255b    [%s:    DCD    980624731
        0x08002e08:    205d6425    %d]     DCD    542991397
        0x08002e0c:    65636572    rece    DCD    1701012850
        0x08002e10:    20657669    ive     DCD    543520361
        0x08002e14:    6574756d    mute    DCD    1702131053
        0x08002e18:    6f6c2078    x lo    DCD    1869357176
        0x08002e1c:    0a0d6b63    ck..    DCD    168651619
        0x08002e20:    00000000    ....    DCD    0
        0x08002e24:    3a73255b    [%s:    DCD    980624731
        0x08002e28:    205d6425    %d]     DCD    542991397
        0x08002e2c:    65636572    rece    DCD    1701012850
        0x08002e30:    20657669    ive     DCD    543520361
        0x08002e34:    6574756d    mute    DCD    1702131053
        0x08002e38:    6e752078    x un    DCD    1853169784
        0x08002e3c:    6b636f6c    lock    DCD    1801678700
        0x08002e40:    00000a0d    ....    DCD    2573
        0x08002e44:    3a73255b    [%s:    DCD    980624731
        0x08002e48:    205d6425    %d]     DCD    542991397
        0x08002e4c:    69726553    Seri    DCD    1769104723
        0x08002e50:    725f6c61    al_r    DCD    1918856289
        0x08002e54:    616c4678    xFla    DCD    1634485880
        0x08002e58:    6c652067    g el    DCD    1818566759
        0x08002e5c:    0a0d6573    se..    DCD    168650099
        0x08002e60:    00000000    ....    DCD    0
        0x08002e64:    08004d88    .M..    DCD    134237576
    $t
    i.USART_ReceiveData
    USART_ReceiveData
        0x08002e68:    8880        ..      LDRH     r0,[r0,#4]
        0x08002e6a:    f3c00008    ....    UBFX     r0,r0,#0,#9
        0x08002e6e:    4770        pG      BX       lr
    i.USART_SendData
    USART_SendData
        0x08002e70:    f3c10108    ....    UBFX     r1,r1,#0,#9
        0x08002e74:    8081        ..      STRH     r1,[r0,#4]
        0x08002e76:    4770        pG      BX       lr
    i.UsageFault_Handler
    UsageFault_Handler
        0x08002e78:    e7fe        ..      B        UsageFault_Handler ; 0x8002e78
        0x08002e7a:    0000        ..      MOVS     r0,r0
    i.WiFi_Config
    WiFi_Config
        0x08002e7c:    2101        .!      MOVS     r1,#1
        0x08002e7e:    6001        .`      STR      r1,[r0,#0]
        0x08002e80:    a102        ..      ADR      r1,{pc}+0xc ; 0x8002e8c
        0x08002e82:    6041        A`      STR      r1,[r0,#4]
        0x08002e84:    a104        ..      ADR      r1,{pc}+0x14 ; 0x8002e98
        0x08002e86:    6081        .`      STR      r1,[r0,#8]
        0x08002e88:    4770        pG      BX       lr
    $d
        0x08002e8a:    0000        ..      DCW    0
        0x08002e8c:    6f616958    Xiao    DCD    1868654936
        0x08002e90:    3331696d    mi13    DCD    858876269
        0x08002e94:    00000000    ....    DCD    0
        0x08002e98:    34333231    1234    DCD    875770417
        0x08002e9c:    38373635    5678    DCD    943142453
        0x08002ea0:    00003039    90..    DCD    12345
    $t
    i.WiFi_Connect
    WiFi_Connect
        0x08002ea4:    b5f0        ..      PUSH     {r4-r7,lr}
        0x08002ea6:    b0c1        ..      SUB      sp,sp,#0x104
        0x08002ea8:    4604        .F      MOV      r4,r0
        0x08002eaa:    f44f7680    O..v    MOV      r6,#0x100
        0x08002eae:    a21b        ..      ADR      r2,{pc}+0x6e ; 0x8002f1c
        0x08002eb0:    4631        1F      MOV      r1,r6
        0x08002eb2:    a801        ..      ADD      r0,sp,#4
        0x08002eb4:    6823        #h      LDR      r3,[r4,#0]
        0x08002eb6:    f000f8bf    ....    BL       __0snprintf ; 0x8003038
        0x08002eba:    f04f37ff    O..7    MOV      r7,#0xffffffff
        0x08002ebe:    4639        9F      MOV      r1,r7
        0x08002ec0:    a801        ..      ADD      r0,sp,#4
        0x08002ec2:    f7fefaad    ....    BL       AT_SendCommand ; 0x8001420
        0x08002ec6:    4605        .F      MOV      r5,r0
        0x08002ec8:    b13d        =.      CBZ      r5,0x8002eda ; WiFi_Connect + 54
        0x08002eca:    2216        ."      MOVS     r2,#0x16
        0x08002ecc:    a117        ..      ADR      r1,{pc}+0x60 ; 0x8002f2c
        0x08002ece:    a01c        ..      ADR      r0,{pc}+0x72 ; 0x8002f40
        0x08002ed0:    f7fefbd8    ....    BL       Debug_USART_Printf ; 0x8001684
        0x08002ed4:    4628        (F      MOV      r0,r5
        0x08002ed6:    b041        A.      ADD      sp,sp,#0x104
        0x08002ed8:    bdf0        ..      POP      {r4-r7,pc}
        0x08002eda:    2213        ."      MOVS     r2,#0x13
        0x08002edc:    a113        ..      ADR      r1,{pc}+0x50 ; 0x8002f2c
        0x08002ede:    a020         .      ADR      r0,{pc}+0x82 ; 0x8002f60
        0x08002ee0:    f7fefbd0    ....    BL       Debug_USART_Printf ; 0x8001684
        0x08002ee4:    68a0        .h      LDR      r0,[r4,#8]
        0x08002ee6:    9000        ..      STR      r0,[sp,#0]
        0x08002ee8:    a227        '.      ADR      r2,{pc}+0xa0 ; 0x8002f88
        0x08002eea:    4631        1F      MOV      r1,r6
        0x08002eec:    a801        ..      ADD      r0,sp,#4
        0x08002eee:    6863        ch      LDR      r3,[r4,#4]
        0x08002ef0:    f000f8a2    ....    BL       __0snprintf ; 0x8003038
        0x08002ef4:    4639        9F      MOV      r1,r7
        0x08002ef6:    a801        ..      ADD      r0,sp,#4
        0x08002ef8:    f7fefa92    ....    BL       AT_SendCommand ; 0x8001420
        0x08002efc:    4604        .F      MOV      r4,r0
        0x08002efe:    b134        4.      CBZ      r4,0x8002f0e ; WiFi_Connect + 106
        0x08002f00:    2222        ""      MOVS     r2,#0x22
        0x08002f02:    a10a        ..      ADR      r1,{pc}+0x2a ; 0x8002f2c
        0x08002f04:    a026        &.      ADR      r0,{pc}+0x9c ; 0x8002fa0
        0x08002f06:    f7fefbbd    ....    BL       Debug_USART_Printf ; 0x8001684
        0x08002f0a:    4620         F      MOV      r0,r4
        0x08002f0c:    e7e3        ..      B        0x8002ed6 ; WiFi_Connect + 50
        0x08002f0e:    221f        ."      MOVS     r2,#0x1f
        0x08002f10:    a106        ..      ADR      r1,{pc}+0x1c ; 0x8002f2c
        0x08002f12:    a02b        +.      ADR      r0,{pc}+0xae ; 0x8002fc0
        0x08002f14:    f7fefbb6    ....    BL       Debug_USART_Printf ; 0x8001684
        0x08002f18:    e7f7        ..      B        0x8002f0a ; WiFi_Connect + 102
    $d
        0x08002f1a:    0000        ..      DCW    0
        0x08002f1c:    432b5441    AT+C    DCD    1126913089
        0x08002f20:    444f4d57    WMOD    DCD    1146047831
        0x08002f24:    64253d45    E=%d    DCD    1680162117
        0x08002f28:    00000a0d    ....    DCD    2573
        0x08002f2c:    5454514d    MQTT    DCD    1414811981
        0x08002f30:    4669575c    \WiF    DCD    1181308764
        0x08002f34:    6e6f4369    iCon    DCD    1852785513
        0x08002f38:    7463656e    nect    DCD    1952671086
        0x08002f3c:    0000632e    .c..    DCD    25390
        0x08002f40:    3a73255b    [%s:    DCD    980624731
        0x08002f44:    205d6425    %d]     DCD    542991397
        0x08002f48:    6c696166    fail    DCD    1818845542
        0x08002f4c:    206f7420     to     DCD    544175136
        0x08002f50:    20746573    set     DCD    544499059
        0x08002f54:    69666977    wifi    DCD    1768319351
        0x08002f58:    646f6d20     mod    DCD    1685024032
        0x08002f5c:    000a0d65    e...    DCD    658789
        0x08002f60:    3a73255b    [%s:    DCD    980624731
        0x08002f64:    205d6425    %d]     DCD    542991397
        0x08002f68:    20746573    set     DCD    544499059
        0x08002f6c:    69666977    wifi    DCD    1768319351
        0x08002f70:    646f6d20     mod    DCD    1685024032
        0x08002f74:    75732065    e su    DCD    1970479205
        0x08002f78:    73656363    cces    DCD    1936024419
        0x08002f7c:    6c756673    sful    DCD    1819633267
        0x08002f80:    0a0d796c    ly..    DCD    168655212
        0x08002f84:    00000000    ....    DCD    0
        0x08002f88:    432b5441    AT+C    DCD    1126913089
        0x08002f8c:    50414a57    WJAP    DCD    1346456151
        0x08002f90:    7325223d    ="%s    DCD    1931813437
        0x08002f94:    25222c22    ","%    DCD    622996514
        0x08002f98:    0a0d2273    s"..    DCD    168632947
        0x08002f9c:    00000000    ....    DCD    0
        0x08002fa0:    3a73255b    [%s:    DCD    980624731
        0x08002fa4:    205d6425    %d]     DCD    542991397
        0x08002fa8:    6c696166    fail    DCD    1818845542
        0x08002fac:    206f7420     to     DCD    544175136
        0x08002fb0:    6e6e6f63    conn    DCD    1852731235
        0x08002fb4:    20746365    ect     DCD    544498533
        0x08002fb8:    69666977    wifi    DCD    1768319351
        0x08002fbc:    00000a0d    ....    DCD    2573
        0x08002fc0:    3a73255b    [%s:    DCD    980624731
        0x08002fc4:    205d6425    %d]     DCD    542991397
        0x08002fc8:    6e6e6f63    conn    DCD    1852731235
        0x08002fcc:    20746365    ect     DCD    544498533
        0x08002fd0:    69666977    wifi    DCD    1768319351
        0x08002fd4:    63757320     suc    DCD    1668641568
        0x08002fd8:    73736563    cess    DCD    1936942435
        0x08002fdc:    6c6c7566    full    DCD    1819047270
        0x08002fe0:    000a0d79    y...    DCD    658809
    $t
    i.Write_RingBuffer
    Write_RingBuffer
        0x08002fe4:    b570        p.      PUSH     {r4-r6,lr}
        0x08002fe6:    4603        .F      MOV      r3,r0
        0x08002fe8:    460e        .F      MOV      r6,r1
        0x08002fea:    2b00        .+      CMP      r3,#0
        0x08002fec:    d005        ..      BEQ      0x8002ffa ; Write_RingBuffer + 22
        0x08002fee:    6818        .h      LDR      r0,[r3,#0]
        0x08002ff0:    b118        ..      CBZ      r0,0x8002ffa ; Write_RingBuffer + 22
        0x08002ff2:    4618        .F      MOV      r0,r3
        0x08002ff4:    f000fd37    ..7.    BL       is_RingBuffer_Full ; 0x8003a66
        0x08002ff8:    b108        ..      CBZ      r0,0x8002ffe ; Write_RingBuffer + 26
        0x08002ffa:    2000        .       MOVS     r0,#0
        0x08002ffc:    bd70        p.      POP      {r4-r6,pc}
        0x08002ffe:    e9d30101    ....    LDRD     r0,r1,[r3,#4]
        0x08003002:    1a40        @.      SUBS     r0,r0,r1
        0x08003004:    4290        .B      CMP      r0,r2
        0x08003006:    d201        ..      BCS      0x800300c ; Write_RingBuffer + 40
        0x08003008:    2000        .       MOVS     r0,#0
        0x0800300a:    bd70        p.      POP      {r4-r6,pc}
        0x0800300c:    691c        .i      LDR      r4,[r3,#0x10]
        0x0800300e:    2000        .       MOVS     r0,#0
        0x08003010:    e009        ..      B        0x8003026 ; Write_RingBuffer + 66
        0x08003012:    681d        .h      LDR      r5,[r3,#0]
        0x08003014:    5c31        1\      LDRB     r1,[r6,r0]
        0x08003016:    5529        )U      STRB     r1,[r5,r4]
        0x08003018:    685d        ]h      LDR      r5,[r3,#4]
        0x0800301a:    1c64        d.      ADDS     r4,r4,#1
        0x0800301c:    fbb4f1f5    ....    UDIV     r1,r4,r5
        0x08003020:    fb054411    ...D    MLS      r4,r5,r1,r4
        0x08003024:    1c40        @.      ADDS     r0,r0,#1
        0x08003026:    4290        .B      CMP      r0,r2
        0x08003028:    d3f3        ..      BCC      0x8003012 ; Write_RingBuffer + 46
        0x0800302a:    6898        .h      LDR      r0,[r3,#8]
        0x0800302c:    4410        .D      ADD      r0,r0,r2
        0x0800302e:    6098        .`      STR      r0,[r3,#8]
        0x08003030:    611c        .a      STR      r4,[r3,#0x10]
        0x08003032:    2001        .       MOVS     r0,#1
        0x08003034:    bd70        p.      POP      {r4-r6,pc}
        0x08003036:    0000        ..      MOVS     r0,r0
    i.__0snprintf
    __0snprintf
    __1snprintf
    __2snprintf
    __c89snprintf
    snprintf
        0x08003038:    b40f        ..      PUSH     {r0-r3}
        0x0800303a:    b51c        ..      PUSH     {r2-r4,lr}
        0x0800303c:    4602        .F      MOV      r2,r0
        0x0800303e:    2000        .       MOVS     r0,#0
        0x08003040:    ac07        ..      ADD      r4,sp,#0x1c
        0x08003042:    2900        .)      CMP      r1,#0
        0x08003044:    d00b        ..      BEQ      0x800305e ; __0snprintf + 38
        0x08003046:    1e49        I.      SUBS     r1,r1,#1
        0x08003048:    e9cd2100    ...!    STRD     r2,r1,[sp,#0]
        0x0800304c:    4b05        .K      LDR      r3,[pc,#20] ; [0x8003064] = 0x8003977
        0x0800304e:    466a        jF      MOV      r2,sp
        0x08003050:    4621        !F      MOV      r1,r4
        0x08003052:    9806        ..      LDR      r0,[sp,#0x18]
        0x08003054:    f000f8f8    ....    BL       _printf_core ; 0x8003248
        0x08003058:    9a00        ..      LDR      r2,[sp,#0]
        0x0800305a:    2100        .!      MOVS     r1,#0
        0x0800305c:    7011        .p      STRB     r1,[r2,#0]
        0x0800305e:    bc1c        ..      POP      {r2-r4}
        0x08003060:    f85dfb14    ]...    LDR      pc,[sp],#0x14
    $d
        0x08003064:    08003977    w9..    DCD    134232439
    $t
    i.__0vsnprintf
    __0vsnprintf
    __1vsnprintf
    __2vsnprintf
    __c89vsnprintf
    vsnprintf
        0x08003068:    b57c        |.      PUSH     {r2-r6,lr}
        0x0800306a:    4604        .F      MOV      r4,r0
        0x0800306c:    2000        .       MOVS     r0,#0
        0x0800306e:    461d        .F      MOV      r5,r3
        0x08003070:    4616        .F      MOV      r6,r2
        0x08003072:    2900        .)      CMP      r1,#0
        0x08003074:    d00b        ..      BEQ      0x800308e ; __0vsnprintf + 38
        0x08003076:    1e49        I.      SUBS     r1,r1,#1
        0x08003078:    e9cd4100    ...A    STRD     r4,r1,[sp,#0]
        0x0800307c:    4b04        .K      LDR      r3,[pc,#16] ; [0x8003090] = 0x8003977
        0x0800307e:    466a        jF      MOV      r2,sp
        0x08003080:    4629        )F      MOV      r1,r5
        0x08003082:    4630        0F      MOV      r0,r6
        0x08003084:    f000f8e0    ....    BL       _printf_core ; 0x8003248
        0x08003088:    9a00        ..      LDR      r2,[sp,#0]
        0x0800308a:    2100        .!      MOVS     r1,#0
        0x0800308c:    7011        .p      STRB     r1,[r2,#0]
        0x0800308e:    bd7c        |.      POP      {r2-r6,pc}
    $d
        0x08003090:    08003977    w9..    DCD    134232439
    $t
    i.__scatterload_copy
    __scatterload_copy
        0x08003094:    e002        ..      B        0x800309c ; __scatterload_copy + 8
        0x08003096:    c808        ..      LDM      r0!,{r3}
        0x08003098:    1f12        ..      SUBS     r2,r2,#4
        0x0800309a:    c108        ..      STM      r1!,{r3}
        0x0800309c:    2a00        .*      CMP      r2,#0
        0x0800309e:    d1fa        ..      BNE      0x8003096 ; __scatterload_copy + 2
        0x080030a0:    4770        pG      BX       lr
    i.__scatterload_null
    __scatterload_null
        0x080030a2:    4770        pG      BX       lr
    i.__scatterload_zeroinit
    __scatterload_zeroinit
        0x080030a4:    2000        .       MOVS     r0,#0
        0x080030a6:    e001        ..      B        0x80030ac ; __scatterload_zeroinit + 8
        0x080030a8:    c101        ..      STM      r1!,{r0}
        0x080030aa:    1f12        ..      SUBS     r2,r2,#4
        0x080030ac:    2a00        .*      CMP      r2,#0
        0x080030ae:    d1fb        ..      BNE      0x80030a8 ; __scatterload_zeroinit + 4
        0x080030b0:    4770        pG      BX       lr
        0x080030b2:    0000        ..      MOVS     r0,r0
    i._fp_digits
    _fp_digits
        0x080030b4:    e92d5fff    -.._    PUSH     {r0-r12,lr}
        0x080030b8:    b082        ..      SUB      sp,sp,#8
        0x080030ba:    2100        .!      MOVS     r1,#0
        0x080030bc:    e9dd3004    ...0    LDRD     r3,r0,[sp,#0x10]
        0x080030c0:    0d02        ..      LSRS     r2,r0,#20
        0x080030c2:    f8ddb040    ..@.    LDR      r11,[sp,#0x40]
        0x080030c6:    4303        .C      ORRS     r3,r3,r0
        0x080030c8:    d018        ..      BEQ      0x80030fc ; _fp_digits + 72
        0x080030ca:    f6445010    D..P    MOV      r0,#0x4d10
        0x080030ce:    f2a232ff    ...2    SUB      r2,r2,#0x3ff
        0x080030d2:    4342        BC      MULS     r2,r0,r2
        0x080030d4:    1415        ..      ASRS     r5,r2,#16
        0x080030d6:    9811        ..      LDR      r0,[sp,#0x44]
        0x080030d8:    2801        .(      CMP      r0,#1
        0x080030da:    d01f        ..      BEQ      0x800311c ; _fp_digits + 104
        0x080030dc:    eba5000b    ....    SUB      r0,r5,r11
        0x080030e0:    1c40        @.      ADDS     r0,r0,#1
        0x080030e2:    ea5f0a00    _...    MOVS     r10,r0
        0x080030e6:    f04f0600    O...    MOV      r6,#0
        0x080030ea:    4f4e        NO      LDR      r7,[pc,#312] ; [0x8003224] = 0x40140000
        0x080030ec:    f8df9138    ..8.    LDR      r9,[pc,#312] ; [0x8003228] = 0x3ff00000
        0x080030f0:    46b0        .F      MOV      r8,r6
        0x080030f2:    4650        PF      MOV      r0,r10
        0x080030f4:    d515        ..      BPL      0x8003122 ; _fp_digits + 110
        0x080030f6:    f1ca0400    ....    RSB      r4,r10,#0
        0x080030fa:    e013        ..      B        0x8003124 ; _fp_digits + 112
        0x080030fc:    9811        ..      LDR      r0,[sp,#0x44]
        0x080030fe:    2401        .$      MOVS     r4,#1
        0x08003100:    a34a        J.      ADR      r3,{pc}+0x12c ; 0x800322c
        0x08003102:    2801        .(      CMP      r0,#1
        0x08003104:    d101        ..      BNE      0x800310a ; _fp_digits + 86
        0x08003106:    ea6f010b    o...    MVN      r1,r11
        0x0800310a:    9802        ..      LDR      r0,[sp,#8]
        0x0800310c:    9a11        ..      LDR      r2,[sp,#0x44]
        0x0800310e:    e9c03100    ...1    STRD     r3,r1,[r0,#0]
        0x08003112:    e9c04202    ...B    STRD     r4,r2,[r0,#8]
        0x08003116:    b006        ..      ADD      sp,sp,#0x18
        0x08003118:    e8bd9ff0    ....    POP      {r4-r12,pc}
        0x0800311c:    f1cb0000    ....    RSB      r0,r11,#0
        0x08003120:    e7df        ..      B        0x80030e2 ; _fp_digits + 46
        0x08003122:    4604        .F      MOV      r4,r0
        0x08003124:    2100        .!      MOVS     r1,#0
        0x08003126:    4a40        @J      LDR      r2,[pc,#256] ; [0x8003228] = 0x3ff00000
        0x08003128:    1849        I.      ADDS     r1,r1,r1
        0x0800312a:    eb425004    B..P    ADC      r0,r2,r4,LSL #20
        0x0800312e:    e9cd1000    ....    STRD     r1,r0,[sp,#0]
        0x08003132:    e012        ..      B        0x800315a ; _fp_digits + 166
        0x08003134:    07e0        ..      LSLS     r0,r4,#31
        0x08003136:    d007        ..      BEQ      0x8003148 ; _fp_digits + 148
        0x08003138:    4632        2F      MOV      r2,r6
        0x0800313a:    463b        ;F      MOV      r3,r7
        0x0800313c:    4640        @F      MOV      r0,r8
        0x0800313e:    4649        IF      MOV      r1,r9
        0x08003140:    f7fdf931    ..1.    BL       __aeabi_dmul ; 0x80003a6
        0x08003144:    4680        .F      MOV      r8,r0
        0x08003146:    4689        .F      MOV      r9,r1
        0x08003148:    4632        2F      MOV      r2,r6
        0x0800314a:    463b        ;F      MOV      r3,r7
        0x0800314c:    4610        .F      MOV      r0,r2
        0x0800314e:    4619        .F      MOV      r1,r3
        0x08003150:    f7fdf929    ..).    BL       __aeabi_dmul ; 0x80003a6
        0x08003154:    4606        .F      MOV      r6,r0
        0x08003156:    460f        .F      MOV      r7,r1
        0x08003158:    1064        d.      ASRS     r4,r4,#1
        0x0800315a:    2c00        .,      CMP      r4,#0
        0x0800315c:    d1ea        ..      BNE      0x8003134 ; _fp_digits + 128
        0x0800315e:    e9dd0104    ....    LDRD     r0,r1,[sp,#0x10]
        0x08003162:    e9dd2300    ...#    LDRD     r2,r3,[sp,#0]
        0x08003166:    f1ba0f00    ....    CMP      r10,#0
        0x0800316a:    da06        ..      BGE      0x800317a ; _fp_digits + 198
        0x0800316c:    f7fdf91b    ....    BL       __aeabi_dmul ; 0x80003a6
        0x08003170:    4642        BF      MOV      r2,r8
        0x08003172:    464b        KF      MOV      r3,r9
        0x08003174:    f7fdf917    ....    BL       __aeabi_dmul ; 0x80003a6
        0x08003178:    e005        ..      B        0x8003186 ; _fp_digits + 210
        0x0800317a:    f7fdf986    ....    BL       __aeabi_ddiv ; 0x800048a
        0x0800317e:    4642        BF      MOV      r2,r8
        0x08003180:    464b        KF      MOV      r3,r9
        0x08003182:    f7fdf982    ....    BL       __aeabi_ddiv ; 0x800048a
        0x08003186:    4604        .F      MOV      r4,r0
        0x08003188:    460e        .F      MOV      r6,r1
        0x0800318a:    2200        ."      MOVS     r2,#0
        0x0800318c:    4b28        (K      LDR      r3,[pc,#160] ; [0x8003230] = 0x43f00000
        0x0800318e:    f7fdfa23    ..#.    BL       __aeabi_cdrcmple ; 0x80005d8
        0x08003192:    d803        ..      BHI      0x800319c ; _fp_digits + 232
        0x08003194:    f04f30ff    O..0    MOV      r0,#0xffffffff
        0x08003198:    4601        .F      MOV      r1,r0
        0x0800319a:    e007        ..      B        0x80031ac ; _fp_digits + 248
        0x0800319c:    2200        ."      MOVS     r2,#0
        0x0800319e:    4b25        %K      LDR      r3,[pc,#148] ; [0x8003234] = 0x3fe00000
        0x080031a0:    4620         F      MOV      r0,r4
        0x080031a2:    4631        1F      MOV      r1,r6
        0x080031a4:    f7fdf858    ..X.    BL       __aeabi_dadd ; 0x8000258
        0x080031a8:    f7fdfba4    ....    BL       __aeabi_d2ulz ; 0x80008f4
        0x080031ac:    2410        .$      MOVS     r4,#0x10
        0x080031ae:    e009        ..      B        0x80031c4 ; _fp_digits + 272
        0x080031b0:    2c00        .,      CMP      r4,#0
        0x080031b2:    db0a        ..      BLT      0x80031ca ; _fp_digits + 278
        0x080031b4:    220a        ."      MOVS     r2,#0xa
        0x080031b6:    2300        .#      MOVS     r3,#0
        0x080031b8:    f7fdfa58    ..X.    BL       __aeabi_uldivmod ; 0x800066c
        0x080031bc:    9b03        ..      LDR      r3,[sp,#0xc]
        0x080031be:    3230        02      ADDS     r2,r2,#0x30
        0x080031c0:    551a        .U      STRB     r2,[r3,r4]
        0x080031c2:    1e64        d.      SUBS     r4,r4,#1
        0x080031c4:    ea500201    P...    ORRS     r2,r0,r1
        0x080031c8:    d1f2        ..      BNE      0x80031b0 ; _fp_digits + 252
        0x080031ca:    1c64        d.      ADDS     r4,r4,#1
        0x080031cc:    9a03        ..      LDR      r2,[sp,#0xc]
        0x080031ce:    f1c40311    ....    RSB      r3,r4,#0x11
        0x080031d2:    4414        .D      ADD      r4,r4,r2
        0x080031d4:    9a11        ..      LDR      r2,[sp,#0x44]
        0x080031d6:    2a01        .*      CMP      r2,#1
        0x080031d8:    d003        ..      BEQ      0x80031e2 ; _fp_digits + 302
        0x080031da:    2201        ."      MOVS     r2,#1
        0x080031dc:    4308        .C      ORRS     r0,r0,r1
        0x080031de:    d10d        ..      BNE      0x80031fc ; _fp_digits + 328
        0x080031e0:    e00a        ..      B        0x80031f8 ; _fp_digits + 324
        0x080031e2:    4308        .C      ORRS     r0,r0,r1
        0x080031e4:    d004        ..      BEQ      0x80031f0 ; _fp_digits + 316
        0x080031e6:    2000        .       MOVS     r0,#0
        0x080031e8:    f04f0b11    O...    MOV      r11,#0x11
        0x080031ec:    9011        ..      STR      r0,[sp,#0x44]
        0x080031ee:    e772        r.      B        0x80030d6 ; _fp_digits + 34
        0x080031f0:    eba3050b    ....    SUB      r5,r3,r11
        0x080031f4:    1e6d        m.      SUBS     r5,r5,#1
        0x080031f6:    e00d        ..      B        0x8003214 ; _fp_digits + 352
        0x080031f8:    455b        [E      CMP      r3,r11
        0x080031fa:    dd04        ..      BLE      0x8003206 ; _fp_digits + 338
        0x080031fc:    f04f0200    O...    MOV      r2,#0
        0x08003200:    f1050501    ....    ADD      r5,r5,#1
        0x08003204:    e004        ..      B        0x8003210 ; _fp_digits + 348
        0x08003206:    da03        ..      BGE      0x8003210 ; _fp_digits + 348
        0x08003208:    f04f0200    O...    MOV      r2,#0
        0x0800320c:    f1a50501    ....    SUB      r5,r5,#1
        0x08003210:    2a00        .*      CMP      r2,#0
        0x08003212:    d0ec        ..      BEQ      0x80031ee ; _fp_digits + 314
        0x08003214:    9802        ..      LDR      r0,[sp,#8]
        0x08003216:    9911        ..      LDR      r1,[sp,#0x44]
        0x08003218:    e9c03102    ...1    STRD     r3,r1,[r0,#8]
        0x0800321c:    e9c04500    ...E    STRD     r4,r5,[r0,#0]
        0x08003220:    e779        y.      B        0x8003116 ; _fp_digits + 98
    $d
        0x08003222:    0000        ..      DCW    0
        0x08003224:    40140000    ...@    DCD    1075052544
        0x08003228:    3ff00000    ...?    DCD    1072693248
        0x0800322c:    00000030    0...    DCD    48
        0x08003230:    43f00000    ...C    DCD    1139802112
        0x08003234:    3fe00000    ...?    DCD    1071644672
    $t
    i._is_digit
    _is_digit
        0x08003238:    3830        08      SUBS     r0,r0,#0x30
        0x0800323a:    280a        .(      CMP      r0,#0xa
        0x0800323c:    d201        ..      BCS      0x8003242 ; _is_digit + 10
        0x0800323e:    2001        .       MOVS     r0,#1
        0x08003240:    4770        pG      BX       lr
        0x08003242:    2000        .       MOVS     r0,#0
        0x08003244:    4770        pG      BX       lr
        0x08003246:    0000        ..      MOVS     r0,r0
    i._printf_core
    _printf_core
        0x08003248:    e92d4fff    -..O    PUSH     {r0-r11,lr}
        0x0800324c:    b095        ..      SUB      sp,sp,#0x54
        0x0800324e:    469b        .F      MOV      r11,r3
        0x08003250:    4689        .F      MOV      r9,r1
        0x08003252:    4606        .F      MOV      r6,r0
        0x08003254:    2500        .%      MOVS     r5,#0
        0x08003256:    e20f        ..      B        0x8003678 ; _printf_core + 1072
        0x08003258:    2825        %(      CMP      r0,#0x25
        0x0800325a:    d177        w.      BNE      0x800334c ; _printf_core + 260
        0x0800325c:    2400        .$      MOVS     r4,#0
        0x0800325e:    4627        'F      MOV      r7,r4
        0x08003260:    4af8        .J      LDR      r2,[pc,#992] ; [0x8003644] = 0x12809
        0x08003262:    2101        .!      MOVS     r1,#1
        0x08003264:    9405        ..      STR      r4,[sp,#0x14]
        0x08003266:    e000        ..      B        0x800326a ; _printf_core + 34
        0x08003268:    4304        .C      ORRS     r4,r4,r0
        0x0800326a:    f8163f01    ...?    LDRB     r3,[r6,#1]!
        0x0800326e:    3b20         ;      SUBS     r3,r3,#0x20
        0x08003270:    fa01f003    ....    LSL      r0,r1,r3
        0x08003274:    4210        .B      TST      r0,r2
        0x08003276:    d1f7        ..      BNE      0x8003268 ; _printf_core + 32
        0x08003278:    7830        0x      LDRB     r0,[r6,#0]
        0x0800327a:    282a        *(      CMP      r0,#0x2a
        0x0800327c:    d011        ..      BEQ      0x80032a2 ; _printf_core + 90
        0x0800327e:    f06f032f    o./.    MVN      r3,#0x2f
        0x08003282:    7830        0x      LDRB     r0,[r6,#0]
        0x08003284:    f1a00230    ..0.    SUB      r2,r0,#0x30
        0x08003288:    2a09        .*      CMP      r2,#9
        0x0800328a:    d816        ..      BHI      0x80032ba ; _printf_core + 114
        0x0800328c:    9a05        ..      LDR      r2,[sp,#0x14]
        0x0800328e:    f0440402    D...    ORR      r4,r4,#2
        0x08003292:    eb020282    ....    ADD      r2,r2,r2,LSL #2
        0x08003296:    eb030242    ..B.    ADD      r2,r3,r2,LSL #1
        0x0800329a:    4410        .D      ADD      r0,r0,r2
        0x0800329c:    1c76        v.      ADDS     r6,r6,#1
        0x0800329e:    9005        ..      STR      r0,[sp,#0x14]
        0x080032a0:    e7ef        ..      B        0x8003282 ; _printf_core + 58
        0x080032a2:    f8592b04    Y..+    LDR      r2,[r9],#4
        0x080032a6:    9205        ..      STR      r2,[sp,#0x14]
        0x080032a8:    2a00        .*      CMP      r2,#0
        0x080032aa:    da03        ..      BGE      0x80032b4 ; _printf_core + 108
        0x080032ac:    4250        PB      RSBS     r0,r2,#0
        0x080032ae:    f4445400    D..T    ORR      r4,r4,#0x2000
        0x080032b2:    9005        ..      STR      r0,[sp,#0x14]
        0x080032b4:    f0440402    D...    ORR      r4,r4,#2
        0x080032b8:    1c76        v.      ADDS     r6,r6,#1
        0x080032ba:    7830        0x      LDRB     r0,[r6,#0]
        0x080032bc:    282e        .(      CMP      r0,#0x2e
        0x080032be:    d116        ..      BNE      0x80032ee ; _printf_core + 166
        0x080032c0:    f8160f01    ....    LDRB     r0,[r6,#1]!
        0x080032c4:    f0440404    D...    ORR      r4,r4,#4
        0x080032c8:    282a        *(      CMP      r0,#0x2a
        0x080032ca:    d00d        ..      BEQ      0x80032e8 ; _printf_core + 160
        0x080032cc:    f06f022f    o./.    MVN      r2,#0x2f
        0x080032d0:    7830        0x      LDRB     r0,[r6,#0]
        0x080032d2:    f1a00330    ..0.    SUB      r3,r0,#0x30
        0x080032d6:    2b09        .+      CMP      r3,#9
        0x080032d8:    d809        ..      BHI      0x80032ee ; _printf_core + 166
        0x080032da:    eb070387    ....    ADD      r3,r7,r7,LSL #2
        0x080032de:    eb020343    ..C.    ADD      r3,r2,r3,LSL #1
        0x080032e2:    18c7        ..      ADDS     r7,r0,r3
        0x080032e4:    1c76        v.      ADDS     r6,r6,#1
        0x080032e6:    e7f3        ..      B        0x80032d0 ; _printf_core + 136
        0x080032e8:    f8597b04    Y..{    LDR      r7,[r9],#4
        0x080032ec:    1c76        v.      ADDS     r6,r6,#1
        0x080032ee:    7830        0x      LDRB     r0,[r6,#0]
        0x080032f0:    286c        l(      CMP      r0,#0x6c
        0x080032f2:    d00f        ..      BEQ      0x8003314 ; _printf_core + 204
        0x080032f4:    dc06        ..      BGT      0x8003304 ; _printf_core + 188
        0x080032f6:    284c        L(      CMP      r0,#0x4c
        0x080032f8:    d017        ..      BEQ      0x800332a ; _printf_core + 226
        0x080032fa:    2868        h(      CMP      r0,#0x68
        0x080032fc:    d00d        ..      BEQ      0x800331a ; _printf_core + 210
        0x080032fe:    286a        j(      CMP      r0,#0x6a
        0x08003300:    d114        ..      BNE      0x800332c ; _printf_core + 228
        0x08003302:    e004        ..      B        0x800330e ; _printf_core + 198
        0x08003304:    2874        t(      CMP      r0,#0x74
        0x08003306:    d010        ..      BEQ      0x800332a ; _printf_core + 226
        0x08003308:    287a        z(      CMP      r0,#0x7a
        0x0800330a:    d10f        ..      BNE      0x800332c ; _printf_core + 228
        0x0800330c:    e00d        ..      B        0x800332a ; _printf_core + 226
        0x0800330e:    f4441400    D...    ORR      r4,r4,#0x200000
        0x08003312:    e00a        ..      B        0x800332a ; _printf_core + 226
        0x08003314:    f4441480    D...    ORR      r4,r4,#0x100000
        0x08003318:    e001        ..      B        0x800331e ; _printf_core + 214
        0x0800331a:    f4441440    D.@.    ORR      r4,r4,#0x300000
        0x0800331e:    7872        rx      LDRB     r2,[r6,#1]
        0x08003320:    4282        .B      CMP      r2,r0
        0x08003322:    d102        ..      BNE      0x800332a ; _printf_core + 226
        0x08003324:    f5041480    ....    ADD      r4,r4,#0x100000
        0x08003328:    1c76        v.      ADDS     r6,r6,#1
        0x0800332a:    1c76        v.      ADDS     r6,r6,#1
        0x0800332c:    7830        0x      LDRB     r0,[r6,#0]
        0x0800332e:    2866        f(      CMP      r0,#0x66
        0x08003330:    d00b        ..      BEQ      0x800334a ; _printf_core + 258
        0x08003332:    dc13        ..      BGT      0x800335c ; _printf_core + 276
        0x08003334:    2858        X(      CMP      r0,#0x58
        0x08003336:    d077        w.      BEQ      0x8003428 ; _printf_core + 480
        0x08003338:    dc09        ..      BGT      0x800334e ; _printf_core + 262
        0x0800333a:    2800        .(      CMP      r0,#0
        0x0800333c:    d075        u.      BEQ      0x800342a ; _printf_core + 482
        0x0800333e:    2845        E(      CMP      r0,#0x45
        0x08003340:    d0f6        ..      BEQ      0x8003330 ; _printf_core + 232
        0x08003342:    2846        F(      CMP      r0,#0x46
        0x08003344:    d0f4        ..      BEQ      0x8003330 ; _printf_core + 232
        0x08003346:    2847        G(      CMP      r0,#0x47
        0x08003348:    d11a        ..      BNE      0x8003380 ; _printf_core + 312
        0x0800334a:    e19d        ..      B        0x8003688 ; _printf_core + 1088
        0x0800334c:    e018        ..      B        0x8003380 ; _printf_core + 312
        0x0800334e:    2863        c(      CMP      r0,#0x63
        0x08003350:    d035        5.      BEQ      0x80033be ; _printf_core + 374
        0x08003352:    2864        d(      CMP      r0,#0x64
        0x08003354:    d079        y.      BEQ      0x800344a ; _printf_core + 514
        0x08003356:    2865        e(      CMP      r0,#0x65
        0x08003358:    d112        ..      BNE      0x8003380 ; _printf_core + 312
        0x0800335a:    e195        ..      B        0x8003688 ; _printf_core + 1088
        0x0800335c:    2870        p(      CMP      r0,#0x70
        0x0800335e:    d073        s.      BEQ      0x8003448 ; _printf_core + 512
        0x08003360:    dc08        ..      BGT      0x8003374 ; _printf_core + 300
        0x08003362:    2867        g(      CMP      r0,#0x67
        0x08003364:    d0f1        ..      BEQ      0x800334a ; _printf_core + 258
        0x08003366:    2869        i(      CMP      r0,#0x69
        0x08003368:    d06f        o.      BEQ      0x800344a ; _printf_core + 514
        0x0800336a:    286e        n(      CMP      r0,#0x6e
        0x0800336c:    d00d        ..      BEQ      0x800338a ; _printf_core + 322
        0x0800336e:    286f        o(      CMP      r0,#0x6f
        0x08003370:    d106        ..      BNE      0x8003380 ; _printf_core + 312
        0x08003372:    e0b5        ..      B        0x80034e0 ; _printf_core + 664
        0x08003374:    2873        s(      CMP      r0,#0x73
        0x08003376:    d02c        ,.      BEQ      0x80033d2 ; _printf_core + 394
        0x08003378:    2875        u(      CMP      r0,#0x75
        0x0800337a:    d075        u.      BEQ      0x8003468 ; _printf_core + 544
        0x0800337c:    2878        x(      CMP      r0,#0x78
        0x0800337e:    d074        t.      BEQ      0x800346a ; _printf_core + 546
        0x08003380:    465a        ZF      MOV      r2,r11
        0x08003382:    9917        ..      LDR      r1,[sp,#0x5c]
        0x08003384:    4790        .G      BLX      r2
        0x08003386:    1c6d        m.      ADDS     r5,r5,#1
        0x08003388:    e175        u.      B        0x8003676 ; _printf_core + 1070
        0x0800338a:    f3c45002    ...P    UBFX     r0,r4,#20,#3
        0x0800338e:    2802        .(      CMP      r0,#2
        0x08003390:    d009        ..      BEQ      0x80033a6 ; _printf_core + 350
        0x08003392:    2803        .(      CMP      r0,#3
        0x08003394:    d00d        ..      BEQ      0x80033b2 ; _printf_core + 362
        0x08003396:    f8d91000    ....    LDR      r1,[r9,#0]
        0x0800339a:    2804        .(      CMP      r0,#4
        0x0800339c:    d00d        ..      BEQ      0x80033ba ; _printf_core + 370
        0x0800339e:    600d        .`      STR      r5,[r1,#0]
        0x080033a0:    f1090904    ....    ADD      r9,r9,#4
        0x080033a4:    e167        g.      B        0x8003676 ; _printf_core + 1070
        0x080033a6:    f8d91000    ....    LDR      r1,[r9,#0]
        0x080033aa:    17ea        ..      ASRS     r2,r5,#31
        0x080033ac:    e9c15200    ...R    STRD     r5,r2,[r1,#0]
        0x080033b0:    e7f6        ..      B        0x80033a0 ; _printf_core + 344
        0x080033b2:    f8d91000    ....    LDR      r1,[r9,#0]
        0x080033b6:    800d        ..      STRH     r5,[r1,#0]
        0x080033b8:    e7f2        ..      B        0x80033a0 ; _printf_core + 344
        0x080033ba:    700d        .p      STRB     r5,[r1,#0]
        0x080033bc:    e7f0        ..      B        0x80033a0 ; _printf_core + 344
        0x080033be:    f8191b04    ....    LDRB     r1,[r9],#4
        0x080033c2:    f88d1000    ....    STRB     r1,[sp,#0]
        0x080033c6:    2000        .       MOVS     r0,#0
        0x080033c8:    f88d0001    ....    STRB     r0,[sp,#1]
        0x080033cc:    46ea        .F      MOV      r10,sp
        0x080033ce:    2001        .       MOVS     r0,#1
        0x080033d0:    e003        ..      B        0x80033da ; _printf_core + 402
        0x080033d2:    f859ab04    Y...    LDR      r10,[r9],#4
        0x080033d6:    f04f30ff    O..0    MOV      r0,#0xffffffff
        0x080033da:    0761        a.      LSLS     r1,r4,#29
        0x080033dc:    f04f0100    O...    MOV      r1,#0
        0x080033e0:    d402        ..      BMI      0x80033e8 ; _printf_core + 416
        0x080033e2:    e00d        ..      B        0x8003400 ; _printf_core + 440
        0x080033e4:    f1080101    ....    ADD      r1,r8,#1
        0x080033e8:    4688        .F      MOV      r8,r1
        0x080033ea:    42b9        .B      CMP      r1,r7
        0x080033ec:    da0f        ..      BGE      0x800340e ; _printf_core + 454
        0x080033ee:    4580        .E      CMP      r8,r0
        0x080033f0:    dbf8        ..      BLT      0x80033e4 ; _printf_core + 412
        0x080033f2:    f81a1008    ....    LDRB     r1,[r10,r8]
        0x080033f6:    2900        .)      CMP      r1,#0
        0x080033f8:    d1f4        ..      BNE      0x80033e4 ; _printf_core + 412
        0x080033fa:    e008        ..      B        0x800340e ; _printf_core + 454
        0x080033fc:    f1080101    ....    ADD      r1,r8,#1
        0x08003400:    4688        .F      MOV      r8,r1
        0x08003402:    4281        .B      CMP      r1,r0
        0x08003404:    dbfa        ..      BLT      0x80033fc ; _printf_core + 436
        0x08003406:    f81a1008    ....    LDRB     r1,[r10,r8]
        0x0800340a:    2900        .)      CMP      r1,#0
        0x0800340c:    d1f6        ..      BNE      0x80033fc ; _printf_core + 436
        0x0800340e:    9805        ..      LDR      r0,[sp,#0x14]
        0x08003410:    465b        [F      MOV      r3,r11
        0x08003412:    eba00708    ....    SUB      r7,r0,r8
        0x08003416:    4621        !F      MOV      r1,r4
        0x08003418:    4638        8F      MOV      r0,r7
        0x0800341a:    9a17        ..      LDR      r2,[sp,#0x5c]
        0x0800341c:    f000fa94    ....    BL       _printf_pre_padding ; 0x8003948
        0x08003420:    4428        (D      ADD      r0,r0,r5
        0x08003422:    eb000508    ....    ADD      r5,r0,r8
        0x08003426:    e007        ..      B        0x8003438 ; _printf_core + 496
        0x08003428:    e04d        M.      B        0x80034c6 ; _printf_core + 638
        0x0800342a:    e129        ).      B        0x8003680 ; _printf_core + 1080
        0x0800342c:    e00d        ..      B        0x800344a ; _printf_core + 514
        0x0800342e:    f81a0b01    ....    LDRB     r0,[r10],#1
        0x08003432:    465a        ZF      MOV      r2,r11
        0x08003434:    9917        ..      LDR      r1,[sp,#0x5c]
        0x08003436:    4790        .G      BLX      r2
        0x08003438:    f1b80801    ....    SUBS     r8,r8,#1
        0x0800343c:    d2f7        ..      BCS      0x800342e ; _printf_core + 486
        0x0800343e:    465b        [F      MOV      r3,r11
        0x08003440:    4621        !F      MOV      r1,r4
        0x08003442:    4638        8F      MOV      r0,r7
        0x08003444:    9a17        ..      LDR      r2,[sp,#0x5c]
        0x08003446:    e113        ..      B        0x8003670 ; _printf_core + 1064
        0x08003448:    e042        B.      B        0x80034d0 ; _printf_core + 648
        0x0800344a:    220a        ."      MOVS     r2,#0xa
        0x0800344c:    9200        ..      STR      r2,[sp,#0]
        0x0800344e:    f3c45202    ...R    UBFX     r2,r4,#20,#3
        0x08003452:    f04f0a00    O...    MOV      r10,#0
        0x08003456:    2a02        .*      CMP      r2,#2
        0x08003458:    d008        ..      BEQ      0x800346c ; _printf_core + 548
        0x0800345a:    f859cb04    Y...    LDR      r12,[r9],#4
        0x0800345e:    2a03        .*      CMP      r2,#3
        0x08003460:    ea4f71ec    O..q    ASR      r1,r12,#31
        0x08003464:    d00a        ..      BEQ      0x800347c ; _printf_core + 564
        0x08003466:    e00d        ..      B        0x8003484 ; _printf_core + 572
        0x08003468:    e029        ).      B        0x80034be ; _printf_core + 630
        0x0800346a:    e02a        *.      B        0x80034c2 ; _printf_core + 634
        0x0800346c:    f1090107    ....    ADD      r1,r9,#7
        0x08003470:    f0210207    !...    BIC      r2,r1,#7
        0x08003474:    e8f2c102    ....    LDRD     r12,r1,[r2],#8
        0x08003478:    4691        .F      MOV      r9,r2
        0x0800347a:    e009        ..      B        0x8003490 ; _printf_core + 584
        0x0800347c:    fa0ffc8c    ....    SXTH     r12,r12
        0x08003480:    ea4f71ec    O..q    ASR      r1,r12,#31
        0x08003484:    2a04        .*      CMP      r2,#4
        0x08003486:    d103        ..      BNE      0x8003490 ; _printf_core + 584
        0x08003488:    fa4ffc8c    O...    SXTB     r12,r12
        0x0800348c:    ea4f71ec    O..q    ASR      r1,r12,#31
        0x08003490:    2900        .)      CMP      r1,#0
        0x08003492:    da07        ..      BGE      0x80034a4 ; _printf_core + 604
        0x08003494:    460a        .F      MOV      r2,r1
        0x08003496:    2100        .!      MOVS     r1,#0
        0x08003498:    f1dc0c00    ....    RSBS     r12,r12,#0
        0x0800349c:    eb610102    a...    SBC      r1,r1,r2
        0x080034a0:    222d        -"      MOVS     r2,#0x2d
        0x080034a2:    e002        ..      B        0x80034aa ; _printf_core + 610
        0x080034a4:    0522        ".      LSLS     r2,r4,#20
        0x080034a6:    d504        ..      BPL      0x80034b2 ; _printf_core + 618
        0x080034a8:    222b        +"      MOVS     r2,#0x2b
        0x080034aa:    f88d2004    ...     STRB     r2,[sp,#4]
        0x080034ae:    2201        ."      MOVS     r2,#1
        0x080034b0:    e003        ..      B        0x80034ba ; _printf_core + 626
        0x080034b2:    07e2        ..      LSLS     r2,r4,#31
        0x080034b4:    d001        ..      BEQ      0x80034ba ; _printf_core + 626
        0x080034b6:    2220         "      MOVS     r2,#0x20
        0x080034b8:    e7f7        ..      B        0x80034aa ; _printf_core + 610
        0x080034ba:    4690        .F      MOV      r8,r2
        0x080034bc:    e059        Y.      B        0x8003572 ; _printf_core + 810
        0x080034be:    210a        .!      MOVS     r1,#0xa
        0x080034c0:    e002        ..      B        0x80034c8 ; _printf_core + 640
        0x080034c2:    2210        ."      MOVS     r2,#0x10
        0x080034c4:    e00d        ..      B        0x80034e2 ; _printf_core + 666
        0x080034c6:    2110        .!      MOVS     r1,#0x10
        0x080034c8:    f04f0a00    O...    MOV      r10,#0
        0x080034cc:    9100        ..      STR      r1,[sp,#0]
        0x080034ce:    e00b        ..      B        0x80034e8 ; _printf_core + 672
        0x080034d0:    2210        ."      MOVS     r2,#0x10
        0x080034d2:    f04f0a00    O...    MOV      r10,#0
        0x080034d6:    f0440404    D...    ORR      r4,r4,#4
        0x080034da:    2708        .'      MOVS     r7,#8
        0x080034dc:    9200        ..      STR      r2,[sp,#0]
        0x080034de:    e003        ..      B        0x80034e8 ; _printf_core + 672
        0x080034e0:    2208        ."      MOVS     r2,#8
        0x080034e2:    f04f0a00    O...    MOV      r10,#0
        0x080034e6:    9200        ..      STR      r2,[sp,#0]
        0x080034e8:    f3c45202    ...R    UBFX     r2,r4,#20,#3
        0x080034ec:    2a02        .*      CMP      r2,#2
        0x080034ee:    d005        ..      BEQ      0x80034fc ; _printf_core + 692
        0x080034f0:    f859cb04    Y...    LDR      r12,[r9],#4
        0x080034f4:    2100        .!      MOVS     r1,#0
        0x080034f6:    2a03        .*      CMP      r2,#3
        0x080034f8:    d008        ..      BEQ      0x800350c ; _printf_core + 708
        0x080034fa:    e009        ..      B        0x8003510 ; _printf_core + 712
        0x080034fc:    f1090107    ....    ADD      r1,r9,#7
        0x08003500:    f0210207    !...    BIC      r2,r1,#7
        0x08003504:    e8f2c102    ....    LDRD     r12,r1,[r2],#8
        0x08003508:    4691        .F      MOV      r9,r2
        0x0800350a:    e005        ..      B        0x8003518 ; _printf_core + 720
        0x0800350c:    fa1ffc8c    ....    UXTH     r12,r12
        0x08003510:    2a04        .*      CMP      r2,#4
        0x08003512:    d101        ..      BNE      0x8003518 ; _printf_core + 720
        0x08003514:    f00c0cff    ....    AND      r12,r12,#0xff
        0x08003518:    f04f0800    O...    MOV      r8,#0
        0x0800351c:    0722        ".      LSLS     r2,r4,#28
        0x0800351e:    d528        (.      BPL      0x8003572 ; _printf_core + 810
        0x08003520:    2870        p(      CMP      r0,#0x70
        0x08003522:    d006        ..      BEQ      0x8003532 ; _printf_core + 746
        0x08003524:    9b00        ..      LDR      r3,[sp,#0]
        0x08003526:    f0830310    ....    EOR      r3,r3,#0x10
        0x0800352a:    ea53030a    S...    ORRS     r3,r3,r10
        0x0800352e:    d005        ..      BEQ      0x800353c ; _printf_core + 756
        0x08003530:    e00e        ..      B        0x8003550 ; _printf_core + 776
        0x08003532:    2240        @"      MOVS     r2,#0x40
        0x08003534:    f88d2004    ...     STRB     r2,[sp,#4]
        0x08003538:    2201        ."      MOVS     r2,#1
        0x0800353a:    e008        ..      B        0x800354e ; _printf_core + 774
        0x0800353c:    ea5c0201    \...    ORRS     r2,r12,r1
        0x08003540:    d006        ..      BEQ      0x8003550 ; _printf_core + 776
        0x08003542:    2230        0"      MOVS     r2,#0x30
        0x08003544:    f88d2004    ...     STRB     r2,[sp,#4]
        0x08003548:    f88d0005    ....    STRB     r0,[sp,#5]
        0x0800354c:    2202        ."      MOVS     r2,#2
        0x0800354e:    4690        .F      MOV      r8,r2
        0x08003550:    9b00        ..      LDR      r3,[sp,#0]
        0x08003552:    f0830308    ....    EOR      r3,r3,#8
        0x08003556:    ea53030a    S...    ORRS     r3,r3,r10
        0x0800355a:    d10a        ..      BNE      0x8003572 ; _printf_core + 810
        0x0800355c:    ea5c0201    \...    ORRS     r2,r12,r1
        0x08003560:    d101        ..      BNE      0x8003566 ; _printf_core + 798
        0x08003562:    0762        b.      LSLS     r2,r4,#29
        0x08003564:    d505        ..      BPL      0x8003572 ; _printf_core + 810
        0x08003566:    2230        0"      MOVS     r2,#0x30
        0x08003568:    f88d2004    ...     STRB     r2,[sp,#4]
        0x0800356c:    f04f0801    O...    MOV      r8,#1
        0x08003570:    1e7f        ..      SUBS     r7,r7,#1
        0x08003572:    2858        X(      CMP      r0,#0x58
        0x08003574:    d004        ..      BEQ      0x8003580 ; _printf_core + 824
        0x08003576:    a034        4.      ADR      r0,{pc}+0xd2 ; 0x8003648
        0x08003578:    9003        ..      STR      r0,[sp,#0xc]
        0x0800357a:    a80e        ..      ADD      r0,sp,#0x38
        0x0800357c:    9002        ..      STR      r0,[sp,#8]
        0x0800357e:    e00d        ..      B        0x800359c ; _printf_core + 852
        0x08003580:    a036        6.      ADR      r0,{pc}+0xdc ; 0x800365c
        0x08003582:    e7f9        ..      B        0x8003578 ; _printf_core + 816
        0x08003584:    4653        SF      MOV      r3,r10
        0x08003586:    4660        `F      MOV      r0,r12
        0x08003588:    9a00        ..      LDR      r2,[sp,#0]
        0x0800358a:    f7fdf86f    ..o.    BL       __aeabi_uldivmod ; 0x800066c
        0x0800358e:    4684        .F      MOV      r12,r0
        0x08003590:    9803        ..      LDR      r0,[sp,#0xc]
        0x08003592:    5c82        .\      LDRB     r2,[r0,r2]
        0x08003594:    9802        ..      LDR      r0,[sp,#8]
        0x08003596:    1e40        @.      SUBS     r0,r0,#1
        0x08003598:    9002        ..      STR      r0,[sp,#8]
        0x0800359a:    7002        .p      STRB     r2,[r0,#0]
        0x0800359c:    ea5c0001    \...    ORRS     r0,r12,r1
        0x080035a0:    d1f0        ..      BNE      0x8003584 ; _printf_core + 828
        0x080035a2:    9802        ..      LDR      r0,[sp,#8]
        0x080035a4:    a906        ..      ADD      r1,sp,#0x18
        0x080035a6:    1a08        ..      SUBS     r0,r1,r0
        0x080035a8:    f1000a20    .. .    ADD      r10,r0,#0x20
        0x080035ac:    0760        `.      LSLS     r0,r4,#29
        0x080035ae:    d502        ..      BPL      0x80035b6 ; _printf_core + 878
        0x080035b0:    f4243480    $..4    BIC      r4,r4,#0x10000
        0x080035b4:    e000        ..      B        0x80035b8 ; _printf_core + 880
        0x080035b6:    2701        .'      MOVS     r7,#1
        0x080035b8:    4557        WE      CMP      r7,r10
        0x080035ba:    dd02        ..      BLE      0x80035c2 ; _printf_core + 890
        0x080035bc:    eba7000a    ....    SUB      r0,r7,r10
        0x080035c0:    e000        ..      B        0x80035c4 ; _printf_core + 892
        0x080035c2:    2000        .       MOVS     r0,#0
        0x080035c4:    eb00010a    ....    ADD      r1,r0,r10
        0x080035c8:    9000        ..      STR      r0,[sp,#0]
        0x080035ca:    9805        ..      LDR      r0,[sp,#0x14]
        0x080035cc:    4441        AD      ADD      r1,r1,r8
        0x080035ce:    1a40        @.      SUBS     r0,r0,r1
        0x080035d0:    9005        ..      STR      r0,[sp,#0x14]
        0x080035d2:    03e0        ..      LSLS     r0,r4,#15
        0x080035d4:    d406        ..      BMI      0x80035e4 ; _printf_core + 924
        0x080035d6:    465b        [F      MOV      r3,r11
        0x080035d8:    4621        !F      MOV      r1,r4
        0x080035da:    9a17        ..      LDR      r2,[sp,#0x5c]
        0x080035dc:    9805        ..      LDR      r0,[sp,#0x14]
        0x080035de:    f000f9b3    ....    BL       _printf_pre_padding ; 0x8003948
        0x080035e2:    4405        .D      ADD      r5,r5,r0
        0x080035e4:    2700        .'      MOVS     r7,#0
        0x080035e6:    e006        ..      B        0x80035f6 ; _printf_core + 942
        0x080035e8:    a801        ..      ADD      r0,sp,#4
        0x080035ea:    465a        ZF      MOV      r2,r11
        0x080035ec:    5dc0        .]      LDRB     r0,[r0,r7]
        0x080035ee:    9917        ..      LDR      r1,[sp,#0x5c]
        0x080035f0:    4790        .G      BLX      r2
        0x080035f2:    1c6d        m.      ADDS     r5,r5,#1
        0x080035f4:    1c7f        ..      ADDS     r7,r7,#1
        0x080035f6:    4547        GE      CMP      r7,r8
        0x080035f8:    dbf6        ..      BLT      0x80035e8 ; _printf_core + 928
        0x080035fa:    03e0        ..      LSLS     r0,r4,#15
        0x080035fc:    d50c        ..      BPL      0x8003618 ; _printf_core + 976
        0x080035fe:    465b        [F      MOV      r3,r11
        0x08003600:    4621        !F      MOV      r1,r4
        0x08003602:    9a17        ..      LDR      r2,[sp,#0x5c]
        0x08003604:    9805        ..      LDR      r0,[sp,#0x14]
        0x08003606:    f000f99f    ....    BL       _printf_pre_padding ; 0x8003948
        0x0800360a:    4405        .D      ADD      r5,r5,r0
        0x0800360c:    e004        ..      B        0x8003618 ; _printf_core + 976
        0x0800360e:    2030        0       MOVS     r0,#0x30
        0x08003610:    465a        ZF      MOV      r2,r11
        0x08003612:    9917        ..      LDR      r1,[sp,#0x5c]
        0x08003614:    4790        .G      BLX      r2
        0x08003616:    1c6d        m.      ADDS     r5,r5,#1
        0x08003618:    9900        ..      LDR      r1,[sp,#0]
        0x0800361a:    1e48        H.      SUBS     r0,r1,#1
        0x0800361c:    9000        ..      STR      r0,[sp,#0]
        0x0800361e:    2900        .)      CMP      r1,#0
        0x08003620:    dcf5        ..      BGT      0x800360e ; _printf_core + 966
        0x08003622:    e008        ..      B        0x8003636 ; _printf_core + 1006
        0x08003624:    9802        ..      LDR      r0,[sp,#8]
        0x08003626:    9902        ..      LDR      r1,[sp,#8]
        0x08003628:    465a        ZF      MOV      r2,r11
        0x0800362a:    7800        .x      LDRB     r0,[r0,#0]
        0x0800362c:    1c49        I.      ADDS     r1,r1,#1
        0x0800362e:    9102        ..      STR      r1,[sp,#8]
        0x08003630:    9917        ..      LDR      r1,[sp,#0x5c]
        0x08003632:    4790        .G      BLX      r2
        0x08003634:    1c6d        m.      ADDS     r5,r5,#1
        0x08003636:    f1ba0100    ....    SUBS     r1,r10,#0
        0x0800363a:    f1aa0a01    ....    SUB      r10,r10,#1
        0x0800363e:    dcf1        ..      BGT      0x8003624 ; _printf_core + 988
        0x08003640:    e165        e.      B        0x800390e ; _printf_core + 1734
    $d
        0x08003642:    0000        ..      DCW    0
        0x08003644:    00012809    .(..    DCD    75785
        0x08003648:    33323130    0123    DCD    858927408
        0x0800364c:    37363534    4567    DCD    926299444
        0x08003650:    62613938    89ab    DCD    1650538808
        0x08003654:    66656463    cdef    DCD    1717920867
        0x08003658:    00000000    ....    DCD    0
        0x0800365c:    33323130    0123    DCD    858927408
        0x08003660:    37363534    4567    DCD    926299444
        0x08003664:    42413938    89AB    DCD    1111570744
        0x08003668:    46454443    CDEF    DCD    1178944579
        0x0800366c:    00000000    ....    DCD    0
    $t
        0x08003670:    f000f958    ..X.    BL       _printf_post_padding ; 0x8003924
        0x08003674:    4405        .D      ADD      r5,r5,r0
        0x08003676:    1c76        v.      ADDS     r6,r6,#1
        0x08003678:    7830        0x      LDRB     r0,[r6,#0]
        0x0800367a:    2800        .(      CMP      r0,#0
        0x0800367c:    f47fadec    ....    BNE      0x8003258 ; _printf_core + 16
        0x08003680:    b019        ..      ADD      sp,sp,#0x64
        0x08003682:    4628        (F      MOV      r0,r5
        0x08003684:    e8bd8ff0    ....    POP      {r4-r11,pc}
        0x08003688:    0762        b.      LSLS     r2,r4,#29
        0x0800368a:    d400        ..      BMI      0x800368e ; _printf_core + 1094
        0x0800368c:    2706        .'      MOVS     r7,#6
        0x0800368e:    f1090207    ....    ADD      r2,r9,#7
        0x08003692:    f0220c07    "...    BIC      r12,r2,#7
        0x08003696:    e8fc2302    ...#    LDRD     r2,r3,[r12],#8
        0x0800369a:    46e1        .F      MOV      r9,r12
        0x0800369c:    f0034800    ...H    AND      r8,r3,#0x80000000
        0x080036a0:    ea5f0c08    _...    MOVS     r12,r8
        0x080036a4:    d002        ..      BEQ      0x80036ac ; _printf_core + 1124
        0x080036a6:    f20f2c70    ..p,    ADR.W    r12,{pc}+0x272 ; 0x8003918
        0x080036aa:    e00d        ..      B        0x80036c8 ; _printf_core + 1152
        0x080036ac:    ea5f5c04    _..\    LSLS     r12,r4,#20
        0x080036b0:    d502        ..      BPL      0x80036b8 ; _printf_core + 1136
        0x080036b2:    f20f2c68    ..h,    ADR.W    r12,{pc}+0x26a ; 0x800391c
        0x080036b6:    e007        ..      B        0x80036c8 ; _printf_core + 1152
        0x080036b8:    ea5f7cc4    _..|    LSLS     r12,r4,#31
        0x080036bc:    d002        ..      BEQ      0x80036c4 ; _printf_core + 1148
        0x080036be:    f20f2c60    ..`,    ADR.W    r12,{pc}+0x262 ; 0x8003920
        0x080036c2:    e001        ..      B        0x80036c8 ; _printf_core + 1152
        0x080036c4:    f2af0c70    ..p.    ADR      r12,{pc}-0x6c ; 0x8003658
        0x080036c8:    f04f38ff    O..8    MOV      r8,#0xffffffff
        0x080036cc:    f0234300    #..C    BIC      r3,r3,#0x80000000
        0x080036d0:    f8cdc050    ..P.    STR      r12,[sp,#0x50]
        0x080036d4:    2865        e(      CMP      r0,#0x65
        0x080036d6:    d00c        ..      BEQ      0x80036f2 ; _printf_core + 1194
        0x080036d8:    dc06        ..      BGT      0x80036e8 ; _printf_core + 1184
        0x080036da:    2845        E(      CMP      r0,#0x45
        0x080036dc:    d009        ..      BEQ      0x80036f2 ; _printf_core + 1194
        0x080036de:    2846        F(      CMP      r0,#0x46
        0x080036e0:    d01d        ..      BEQ      0x800371e ; _printf_core + 1238
        0x080036e2:    2847        G(      CMP      r0,#0x47
        0x080036e4:    d13d        =.      BNE      0x8003762 ; _printf_core + 1306
        0x080036e6:    e03d        =.      B        0x8003764 ; _printf_core + 1308
        0x080036e8:    2866        f(      CMP      r0,#0x66
        0x080036ea:    d018        ..      BEQ      0x800371e ; _printf_core + 1238
        0x080036ec:    2867        g(      CMP      r0,#0x67
        0x080036ee:    d17e        ~.      BNE      0x80037ee ; _printf_core + 1446
        0x080036f0:    e038        8.      B        0x8003764 ; _printf_core + 1308
        0x080036f2:    2100        .!      MOVS     r1,#0
        0x080036f4:    2f11        ./      CMP      r7,#0x11
        0x080036f6:    db01        ..      BLT      0x80036fc ; _printf_core + 1204
        0x080036f8:    2011        .       MOVS     r0,#0x11
        0x080036fa:    e000        ..      B        0x80036fe ; _printf_core + 1206
        0x080036fc:    1c78        x.      ADDS     r0,r7,#1
        0x080036fe:    e9cd0100    ....    STRD     r0,r1,[sp,#0]
        0x08003702:    a906        ..      ADD      r1,sp,#0x18
        0x08003704:    a80e        ..      ADD      r0,sp,#0x38
        0x08003706:    f7fffcd5    ....    BL       _fp_digits ; 0x80030b4
        0x0800370a:    e9dd010f    ....    LDRD     r0,r1,[sp,#0x3c]
        0x0800370e:    9a0e        ..      LDR      r2,[sp,#0x38]
        0x08003710:    9103        ..      STR      r1,[sp,#0xc]
        0x08003712:    2100        .!      MOVS     r1,#0
        0x08003714:    9200        ..      STR      r2,[sp,#0]
        0x08003716:    f1070a01    ....    ADD      r10,r7,#1
        0x0800371a:    9104        ..      STR      r1,[sp,#0x10]
        0x0800371c:    e04d        M.      B        0x80037ba ; _printf_core + 1394
        0x0800371e:    f04f4000    O..@    MOV      r0,#0x80000000
        0x08003722:    9700        ..      STR      r7,[sp,#0]
        0x08003724:    e9cd1001    ....    STRD     r1,r0,[sp,#4]
        0x08003728:    a906        ..      ADD      r1,sp,#0x18
        0x0800372a:    a80e        ..      ADD      r0,sp,#0x38
        0x0800372c:    f7fffcc2    ....    BL       _fp_digits ; 0x80030b4
        0x08003730:    e9dd020f    ....    LDRD     r0,r2,[sp,#0x3c]
        0x08003734:    9203        ..      STR      r2,[sp,#0xc]
        0x08003736:    9b0e        ..      LDR      r3,[sp,#0x38]
        0x08003738:    9911        ..      LDR      r1,[sp,#0x44]
        0x0800373a:    2200        ."      MOVS     r2,#0
        0x0800373c:    f8dda00c    ....    LDR      r10,[sp,#0xc]
        0x08003740:    9300        ..      STR      r3,[sp,#0]
        0x08003742:    9204        ..      STR      r2,[sp,#0x10]
        0x08003744:    b911        ..      CBNZ     r1,0x800374c ; _printf_core + 1284
        0x08003746:    1c79        y.      ADDS     r1,r7,#1
        0x08003748:    eb000a01    ....    ADD      r10,r0,r1
        0x0800374c:    ebb7000a    ....    SUBS     r0,r7,r10
        0x08003750:    d404        ..      BMI      0x800375c ; _printf_core + 1300
        0x08003752:    f1c030ff    ...0    RSB      r0,r0,#0xffffffff
        0x08003756:    f1070a01    ....    ADD      r10,r7,#1
        0x0800375a:    9004        ..      STR      r0,[sp,#0x10]
        0x0800375c:    ebaa0007    ....    SUB      r0,r10,r7
        0x08003760:    9001        ..      STR      r0,[sp,#4]
        0x08003762:    e044        D.      B        0x80037ee ; _printf_core + 1446
        0x08003764:    2f01        ./      CMP      r7,#1
        0x08003766:    da00        ..      BGE      0x800376a ; _printf_core + 1314
        0x08003768:    2701        .'      MOVS     r7,#1
        0x0800376a:    2100        .!      MOVS     r1,#0
        0x0800376c:    2f11        ./      CMP      r7,#0x11
        0x0800376e:    dd01        ..      BLE      0x8003774 ; _printf_core + 1324
        0x08003770:    2011        .       MOVS     r0,#0x11
        0x08003772:    e000        ..      B        0x8003776 ; _printf_core + 1326
        0x08003774:    4638        8F      MOV      r0,r7
        0x08003776:    e9cd0100    ....    STRD     r0,r1,[sp,#0]
        0x0800377a:    a906        ..      ADD      r1,sp,#0x18
        0x0800377c:    a80e        ..      ADD      r0,sp,#0x38
        0x0800377e:    f7fffc99    ....    BL       _fp_digits ; 0x80030b4
        0x08003782:    e9dd010f    ....    LDRD     r0,r1,[sp,#0x3c]
        0x08003786:    9a0e        ..      LDR      r2,[sp,#0x38]
        0x08003788:    9103        ..      STR      r1,[sp,#0xc]
        0x0800378a:    2100        .!      MOVS     r1,#0
        0x0800378c:    9104        ..      STR      r1,[sp,#0x10]
        0x0800378e:    9200        ..      STR      r2,[sp,#0]
        0x08003790:    46ba        .F      MOV      r10,r7
        0x08003792:    0721        !.      LSLS     r1,r4,#28
        0x08003794:    d40c        ..      BMI      0x80037b0 ; _printf_core + 1384
        0x08003796:    9903        ..      LDR      r1,[sp,#0xc]
        0x08003798:    4551        QE      CMP      r1,r10
        0x0800379a:    da00        ..      BGE      0x800379e ; _printf_core + 1366
        0x0800379c:    468a        .F      MOV      r10,r1
        0x0800379e:    f1ba0f01    ....    CMP      r10,#1
        0x080037a2:    dd05        ..      BLE      0x80037b0 ; _printf_core + 1384
        0x080037a4:    9a00        ..      LDR      r2,[sp,#0]
        0x080037a6:    f1aa0101    ....    SUB      r1,r10,#1
        0x080037aa:    5c51        Q\      LDRB     r1,[r2,r1]
        0x080037ac:    2930        0)      CMP      r1,#0x30
        0x080037ae:    d008        ..      BEQ      0x80037c2 ; _printf_core + 1402
        0x080037b0:    42b8        .B      CMP      r0,r7
        0x080037b2:    da02        ..      BGE      0x80037ba ; _printf_core + 1394
        0x080037b4:    f1100f04    ....    CMN      r0,#4
        0x080037b8:    da06        ..      BGE      0x80037c8 ; _printf_core + 1408
        0x080037ba:    2101        .!      MOVS     r1,#1
        0x080037bc:    e9cd1001    ....    STRD     r1,r0,[sp,#4]
        0x080037c0:    e015        ..      B        0x80037ee ; _printf_core + 1446
        0x080037c2:    f1aa0101    ....    SUB      r1,r10,#1
        0x080037c6:    e7e9        ..      B        0x800379c ; _printf_core + 1364
        0x080037c8:    2800        .(      CMP      r0,#0
        0x080037ca:    dc05        ..      BGT      0x80037d8 ; _printf_core + 1424
        0x080037cc:    9904        ..      LDR      r1,[sp,#0x10]
        0x080037ce:    4401        .D      ADD      r1,r1,r0
        0x080037d0:    9104        ..      STR      r1,[sp,#0x10]
        0x080037d2:    ebaa0100    ....    SUB      r1,r10,r0
        0x080037d6:    e002        ..      B        0x80037de ; _printf_core + 1430
        0x080037d8:    1c41        A.      ADDS     r1,r0,#1
        0x080037da:    4551        QE      CMP      r1,r10
        0x080037dc:    dd00        ..      BLE      0x80037e0 ; _printf_core + 1432
        0x080037de:    468a        .F      MOV      r10,r1
        0x080037e0:    9904        ..      LDR      r1,[sp,#0x10]
        0x080037e2:    1a40        @.      SUBS     r0,r0,r1
        0x080037e4:    1c40        @.      ADDS     r0,r0,#1
        0x080037e6:    9001        ..      STR      r0,[sp,#4]
        0x080037e8:    f04f4000    O..@    MOV      r0,#0x80000000
        0x080037ec:    9002        ..      STR      r0,[sp,#8]
        0x080037ee:    0720         .      LSLS     r0,r4,#28
        0x080037f0:    d404        ..      BMI      0x80037fc ; _printf_core + 1460
        0x080037f2:    9801        ..      LDR      r0,[sp,#4]
        0x080037f4:    4550        PE      CMP      r0,r10
        0x080037f6:    db01        ..      BLT      0x80037fc ; _printf_core + 1460
        0x080037f8:    f8cd8004    ....    STR      r8,[sp,#4]
        0x080037fc:    2000        .       MOVS     r0,#0
        0x080037fe:    f88d004f    ..O.    STRB     r0,[sp,#0x4f]
        0x08003802:    9802        ..      LDR      r0,[sp,#8]
        0x08003804:    f10d074f    ..O.    ADD      r7,sp,#0x4f
        0x08003808:    f1b04f00    ...O    CMP      r0,#0x80000000
        0x0800380c:    d025        %.      BEQ      0x800385a ; _printf_core + 1554
        0x0800380e:    202b        +       MOVS     r0,#0x2b
        0x08003810:    900e        ..      STR      r0,[sp,#0x38]
        0x08003812:    9802        ..      LDR      r0,[sp,#8]
        0x08003814:    f04f0802    O...    MOV      r8,#2
        0x08003818:    2800        .(      CMP      r0,#0
        0x0800381a:    da0c        ..      BGE      0x8003836 ; _printf_core + 1518
        0x0800381c:    4240        @B      RSBS     r0,r0,#0
        0x0800381e:    9002        ..      STR      r0,[sp,#8]
        0x08003820:    202d        -       MOVS     r0,#0x2d
        0x08003822:    900e        ..      STR      r0,[sp,#0x38]
        0x08003824:    e007        ..      B        0x8003836 ; _printf_core + 1518
        0x08003826:    210a        .!      MOVS     r1,#0xa
        0x08003828:    9802        ..      LDR      r0,[sp,#8]
        0x0800382a:    f7fcff09    ....    BL       __aeabi_uidiv ; 0x8000640
        0x0800382e:    3130        01      ADDS     r1,r1,#0x30
        0x08003830:    9002        ..      STR      r0,[sp,#8]
        0x08003832:    f8071d01    ....    STRB     r1,[r7,#-1]!
        0x08003836:    f1b80100    ....    SUBS     r1,r8,#0
        0x0800383a:    f1a80801    ....    SUB      r8,r8,#1
        0x0800383e:    dcf2        ..      BGT      0x8003826 ; _printf_core + 1502
        0x08003840:    9802        ..      LDR      r0,[sp,#8]
        0x08003842:    2800        .(      CMP      r0,#0
        0x08003844:    d1ef        ..      BNE      0x8003826 ; _printf_core + 1502
        0x08003846:    1e79        y.      SUBS     r1,r7,#1
        0x08003848:    980e        ..      LDR      r0,[sp,#0x38]
        0x0800384a:    7008        .p      STRB     r0,[r1,#0]
        0x0800384c:    7830        0x      LDRB     r0,[r6,#0]
        0x0800384e:    f0000020    .. .    AND      r0,r0,#0x20
        0x08003852:    f0400045    @.E.    ORR      r0,r0,#0x45
        0x08003856:    f8070d02    ....    STRB     r0,[r7,#-2]!
        0x0800385a:    a812        ..      ADD      r0,sp,#0x48
        0x0800385c:    1bc0        ..      SUBS     r0,r0,r7
        0x0800385e:    f1000807    ....    ADD      r8,r0,#7
        0x08003862:    9814        ..      LDR      r0,[sp,#0x50]
        0x08003864:    7800        .x      LDRB     r0,[r0,#0]
        0x08003866:    b100        ..      CBZ      r0,0x800386a ; _printf_core + 1570
        0x08003868:    2001        .       MOVS     r0,#1
        0x0800386a:    eb00010a    ....    ADD      r1,r0,r10
        0x0800386e:    9801        ..      LDR      r0,[sp,#4]
        0x08003870:    eb0171e0    ...q    ADD      r1,r1,r0,ASR #31
        0x08003874:    9805        ..      LDR      r0,[sp,#0x14]
        0x08003876:    4441        AD      ADD      r1,r1,r8
        0x08003878:    1a40        @.      SUBS     r0,r0,r1
        0x0800387a:    1e40        @.      SUBS     r0,r0,#1
        0x0800387c:    9005        ..      STR      r0,[sp,#0x14]
        0x0800387e:    03e0        ..      LSLS     r0,r4,#15
        0x08003880:    d406        ..      BMI      0x8003890 ; _printf_core + 1608
        0x08003882:    465b        [F      MOV      r3,r11
        0x08003884:    4621        !F      MOV      r1,r4
        0x08003886:    9a17        ..      LDR      r2,[sp,#0x5c]
        0x08003888:    9805        ..      LDR      r0,[sp,#0x14]
        0x0800388a:    f000f85d    ..].    BL       _printf_pre_padding ; 0x8003948
        0x0800388e:    4405        .D      ADD      r5,r5,r0
        0x08003890:    9814        ..      LDR      r0,[sp,#0x50]
        0x08003892:    7800        .x      LDRB     r0,[r0,#0]
        0x08003894:    b118        ..      CBZ      r0,0x800389e ; _printf_core + 1622
        0x08003896:    465a        ZF      MOV      r2,r11
        0x08003898:    9917        ..      LDR      r1,[sp,#0x5c]
        0x0800389a:    4790        .G      BLX      r2
        0x0800389c:    1c6d        m.      ADDS     r5,r5,#1
        0x0800389e:    03e0        ..      LSLS     r0,r4,#15
        0x080038a0:    d524        $.      BPL      0x80038ec ; _printf_core + 1700
        0x080038a2:    465b        [F      MOV      r3,r11
        0x080038a4:    4621        !F      MOV      r1,r4
        0x080038a6:    9a17        ..      LDR      r2,[sp,#0x5c]
        0x080038a8:    9805        ..      LDR      r0,[sp,#0x14]
        0x080038aa:    f000f84d    ..M.    BL       _printf_pre_padding ; 0x8003948
        0x080038ae:    4405        .D      ADD      r5,r5,r0
        0x080038b0:    e01c        ..      B        0x80038ec ; _printf_core + 1700
        0x080038b2:    9804        ..      LDR      r0,[sp,#0x10]
        0x080038b4:    2800        .(      CMP      r0,#0
        0x080038b6:    db07        ..      BLT      0x80038c8 ; _printf_core + 1664
        0x080038b8:    e9dd0103    ....    LDRD     r0,r1,[sp,#0xc]
        0x080038bc:    4288        .B      CMP      r0,r1
        0x080038be:    dd03        ..      BLE      0x80038c8 ; _printf_core + 1664
        0x080038c0:    9800        ..      LDR      r0,[sp,#0]
        0x080038c2:    5c40        @\      LDRB     r0,[r0,r1]
        0x080038c4:    9917        ..      LDR      r1,[sp,#0x5c]
        0x080038c6:    e001        ..      B        0x80038cc ; _printf_core + 1668
        0x080038c8:    9917        ..      LDR      r1,[sp,#0x5c]
        0x080038ca:    2030        0       MOVS     r0,#0x30
        0x080038cc:    465a        ZF      MOV      r2,r11
        0x080038ce:    4790        .G      BLX      r2
        0x080038d0:    9804        ..      LDR      r0,[sp,#0x10]
        0x080038d2:    f1050501    ....    ADD      r5,r5,#1
        0x080038d6:    1c40        @.      ADDS     r0,r0,#1
        0x080038d8:    9004        ..      STR      r0,[sp,#0x10]
        0x080038da:    9801        ..      LDR      r0,[sp,#4]
        0x080038dc:    1e40        @.      SUBS     r0,r0,#1
        0x080038de:    9001        ..      STR      r0,[sp,#4]
        0x080038e0:    d104        ..      BNE      0x80038ec ; _printf_core + 1700
        0x080038e2:    202e        .       MOVS     r0,#0x2e
        0x080038e4:    465a        ZF      MOV      r2,r11
        0x080038e6:    9917        ..      LDR      r1,[sp,#0x5c]
        0x080038e8:    4790        .G      BLX      r2
        0x080038ea:    1c6d        m.      ADDS     r5,r5,#1
        0x080038ec:    f1ba0100    ....    SUBS     r1,r10,#0
        0x080038f0:    f1aa0a01    ....    SUB      r10,r10,#1
        0x080038f4:    dcdd        ..      BGT      0x80038b2 ; _printf_core + 1642
        0x080038f6:    e005        ..      B        0x8003904 ; _printf_core + 1724
        0x080038f8:    f8170b01    ....    LDRB     r0,[r7],#1
        0x080038fc:    465a        ZF      MOV      r2,r11
        0x080038fe:    9917        ..      LDR      r1,[sp,#0x5c]
        0x08003900:    4790        .G      BLX      r2
        0x08003902:    1c6d        m.      ADDS     r5,r5,#1
        0x08003904:    f1b80100    ....    SUBS     r1,r8,#0
        0x08003908:    f1a80801    ....    SUB      r8,r8,#1
        0x0800390c:    dcf4        ..      BGT      0x80038f8 ; _printf_core + 1712
        0x0800390e:    465b        [F      MOV      r3,r11
        0x08003910:    4621        !F      MOV      r1,r4
        0x08003912:    9a17        ..      LDR      r2,[sp,#0x5c]
        0x08003914:    9805        ..      LDR      r0,[sp,#0x14]
        0x08003916:    e6ab        ..      B        0x8003670 ; _printf_core + 1064
    $d
        0x08003918:    0000002d    -...    DCD    45
        0x0800391c:    0000002b    +...    DCD    43
        0x08003920:    00000020     ...    DCD    32
    $t
    i._printf_post_padding
    _printf_post_padding
        0x08003924:    e92d41f0    -..A    PUSH     {r4-r8,lr}
        0x08003928:    4604        .F      MOV      r4,r0
        0x0800392a:    2500        .%      MOVS     r5,#0
        0x0800392c:    461e        .F      MOV      r6,r3
        0x0800392e:    4617        .F      MOV      r7,r2
        0x08003930:    0488        ..      LSLS     r0,r1,#18
        0x08003932:    d404        ..      BMI      0x800393e ; _printf_post_padding + 26
        0x08003934:    e005        ..      B        0x8003942 ; _printf_post_padding + 30
        0x08003936:    4639        9F      MOV      r1,r7
        0x08003938:    2020                MOVS     r0,#0x20
        0x0800393a:    47b0        .G      BLX      r6
        0x0800393c:    1c6d        m.      ADDS     r5,r5,#1
        0x0800393e:    1e64        d.      SUBS     r4,r4,#1
        0x08003940:    d5f9        ..      BPL      0x8003936 ; _printf_post_padding + 18
        0x08003942:    4628        (F      MOV      r0,r5
        0x08003944:    e8bd81f0    ....    POP      {r4-r8,pc}
    i._printf_pre_padding
    _printf_pre_padding
        0x08003948:    e92d41f0    -..A    PUSH     {r4-r8,lr}
        0x0800394c:    4604        .F      MOV      r4,r0
        0x0800394e:    2500        .%      MOVS     r5,#0
        0x08003950:    461e        .F      MOV      r6,r3
        0x08003952:    4690        .F      MOV      r8,r2
        0x08003954:    03c8        ..      LSLS     r0,r1,#15
        0x08003956:    d501        ..      BPL      0x800395c ; _printf_pre_padding + 20
        0x08003958:    2730        0'      MOVS     r7,#0x30
        0x0800395a:    e000        ..      B        0x800395e ; _printf_pre_padding + 22
        0x0800395c:    2720         '      MOVS     r7,#0x20
        0x0800395e:    0488        ..      LSLS     r0,r1,#18
        0x08003960:    d504        ..      BPL      0x800396c ; _printf_pre_padding + 36
        0x08003962:    e005        ..      B        0x8003970 ; _printf_pre_padding + 40
        0x08003964:    4641        AF      MOV      r1,r8
        0x08003966:    4638        8F      MOV      r0,r7
        0x08003968:    47b0        .G      BLX      r6
        0x0800396a:    1c6d        m.      ADDS     r5,r5,#1
        0x0800396c:    1e64        d.      SUBS     r4,r4,#1
        0x0800396e:    d5f9        ..      BPL      0x8003964 ; _printf_pre_padding + 28
        0x08003970:    4628        (F      MOV      r0,r5
        0x08003972:    e8bd81f0    ....    POP      {r4-r8,pc}
    i._snputc
    _snputc
        0x08003976:    684a        Jh      LDR      r2,[r1,#4]
        0x08003978:    2a00        .*      CMP      r2,#0
        0x0800397a:    d006        ..      BEQ      0x800398a ; _snputc + 20
        0x0800397c:    680a        .h      LDR      r2,[r1,#0]
        0x0800397e:    1c53        S.      ADDS     r3,r2,#1
        0x08003980:    600b        .`      STR      r3,[r1,#0]
        0x08003982:    7010        .p      STRB     r0,[r2,#0]
        0x08003984:    6848        Hh      LDR      r0,[r1,#4]
        0x08003986:    1e40        @.      SUBS     r0,r0,#1
        0x08003988:    6048        H`      STR      r0,[r1,#4]
        0x0800398a:    4770        pG      BX       lr
    i.getItemValueNumber
    getItemValueNumber
        0x0800398c:    b510        ..      PUSH     {r4,lr}
        0x0800398e:    2800        .(      CMP      r0,#0
        0x08003990:    d006        ..      BEQ      0x80039a0 ; getItemValueNumber + 20
        0x08003992:    4601        .F      MOV      r1,r0
        0x08003994:    6a80        .j      LDR      r0,[r0,#0x28]
        0x08003996:    6ac9        .j      LDR      r1,[r1,#0x2c]
        0x08003998:    e8bd4010    ...@    POP      {r4,lr}
        0x0800399c:    f7fcbde4    ....    B        __aeabi_d2iz ; 0x8000568
        0x080039a0:    f44f728f    O..r    MOV      r2,#0x11e
        0x080039a4:    a102        ..      ADR      r1,{pc}+0xc ; 0x80039b0
        0x080039a6:    a005        ..      ADR      r0,{pc}+0x16 ; 0x80039bc
        0x080039a8:    f7fdfe6c    ..l.    BL       Debug_USART_Printf ; 0x8001684
        0x080039ac:    2000        .       MOVS     r0,#0
        0x080039ae:    bd10        ..      POP      {r4,pc}
    $d
        0x080039b0:    5454514d    MQTT    DCD    1414811981
        0x080039b4:    4f534a5c    \JSO    DCD    1330858588
        0x080039b8:    00632e4e    N.c.    DCD    6499918
        0x080039bc:    3a73255b    [%s:    DCD    980624731
        0x080039c0:    205d6425    %d]     DCD    542991397
        0x080039c4:    6d657469    item    DCD    1835365481
        0x080039c8:    20736920     is     DCD    544434464
        0x080039cc:    74706d65    empt    DCD    1953525093
        0x080039d0:    000a0d79    y...    DCD    658809
    $t
    i.isInItemList
    isInItemList
        0x080039d4:    b570        p.      PUSH     {r4-r6,lr}
        0x080039d6:    460d        .F      MOV      r5,r1
        0x080039d8:    2800        .(      CMP      r0,#0
        0x080039da:    d001        ..      BEQ      0x80039e0 ; isInItemList + 12
        0x080039dc:    4604        .F      MOV      r4,r0
        0x080039de:    e00d        ..      B        0x80039fc ; isInItemList + 40
        0x080039e0:    f240120b    @...    MOV      r2,#0x10b
        0x080039e4:    a10b        ..      ADR      r1,{pc}+0x30 ; 0x8003a14
        0x080039e6:    a00e        ..      ADR      r0,{pc}+0x3a ; 0x8003a20
        0x080039e8:    f7fdfe4c    ..L.    BL       Debug_USART_Printf ; 0x8001684
        0x080039ec:    2000        .       MOVS     r0,#0
        0x080039ee:    bd70        p.      POP      {r4-r6,pc}
        0x080039f0:    4629        )F      MOV      r1,r5
        0x080039f2:    4620         F      MOV      r0,r4
        0x080039f4:    f7fcfc22    ..".    BL       strcmp ; 0x800023c
        0x080039f8:    b150        P.      CBZ      r0,0x8003a10 ; isInItemList + 60
        0x080039fa:    6d24        $m      LDR      r4,[r4,#0x50]
        0x080039fc:    2c00        .,      CMP      r4,#0
        0x080039fe:    d1f7        ..      BNE      0x80039f0 ; isInItemList + 28
        0x08003a00:    f2401217    @...    MOV      r2,#0x117
        0x08003a04:    a103        ..      ADR      r1,{pc}+0x10 ; 0x8003a14
        0x08003a06:    a00c        ..      ADR      r0,{pc}+0x32 ; 0x8003a38
        0x08003a08:    f7fdfe3c    ..<.    BL       Debug_USART_Printf ; 0x8001684
        0x08003a0c:    2000        .       MOVS     r0,#0
        0x08003a0e:    bd70        p.      POP      {r4-r6,pc}
        0x08003a10:    4620         F      MOV      r0,r4
        0x08003a12:    bd70        p.      POP      {r4-r6,pc}
    $d
        0x08003a14:    5454514d    MQTT    DCD    1414811981
        0x08003a18:    4f534a5c    \JSO    DCD    1330858588
        0x08003a1c:    00632e4e    N.c.    DCD    6499918
        0x08003a20:    3a73255b    [%s:    DCD    980624731
        0x08003a24:    205d6425    %d]     DCD    542991397
        0x08003a28:    7473696c    list    DCD    1953720684
        0x08003a2c:    20736920     is     DCD    544434464
        0x08003a30:    74706d65    empt    DCD    1953525093
        0x08003a34:    000a0d79    y...    DCD    658809
        0x08003a38:    3a73255b    [%s:    DCD    980624731
        0x08003a3c:    205d6425    %d]     DCD    542991397
        0x08003a40:    6d657469    item    DCD    1835365481
        0x08003a44:    20736920     is     DCD    544434464
        0x08003a48:    20746f6e    not     DCD    544501614
        0x08003a4c:    6c206e69    in l    DCD    1814064745
        0x08003a50:    0d747369    ist.    DCD    225735529
        0x08003a54:    0000000a    ....    DCD    10
    $t
    i.is_RingBuffer_Empty
    is_RingBuffer_Empty
        0x08003a58:    6880        .h      LDR      r0,[r0,#8]
        0x08003a5a:    2800        .(      CMP      r0,#0
        0x08003a5c:    d001        ..      BEQ      0x8003a62 ; is_RingBuffer_Empty + 10
        0x08003a5e:    2000        .       MOVS     r0,#0
        0x08003a60:    4770        pG      BX       lr
        0x08003a62:    2001        .       MOVS     r0,#1
        0x08003a64:    4770        pG      BX       lr
    i.is_RingBuffer_Full
    is_RingBuffer_Full
        0x08003a66:    6881        .h      LDR      r1,[r0,#8]
        0x08003a68:    6840        @h      LDR      r0,[r0,#4]
        0x08003a6a:    4281        .B      CMP      r1,r0
        0x08003a6c:    d301        ..      BCC      0x8003a72 ; is_RingBuffer_Full + 12
        0x08003a6e:    2001        .       MOVS     r0,#1
        0x08003a70:    4770        pG      BX       lr
        0x08003a72:    2000        .       MOVS     r0,#0
        0x08003a74:    4770        pG      BX       lr
        0x08003a76:    0000        ..      MOVS     r0,r0
    i.main
    main
        0x08003a78:    b51c        ..      PUSH     {r2-r4,lr}
        0x08003a7a:    f7fefa8d    ....    BL       Key_Init ; 0x8001f98
        0x08003a7e:    f7fefadb    ....    BL       LED_Init ; 0x8002038
        0x08003a82:    f7fefdfd    ....    BL       Sensor_AD_Init ; 0x8002680
        0x08003a86:    f7fdfdbb    ....    BL       Debug_USART_Init ; 0x8001600
        0x08003a8a:    f7fdf9ed    ....    BL       AT_Init ; 0x8000e68
        0x08003a8e:    222b        +"      MOVS     r2,#0x2b
        0x08003a90:    a115        ..      ADR      r1,{pc}+0x58 ; 0x8003ae8
        0x08003a92:    a018        ..      ADR      r0,{pc}+0x62 ; 0x8003af4
        0x08003a94:    f7fdfdf6    ....    BL       Debug_USART_Printf ; 0x8001684
        0x08003a98:    f000fb76    ..v.    BL       vPortEnterCritical ; 0x8004188
        0x08003a9c:    481c        .H      LDR      r0,[pc,#112] ; [0x8003b10] = 0x20000098
        0x08003a9e:    2101        .!      MOVS     r1,#1
        0x08003aa0:    e9cd1000    ....    STRD     r1,r0,[sp,#0]
        0x08003aa4:    020a        ..      LSLS     r2,r1,#8
        0x08003aa6:    2300        .#      MOVS     r3,#0
        0x08003aa8:    a11a        ..      ADR      r1,{pc}+0x6c ; 0x8003b14
        0x08003aaa:    481e        .H      LDR      r0,[pc,#120] ; [0x8003b24] = 0x8002891
        0x08003aac:    f000fef8    ....    BL       xTaskCreate ; 0x80048a0
        0x08003ab0:    4817        .H      LDR      r0,[pc,#92] ; [0x8003b10] = 0x20000098
        0x08003ab2:    2103        .!      MOVS     r1,#3
        0x08003ab4:    1d00        ..      ADDS     r0,r0,#4
        0x08003ab6:    e9cd1000    ....    STRD     r1,r0,[sp,#0]
        0x08003aba:    2300        .#      MOVS     r3,#0
        0x08003abc:    f44f7200    O..r    MOV      r2,#0x200
        0x08003ac0:    a119        ..      ADR      r1,{pc}+0x68 ; 0x8003b28
        0x08003ac2:    481e        .H      LDR      r0,[pc,#120] ; [0x8003b3c] = 0x8002995
        0x08003ac4:    f000feec    ....    BL       xTaskCreate ; 0x80048a0
        0x08003ac8:    4811        .H      LDR      r0,[pc,#68] ; [0x8003b10] = 0x20000098
        0x08003aca:    2102        .!      MOVS     r1,#2
        0x08003acc:    3008        .0      ADDS     r0,r0,#8
        0x08003ace:    e9cd1000    ....    STRD     r1,r0,[sp,#0]
        0x08003ad2:    024a        J.      LSLS     r2,r1,#9
        0x08003ad4:    2300        .#      MOVS     r3,#0
        0x08003ad6:    a11a        ..      ADR      r1,{pc}+0x6a ; 0x8003b40
        0x08003ad8:    481e        .H      LDR      r0,[pc,#120] ; [0x8003b54] = 0x80029c9
        0x08003ada:    f000fee1    ....    BL       xTaskCreate ; 0x80048a0
        0x08003ade:    f000fb61    ..a.    BL       vPortExitCritical ; 0x80041a4
        0x08003ae2:    f000fc1f    ....    BL       vTaskStartScheduler ; 0x8004324
        0x08003ae6:    e7fe        ..      B        0x8003ae6 ; main + 110
    $d
        0x08003ae8:    72657355    User    DCD    1919251285
        0x08003aec:    69616d5c    \mai    DCD    1767992668
        0x08003af0:    00632e6e    n.c.    DCD    6499950
        0x08003af4:    3a73255b    [%s:    DCD    980624731
        0x08003af8:    205d6425    %d]     DCD    542991397
        0x08003afc:    65736572    rese    DCD    1702061426
        0x08003b00:    6e612074    t an    DCD    1851859060
        0x08003b04:    6e692064    d in    DCD    1852383332
        0x08003b08:    2e2e7469    it..    DCD    774796393
        0x08003b0c:    000a0d2e    ....    DCD    658734
        0x08003b10:    20000098    ...     DCD    536871064
        0x08003b14:    6b736154    Task    DCD    1802723668
        0x08003b18:    4354415f    _ATC    DCD    1129595231
        0x08003b1c:    656e6e6f    onne    DCD    1701736047
        0x08003b20:    00007463    ct..    DCD    29795
        0x08003b24:    08002891    .(..    DCD    134228113
        0x08003b28:    6b736154    Task    DCD    1802723668
        0x08003b2c:    5254415f    _ATR    DCD    1381253471
        0x08003b30:    6f707365    espo    DCD    1869640549
        0x08003b34:    5265736e    nseR    DCD    1382380398
        0x08003b38:    00007663    cv..    DCD    30307
        0x08003b3c:    08002995    .)..    DCD    134228373
        0x08003b40:    6b736154    Task    DCD    1802723668
        0x08003b44:    54514d5f    _MQT    DCD    1414614367
        0x08003b48:    74614454    TDat    DCD    1952531540
        0x08003b4c:    76635261    aRcv    DCD    1986220641
        0x08003b50:    00000000    ....    DCD    0
        0x08003b54:    080029c9    .)..    DCD    134228425
    $t
    i.prvAddCurrentTaskToDelayedList
    prvAddCurrentTaskToDelayedList
        0x08003b58:    e92d41f0    -..A    PUSH     {r4-r8,lr}
        0x08003b5c:    4604        .F      MOV      r4,r0
        0x08003b5e:    460f        .F      MOV      r7,r1
        0x08003b60:    4d1e        .M      LDR      r5,[pc,#120] ; [0x8003bdc] = 0x20000048
        0x08003b62:    68ee        .h      LDR      r6,[r5,#0xc]
        0x08003b64:    6828        (h      LDR      r0,[r5,#0]
        0x08003b66:    1d00        ..      ADDS     r0,r0,#4
        0x08003b68:    f000fac2    ....    BL       uxListRemove ; 0x80040f0
        0x08003b6c:    b938        8.      CBNZ     r0,0x8003b7e ; prvAddCurrentTaskToDelayedList + 38
        0x08003b6e:    6828        (h      LDR      r0,[r5,#0]
        0x08003b70:    f890102c    ..,.    LDRB     r1,[r0,#0x2c]
        0x08003b74:    2001        .       MOVS     r0,#1
        0x08003b76:    4088        .@      LSLS     r0,r0,r1
        0x08003b78:    6929        )i      LDR      r1,[r5,#0x10]
        0x08003b7a:    4381        .C      BICS     r1,r1,r0
        0x08003b7c:    6129        )a      STR      r1,[r5,#0x10]
        0x08003b7e:    1c60        `.      ADDS     r0,r4,#1
        0x08003b80:    d115        ..      BNE      0x8003bae ; prvAddCurrentTaskToDelayedList + 86
        0x08003b82:    b1a7        ..      CBZ      r7,0x8003bae ; prvAddCurrentTaskToDelayedList + 86
        0x08003b84:    4916        .I      LDR      r1,[pc,#88] ; [0x8003be0] = 0x20003f98
        0x08003b86:    6848        Hh      LDR      r0,[r1,#4]
        0x08003b88:    682a        *h      LDR      r2,[r5,#0]
        0x08003b8a:    6090        .`      STR      r0,[r2,#8]
        0x08003b8c:    6882        .h      LDR      r2,[r0,#8]
        0x08003b8e:    682b        +h      LDR      r3,[r5,#0]
        0x08003b90:    60da        .`      STR      r2,[r3,#0xc]
        0x08003b92:    682a        *h      LDR      r2,[r5,#0]
        0x08003b94:    6883        .h      LDR      r3,[r0,#8]
        0x08003b96:    1d12        ..      ADDS     r2,r2,#4
        0x08003b98:    605a        Z`      STR      r2,[r3,#4]
        0x08003b9a:    682a        *h      LDR      r2,[r5,#0]
        0x08003b9c:    1d12        ..      ADDS     r2,r2,#4
        0x08003b9e:    6082        .`      STR      r2,[r0,#8]
        0x08003ba0:    6828        (h      LDR      r0,[r5,#0]
        0x08003ba2:    6141        Aa      STR      r1,[r0,#0x14]
        0x08003ba4:    6808        .h      LDR      r0,[r1,#0]
        0x08003ba6:    1c40        @.      ADDS     r0,r0,#1
        0x08003ba8:    6008        .`      STR      r0,[r1,#0]
        0x08003baa:    e8bd81f0    ....    POP      {r4-r8,pc}
        0x08003bae:    4434        4D      ADD      r4,r4,r6
        0x08003bb0:    6828        (h      LDR      r0,[r5,#0]
        0x08003bb2:    6044        D`      STR      r4,[r0,#4]
        0x08003bb4:    42b4        .B      CMP      r4,r6
        0x08003bb6:    d206        ..      BCS      0x8003bc6 ; prvAddCurrentTaskToDelayedList + 110
        0x08003bb8:    6829        )h      LDR      r1,[r5,#0]
        0x08003bba:    6be8        .k      LDR      r0,[r5,#0x3c]
        0x08003bbc:    1d09        ..      ADDS     r1,r1,#4
        0x08003bbe:    e8bd41f0    ...A    POP      {r4-r8,lr}
        0x08003bc2:    f000babd    ....    B.W      vListInsert ; 0x8004140
        0x08003bc6:    6829        )h      LDR      r1,[r5,#0]
        0x08003bc8:    6ba8        .k      LDR      r0,[r5,#0x38]
        0x08003bca:    1d09        ..      ADDS     r1,r1,#4
        0x08003bcc:    f000fab8    ....    BL       vListInsert ; 0x8004140
        0x08003bd0:    6aa8        .j      LDR      r0,[r5,#0x28]
        0x08003bd2:    4284        .B      CMP      r4,r0
        0x08003bd4:    d2e9        ..      BCS      0x8003baa ; prvAddCurrentTaskToDelayedList + 82
        0x08003bd6:    62ac        .b      STR      r4,[r5,#0x28]
        0x08003bd8:    e7e7        ..      B        0x8003baa ; prvAddCurrentTaskToDelayedList + 82
    $d
        0x08003bda:    0000        ..      DCW    0
        0x08003bdc:    20000048    H..     DCD    536870984
        0x08003be0:    20003f98    .?.     DCD    536887192
    $t
    i.prvAddNewTaskToReadyList
    prvAddNewTaskToReadyList
        0x08003be4:    b570        p.      PUSH     {r4-r6,lr}
        0x08003be6:    4604        .F      MOV      r4,r0
        0x08003be8:    f000face    ....    BL       vPortEnterCritical ; 0x8004188
        0x08003bec:    4d24        $M      LDR      r5,[pc,#144] ; [0x8003c80] = 0x20000048
        0x08003bee:    68a8        .h      LDR      r0,[r5,#8]
        0x08003bf0:    1c40        @.      ADDS     r0,r0,#1
        0x08003bf2:    60a8        .`      STR      r0,[r5,#8]
        0x08003bf4:    6828        (h      LDR      r0,[r5,#0]
        0x08003bf6:    b110        ..      CBZ      r0,0x8003bfe ; prvAddNewTaskToReadyList + 26
        0x08003bf8:    6968        hi      LDR      r0,[r5,#0x14]
        0x08003bfa:    b138        8.      CBZ      r0,0x8003c0c ; prvAddNewTaskToReadyList + 40
        0x08003bfc:    e00c        ..      B        0x8003c18 ; prvAddNewTaskToReadyList + 52
        0x08003bfe:    602c        ,`      STR      r4,[r5,#0]
        0x08003c00:    68a8        .h      LDR      r0,[r5,#8]
        0x08003c02:    2801        .(      CMP      r0,#1
        0x08003c04:    d108        ..      BNE      0x8003c18 ; prvAddNewTaskToReadyList + 52
        0x08003c06:    f000f93b    ..;.    BL       prvInitialiseTaskLists ; 0x8003e80
        0x08003c0a:    e005        ..      B        0x8003c18 ; prvAddNewTaskToReadyList + 52
        0x08003c0c:    6828        (h      LDR      r0,[r5,#0]
        0x08003c0e:    6ae1        .j      LDR      r1,[r4,#0x2c]
        0x08003c10:    6ac0        .j      LDR      r0,[r0,#0x2c]
        0x08003c12:    4288        .B      CMP      r0,r1
        0x08003c14:    d800        ..      BHI      0x8003c18 ; prvAddNewTaskToReadyList + 52
        0x08003c16:    602c        ,`      STR      r4,[r5,#0]
        0x08003c18:    6a68        hj      LDR      r0,[r5,#0x24]
        0x08003c1a:    1c40        @.      ADDS     r0,r0,#1
        0x08003c1c:    6268        hb      STR      r0,[r5,#0x24]
        0x08003c1e:    6ae0        .j      LDR      r0,[r4,#0x2c]
        0x08003c20:    2101        .!      MOVS     r1,#1
        0x08003c22:    692a        *i      LDR      r2,[r5,#0x10]
        0x08003c24:    4081        .@      LSLS     r1,r1,r0
        0x08003c26:    4311        .C      ORRS     r1,r1,r2
        0x08003c28:    6129        )a      STR      r1,[r5,#0x10]
        0x08003c2a:    4a16        .J      LDR      r2,[pc,#88] ; [0x8003c84] = 0x20003cc8
        0x08003c2c:    eb000080    ....    ADD      r0,r0,r0,LSL #2
        0x08003c30:    eb020080    ....    ADD      r0,r2,r0,LSL #2
        0x08003c34:    6840        @h      LDR      r0,[r0,#4]
        0x08003c36:    60a0        .`      STR      r0,[r4,#8]
        0x08003c38:    6881        .h      LDR      r1,[r0,#8]
        0x08003c3a:    60e1        .`      STR      r1,[r4,#0xc]
        0x08003c3c:    6883        .h      LDR      r3,[r0,#8]
        0x08003c3e:    1d21        !.      ADDS     r1,r4,#4
        0x08003c40:    6059        Y`      STR      r1,[r3,#4]
        0x08003c42:    6081        .`      STR      r1,[r0,#8]
        0x08003c44:    6ae0        .j      LDR      r0,[r4,#0x2c]
        0x08003c46:    eb000080    ....    ADD      r0,r0,r0,LSL #2
        0x08003c4a:    eb020180    ....    ADD      r1,r2,r0,LSL #2
        0x08003c4e:    6161        aa      STR      r1,[r4,#0x14]
        0x08003c50:    f8521020    R. .    LDR      r1,[r2,r0,LSL #2]
        0x08003c54:    1c49        I.      ADDS     r1,r1,#1
        0x08003c56:    f8421020    B. .    STR      r1,[r2,r0,LSL #2]
        0x08003c5a:    f000faa3    ....    BL       vPortExitCritical ; 0x80041a4
        0x08003c5e:    6968        hi      LDR      r0,[r5,#0x14]
        0x08003c60:    2800        .(      CMP      r0,#0
        0x08003c62:    d00c        ..      BEQ      0x8003c7e ; prvAddNewTaskToReadyList + 154
        0x08003c64:    6828        (h      LDR      r0,[r5,#0]
        0x08003c66:    6ae1        .j      LDR      r1,[r4,#0x2c]
        0x08003c68:    6ac0        .j      LDR      r0,[r0,#0x2c]
        0x08003c6a:    4288        .B      CMP      r0,r1
        0x08003c6c:    d207        ..      BCS      0x8003c7e ; prvAddNewTaskToReadyList + 154
        0x08003c6e:    4906        .I      LDR      r1,[pc,#24] ; [0x8003c88] = 0xe000ed04
        0x08003c70:    f04f5080    O..P    MOV      r0,#0x10000000
        0x08003c74:    6008        .`      STR      r0,[r1,#0]
        0x08003c76:    f3bf8f4f    ..O.    DSB      
        0x08003c7a:    f3bf8f6f    ..o.    ISB      
        0x08003c7e:    bd70        p.      POP      {r4-r6,pc}
    $d
        0x08003c80:    20000048    H..     DCD    536870984
        0x08003c84:    20003cc8    .<.     DCD    536886472
        0x08003c88:    e000ed04    ....    DCD    3758157060
    $t
    i.prvCheckTasksWaitingTermination
    prvCheckTasksWaitingTermination
        0x08003c8c:    b570        p.      PUSH     {r4-r6,lr}
        0x08003c8e:    4d0c        .M      LDR      r5,[pc,#48] ; [0x8003cc0] = 0x20000048
        0x08003c90:    4e0c        .N      LDR      r6,[pc,#48] ; [0x8003cc4] = 0x20003f84
        0x08003c92:    e011        ..      B        0x8003cb8 ; prvCheckTasksWaitingTermination + 44
        0x08003c94:    f000fa78    ..x.    BL       vPortEnterCritical ; 0x8004188
        0x08003c98:    68f0        .h      LDR      r0,[r6,#0xc]
        0x08003c9a:    68c4        .h      LDR      r4,[r0,#0xc]
        0x08003c9c:    1d20         .      ADDS     r0,r4,#4
        0x08003c9e:    f000fa27    ..'.    BL       uxListRemove ; 0x80040f0
        0x08003ca2:    68a8        .h      LDR      r0,[r5,#8]
        0x08003ca4:    1e40        @.      SUBS     r0,r0,#1
        0x08003ca6:    60a8        .`      STR      r0,[r5,#8]
        0x08003ca8:    6868        hh      LDR      r0,[r5,#4]
        0x08003caa:    1e40        @.      SUBS     r0,r0,#1
        0x08003cac:    6068        h`      STR      r0,[r5,#4]
        0x08003cae:    f000fa79    ..y.    BL       vPortExitCritical ; 0x80041a4
        0x08003cb2:    4620         F      MOV      r0,r4
        0x08003cb4:    f000f83f    ..?.    BL       prvDeleteTCB ; 0x8003d36
        0x08003cb8:    6868        hh      LDR      r0,[r5,#4]
        0x08003cba:    2800        .(      CMP      r0,#0
        0x08003cbc:    d1ea        ..      BNE      0x8003c94 ; prvCheckTasksWaitingTermination + 8
        0x08003cbe:    bd70        p.      POP      {r4-r6,pc}
    $d
        0x08003cc0:    20000048    H..     DCD    536870984
        0x08003cc4:    20003f84    .?.     DCD    536887172
    $t
    i.prvCopyDataToQueue
    prvCopyDataToQueue
        0x08003cc8:    e92d41f0    -..A    PUSH     {r4-r8,lr}
        0x08003ccc:    4604        .F      MOV      r4,r0
        0x08003cce:    4617        .F      MOV      r7,r2
        0x08003cd0:    2600        .&      MOVS     r6,#0
        0x08003cd2:    6ba5        .k      LDR      r5,[r4,#0x38]
        0x08003cd4:    6c22        "l      LDR      r2,[r4,#0x40]
        0x08003cd6:    2a00        .*      CMP      r2,#0
        0x08003cd8:    d010        ..      BEQ      0x8003cfc ; prvCopyDataToQueue + 52
        0x08003cda:    b1c7        ..      CBZ      r7,0x8003d0e ; prvCopyDataToQueue + 70
        0x08003cdc:    68e0        .h      LDR      r0,[r4,#0xc]
        0x08003cde:    f7fcfa77    ..w.    BL       __aeabi_memcpy ; 0x80001d0
        0x08003ce2:    68e1        .h      LDR      r1,[r4,#0xc]
        0x08003ce4:    6c20         l      LDR      r0,[r4,#0x40]
        0x08003ce6:    1a09        ..      SUBS     r1,r1,r0
        0x08003ce8:    60e1        .`      STR      r1,[r4,#0xc]
        0x08003cea:    6822        "h      LDR      r2,[r4,#0]
        0x08003cec:    4291        .B      CMP      r1,r2
        0x08003cee:    d202        ..      BCS      0x8003cf6 ; prvCopyDataToQueue + 46
        0x08003cf0:    68a1        .h      LDR      r1,[r4,#8]
        0x08003cf2:    1a08        ..      SUBS     r0,r1,r0
        0x08003cf4:    60e0        .`      STR      r0,[r4,#0xc]
        0x08003cf6:    2f02        ./      CMP      r7,#2
        0x08003cf8:    d016        ..      BEQ      0x8003d28 ; prvCopyDataToQueue + 96
        0x08003cfa:    e017        ..      B        0x8003d2c ; prvCopyDataToQueue + 100
        0x08003cfc:    6820         h      LDR      r0,[r4,#0]
        0x08003cfe:    b9a8        ..      CBNZ     r0,0x8003d2c ; prvCopyDataToQueue + 100
        0x08003d00:    68a0        .h      LDR      r0,[r4,#8]
        0x08003d02:    f000fe8f    ....    BL       xTaskPriorityDisinherit ; 0x8004a24
        0x08003d06:    4606        .F      MOV      r6,r0
        0x08003d08:    2000        .       MOVS     r0,#0
        0x08003d0a:    60a0        .`      STR      r0,[r4,#8]
        0x08003d0c:    e00e        ..      B        0x8003d2c ; prvCopyDataToQueue + 100
        0x08003d0e:    6860        `h      LDR      r0,[r4,#4]
        0x08003d10:    f7fcfa5e    ..^.    BL       __aeabi_memcpy ; 0x80001d0
        0x08003d14:    6c21        !l      LDR      r1,[r4,#0x40]
        0x08003d16:    6860        `h      LDR      r0,[r4,#4]
        0x08003d18:    4408        .D      ADD      r0,r0,r1
        0x08003d1a:    6060        ``      STR      r0,[r4,#4]
        0x08003d1c:    68a1        .h      LDR      r1,[r4,#8]
        0x08003d1e:    4288        .B      CMP      r0,r1
        0x08003d20:    d304        ..      BCC      0x8003d2c ; prvCopyDataToQueue + 100
        0x08003d22:    6820         h      LDR      r0,[r4,#0]
        0x08003d24:    6060        ``      STR      r0,[r4,#4]
        0x08003d26:    e001        ..      B        0x8003d2c ; prvCopyDataToQueue + 100
        0x08003d28:    b105        ..      CBZ      r5,0x8003d2c ; prvCopyDataToQueue + 100
        0x08003d2a:    1e6d        m.      SUBS     r5,r5,#1
        0x08003d2c:    1c6d        m.      ADDS     r5,r5,#1
        0x08003d2e:    63a5        .c      STR      r5,[r4,#0x38]
        0x08003d30:    4630        0F      MOV      r0,r6
        0x08003d32:    e8bd81f0    ....    POP      {r4-r8,pc}
    i.prvDeleteTCB
    prvDeleteTCB
        0x08003d36:    b510        ..      PUSH     {r4,lr}
        0x08003d38:    4604        .F      MOV      r4,r0
        0x08003d3a:    6b20         k      LDR      r0,[r4,#0x30]
        0x08003d3c:    f000fa3e    ..>.    BL       vPortFree ; 0x80041bc
        0x08003d40:    4620         F      MOV      r0,r4
        0x08003d42:    e8bd4010    ...@    POP      {r4,lr}
        0x08003d46:    f000ba39    ..9.    B.W      vPortFree ; 0x80041bc
    i.prvGetDisinheritPriorityAfterTimeout
    prvGetDisinheritPriorityAfterTimeout
        0x08003d4a:    6a41        Aj      LDR      r1,[r0,#0x24]
        0x08003d4c:    2900        .)      CMP      r1,#0
        0x08003d4e:    d004        ..      BEQ      0x8003d5a ; prvGetDisinheritPriorityAfterTimeout + 16
        0x08003d50:    6b00        .k      LDR      r0,[r0,#0x30]
        0x08003d52:    6800        .h      LDR      r0,[r0,#0]
        0x08003d54:    f1c00020    .. .    RSB      r0,r0,#0x20
        0x08003d58:    4770        pG      BX       lr
        0x08003d5a:    2000        .       MOVS     r0,#0
        0x08003d5c:    4770        pG      BX       lr
        0x08003d5e:    0000        ..      MOVS     r0,r0
    i.prvHeapInit
    prvHeapInit
        0x08003d60:    f44f5170    O.pQ    MOV      r1,#0x3c00
        0x08003d64:    480e        .H      LDR      r0,[pc,#56] ; [0x8003da0] = 0x200000c8
        0x08003d66:    0742        B.      LSLS     r2,r0,#29
        0x08003d68:    d006        ..      BEQ      0x8003d78 ; prvHeapInit + 24
        0x08003d6a:    1dc0        ..      ADDS     r0,r0,#7
        0x08003d6c:    f0200007     ...    BIC      r0,r0,#7
        0x08003d70:    490b        .I      LDR      r1,[pc,#44] ; [0x8003da0] = 0x200000c8
        0x08003d72:    1a41        A.      SUBS     r1,r0,r1
        0x08003d74:    f5c15170    ..pQ    RSB      r1,r1,#0x3c00
        0x08003d78:    4b0a        .K      LDR      r3,[pc,#40] ; [0x8003da4] = 0x2000003c
        0x08003d7a:    6018        .`      STR      r0,[r3,#0]
        0x08003d7c:    2200        ."      MOVS     r2,#0
        0x08003d7e:    605a        Z`      STR      r2,[r3,#4]
        0x08003d80:    4401        .D      ADD      r1,r1,r0
        0x08003d82:    3908        .9      SUBS     r1,r1,#8
        0x08003d84:    f0210107    !...    BIC      r1,r1,#7
        0x08003d88:    3b14        .;      SUBS     r3,r3,#0x14
        0x08003d8a:    6019        .`      STR      r1,[r3,#0]
        0x08003d8c:    604a        J`      STR      r2,[r1,#4]
        0x08003d8e:    600a        .`      STR      r2,[r1,#0]
        0x08003d90:    1a0a        ..      SUBS     r2,r1,r0
        0x08003d92:    6042        B`      STR      r2,[r0,#4]
        0x08003d94:    6001        .`      STR      r1,[r0,#0]
        0x08003d96:    6840        @h      LDR      r0,[r0,#4]
        0x08003d98:    6098        .`      STR      r0,[r3,#8]
        0x08003d9a:    6058        X`      STR      r0,[r3,#4]
        0x08003d9c:    4770        pG      BX       lr
    $d
        0x08003d9e:    0000        ..      DCW    0
        0x08003da0:    200000c8    ...     DCD    536871112
        0x08003da4:    2000003c    <..     DCD    536870972
    $t
    i.prvIdleTask
    prvIdleTask
        0x08003da8:    4e07        .N      LDR      r6,[pc,#28] ; [0x8003dc8] = 0x20003cc8
        0x08003daa:    f04f5480    O..T    MOV      r4,#0x10000000
        0x08003dae:    4d07        .M      LDR      r5,[pc,#28] ; [0x8003dcc] = 0xe000ed04
        0x08003db0:    f7ffff6c    ..l.    BL       prvCheckTasksWaitingTermination ; 0x8003c8c
        0x08003db4:    6830        0h      LDR      r0,[r6,#0]
        0x08003db6:    2801        .(      CMP      r0,#1
        0x08003db8:    d9fa        ..      BLS      0x8003db0 ; prvIdleTask + 8
        0x08003dba:    602c        ,`      STR      r4,[r5,#0]
        0x08003dbc:    f3bf8f4f    ..O.    DSB      
        0x08003dc0:    f3bf8f6f    ..o.    ISB      
        0x08003dc4:    e7f4        ..      B        0x8003db0 ; prvIdleTask + 8
    $d
        0x08003dc6:    0000        ..      DCW    0
        0x08003dc8:    20003cc8    .<.     DCD    536886472
        0x08003dcc:    e000ed04    ....    DCD    3758157060
    $t
    i.prvInitialiseMutex
    prvInitialiseMutex
        0x08003dd0:    2800        .(      CMP      r0,#0
        0x08003dd2:    d008        ..      BEQ      0x8003de6 ; prvInitialiseMutex + 22
        0x08003dd4:    2100        .!      MOVS     r1,#0
        0x08003dd6:    6081        .`      STR      r1,[r0,#8]
        0x08003dd8:    6001        .`      STR      r1,[r0,#0]
        0x08003dda:    60c1        .`      STR      r1,[r0,#0xc]
        0x08003ddc:    2300        .#      MOVS     r3,#0
        0x08003dde:    461a        .F      MOV      r2,r3
        0x08003de0:    4619        .F      MOV      r1,r3
        0x08003de2:    f000bbef    ....    B.W      xQueueGenericSend ; 0x80045c4
        0x08003de6:    4770        pG      BX       lr
    i.prvInitialiseNewQueue
    prvInitialiseNewQueue
        0x08003de8:    4603        .F      MOV      r3,r0
        0x08003dea:    9800        ..      LDR      r0,[sp,#0]
        0x08003dec:    2900        .)      CMP      r1,#0
        0x08003dee:    d005        ..      BEQ      0x8003dfc ; prvInitialiseNewQueue + 20
        0x08003df0:    6002        .`      STR      r2,[r0,#0]
        0x08003df2:    63c3        .c      STR      r3,[r0,#0x3c]
        0x08003df4:    6401        .d      STR      r1,[r0,#0x40]
        0x08003df6:    2101        .!      MOVS     r1,#1
        0x08003df8:    f000bb9a    ....    B.W      xQueueGenericReset ; 0x8004530
        0x08003dfc:    6000        .`      STR      r0,[r0,#0]
        0x08003dfe:    e7f8        ..      B        0x8003df2 ; prvInitialiseNewQueue + 10
    i.prvInitialiseNewTask
    prvInitialiseNewTask
        0x08003e00:    e92d47f0    -..G    PUSH     {r4-r10,lr}
        0x08003e04:    4681        .F      MOV      r9,r0
        0x08003e06:    e9dd5708    ...W    LDRD     r5,r7,[sp,#0x20]
        0x08003e0a:    9c0a        ..      LDR      r4,[sp,#0x28]
        0x08003e0c:    460e        .F      MOV      r6,r1
        0x08003e0e:    4690        .F      MOV      r8,r2
        0x08003e10:    469a        .F      MOV      r10,r3
        0x08003e12:    ea4f0188    O...    LSL      r1,r8,#2
        0x08003e16:    22a5        ."      MOVS     r2,#0xa5
        0x08003e18:    6b20         k      LDR      r0,[r4,#0x30]
        0x08003e1a:    f7fcf9eb    ....    BL       __aeabi_memset ; 0x80001f4
        0x08003e1e:    6b20         k      LDR      r0,[r4,#0x30]
        0x08003e20:    f1a80801    ....    SUB      r8,r8,#1
        0x08003e24:    eb000088    ....    ADD      r0,r0,r8,LSL #2
        0x08003e28:    f0200807     ...    BIC      r8,r0,#7
        0x08003e2c:    b166        f.      CBZ      r6,0x8003e48 ; prvInitialiseNewTask + 72
        0x08003e2e:    2000        .       MOVS     r0,#0
        0x08003e30:    1822        ".      ADDS     r2,r4,r0
        0x08003e32:    5c31        1\      LDRB     r1,[r6,r0]
        0x08003e34:    f8821034    ..4.    STRB     r1,[r2,#0x34]
        0x08003e38:    5c31        1\      LDRB     r1,[r6,r0]
        0x08003e3a:    b111        ..      CBZ      r1,0x8003e42 ; prvInitialiseNewTask + 66
        0x08003e3c:    1c40        @.      ADDS     r0,r0,#1
        0x08003e3e:    2810        .(      CMP      r0,#0x10
        0x08003e40:    d3f6        ..      BCC      0x8003e30 ; prvInitialiseNewTask + 48
        0x08003e42:    2000        .       MOVS     r0,#0
        0x08003e44:    f8840043    ..C.    STRB     r0,[r4,#0x43]
        0x08003e48:    2d20         -      CMP      r5,#0x20
        0x08003e4a:    d300        ..      BCC      0x8003e4e ; prvInitialiseNewTask + 78
        0x08003e4c:    251f        .%      MOVS     r5,#0x1f
        0x08003e4e:    62e5        .b      STR      r5,[r4,#0x2c]
        0x08003e50:    6465        ed      STR      r5,[r4,#0x44]
        0x08003e52:    1d20         .      ADDS     r0,r4,#4
        0x08003e54:    f000f971    ..q.    BL       vListInitialiseItem ; 0x800413a
        0x08003e58:    f1040018    ....    ADD      r0,r4,#0x18
        0x08003e5c:    f000f96d    ..m.    BL       vListInitialiseItem ; 0x800413a
        0x08003e60:    6124        $a      STR      r4,[r4,#0x10]
        0x08003e62:    f1c50020    .. .    RSB      r0,r5,#0x20
        0x08003e66:    61a0        .a      STR      r0,[r4,#0x18]
        0x08003e68:    6264        db      STR      r4,[r4,#0x24]
        0x08003e6a:    4652        RF      MOV      r2,r10
        0x08003e6c:    4649        IF      MOV      r1,r9
        0x08003e6e:    4640        @F      MOV      r0,r8
        0x08003e70:    f000f922    ..".    BL       pxPortInitialiseStack ; 0x80040b8
        0x08003e74:    6020         `      STR      r0,[r4,#0]
        0x08003e76:    2f00        ./      CMP      r7,#0
        0x08003e78:    d000        ..      BEQ      0x8003e7c ; prvInitialiseNewTask + 124
        0x08003e7a:    603c        <`      STR      r4,[r7,#0]
        0x08003e7c:    e8bd87f0    ....    POP      {r4-r10,pc}
    i.prvInitialiseTaskLists
    prvInitialiseTaskLists
        0x08003e80:    b570        p.      PUSH     {r4-r6,lr}
        0x08003e82:    2400        .$      MOVS     r4,#0
        0x08003e84:    4d11        .M      LDR      r5,[pc,#68] ; [0x8003ecc] = 0x20003cc8
        0x08003e86:    eb040084    ....    ADD      r0,r4,r4,LSL #2
        0x08003e8a:    eb050080    ....    ADD      r0,r5,r0,LSL #2
        0x08003e8e:    f000f949    ..I.    BL       vListInitialise ; 0x8004124
        0x08003e92:    1c64        d.      ADDS     r4,r4,#1
        0x08003e94:    2c20         ,      CMP      r4,#0x20
        0x08003e96:    d3f6        ..      BCC      0x8003e86 ; prvInitialiseTaskLists + 6
        0x08003e98:    480d        .H      LDR      r0,[pc,#52] ; [0x8003ed0] = 0x20003f48
        0x08003e9a:    f000f943    ..C.    BL       vListInitialise ; 0x8004124
        0x08003e9e:    480c        .H      LDR      r0,[pc,#48] ; [0x8003ed0] = 0x20003f48
        0x08003ea0:    3014        .0      ADDS     r0,r0,#0x14
        0x08003ea2:    f000f93f    ..?.    BL       vListInitialise ; 0x8004124
        0x08003ea6:    480a        .H      LDR      r0,[pc,#40] ; [0x8003ed0] = 0x20003f48
        0x08003ea8:    3028        (0      ADDS     r0,r0,#0x28
        0x08003eaa:    f000f93b    ..;.    BL       vListInitialise ; 0x8004124
        0x08003eae:    4808        .H      LDR      r0,[pc,#32] ; [0x8003ed0] = 0x20003f48
        0x08003eb0:    303c        <0      ADDS     r0,r0,#0x3c
        0x08003eb2:    f000f937    ..7.    BL       vListInitialise ; 0x8004124
        0x08003eb6:    4806        .H      LDR      r0,[pc,#24] ; [0x8003ed0] = 0x20003f48
        0x08003eb8:    3050        P0      ADDS     r0,r0,#0x50
        0x08003eba:    f000f933    ..3.    BL       vListInitialise ; 0x8004124
        0x08003ebe:    4805        .H      LDR      r0,[pc,#20] ; [0x8003ed4] = 0x20000048
        0x08003ec0:    4903        .I      LDR      r1,[pc,#12] ; [0x8003ed0] = 0x20003f48
        0x08003ec2:    6381        .c      STR      r1,[r0,#0x38]
        0x08003ec4:    3114        .1      ADDS     r1,r1,#0x14
        0x08003ec6:    63c1        .c      STR      r1,[r0,#0x3c]
        0x08003ec8:    bd70        p.      POP      {r4-r6,pc}
    $d
        0x08003eca:    0000        ..      DCW    0
        0x08003ecc:    20003cc8    .<.     DCD    536886472
        0x08003ed0:    20003f48    H?.     DCD    536887112
        0x08003ed4:    20000048    H..     DCD    536870984
    $t
    i.prvInsertBlockIntoFreeList
    prvInsertBlockIntoFreeList
        0x08003ed8:    b530        0.      PUSH     {r4,r5,lr}
        0x08003eda:    4913        .I      LDR      r1,[pc,#76] ; [0x8003f28] = 0x2000003c
        0x08003edc:    e000        ..      B        0x8003ee0 ; prvInsertBlockIntoFreeList + 8
        0x08003ede:    4611        .F      MOV      r1,r2
        0x08003ee0:    680a        .h      LDR      r2,[r1,#0]
        0x08003ee2:    4282        .B      CMP      r2,r0
        0x08003ee4:    d3fb        ..      BCC      0x8003ede ; prvInsertBlockIntoFreeList + 6
        0x08003ee6:    684b        Kh      LDR      r3,[r1,#4]
        0x08003ee8:    185c        \.      ADDS     r4,r3,r1
        0x08003eea:    4284        .B      CMP      r4,r0
        0x08003eec:    d103        ..      BNE      0x8003ef6 ; prvInsertBlockIntoFreeList + 30
        0x08003eee:    6840        @h      LDR      r0,[r0,#4]
        0x08003ef0:    4418        .D      ADD      r0,r0,r3
        0x08003ef2:    6048        H`      STR      r0,[r1,#4]
        0x08003ef4:    4608        .F      MOV      r0,r1
        0x08003ef6:    680d        .h      LDR      r5,[r1,#0]
        0x08003ef8:    6844        Dh      LDR      r4,[r0,#4]
        0x08003efa:    1823        #.      ADDS     r3,r4,r0
        0x08003efc:    42ab        .B      CMP      r3,r5
        0x08003efe:    d10d        ..      BNE      0x8003f1c ; prvInsertBlockIntoFreeList + 68
        0x08003f00:    4b09        .K      LDR      r3,[pc,#36] ; [0x8003f28] = 0x2000003c
        0x08003f02:    3b14        .;      SUBS     r3,r3,#0x14
        0x08003f04:    681b        .h      LDR      r3,[r3,#0]
        0x08003f06:    429a        .B      CMP      r2,r3
        0x08003f08:    d006        ..      BEQ      0x8003f18 ; prvInsertBlockIntoFreeList + 64
        0x08003f0a:    6852        Rh      LDR      r2,[r2,#4]
        0x08003f0c:    4422        "D      ADD      r2,r2,r4
        0x08003f0e:    6042        B`      STR      r2,[r0,#4]
        0x08003f10:    680a        .h      LDR      r2,[r1,#0]
        0x08003f12:    6812        .h      LDR      r2,[r2,#0]
        0x08003f14:    6002        .`      STR      r2,[r0,#0]
        0x08003f16:    e002        ..      B        0x8003f1e ; prvInsertBlockIntoFreeList + 70
        0x08003f18:    6003        .`      STR      r3,[r0,#0]
        0x08003f1a:    e000        ..      B        0x8003f1e ; prvInsertBlockIntoFreeList + 70
        0x08003f1c:    6002        .`      STR      r2,[r0,#0]
        0x08003f1e:    4281        .B      CMP      r1,r0
        0x08003f20:    d000        ..      BEQ      0x8003f24 ; prvInsertBlockIntoFreeList + 76
        0x08003f22:    6008        .`      STR      r0,[r1,#0]
        0x08003f24:    bd30        0.      POP      {r4,r5,pc}
    $d
        0x08003f26:    0000        ..      DCW    0
        0x08003f28:    2000003c    <..     DCD    536870972
    $t
    i.prvIsQueueEmpty
    prvIsQueueEmpty
        0x08003f2c:    b510        ..      PUSH     {r4,lr}
        0x08003f2e:    4604        .F      MOV      r4,r0
        0x08003f30:    f000f92a    ..*.    BL       vPortEnterCritical ; 0x8004188
        0x08003f34:    6ba0        .k      LDR      r0,[r4,#0x38]
        0x08003f36:    b120         .      CBZ      r0,0x8003f42 ; prvIsQueueEmpty + 22
        0x08003f38:    2400        .$      MOVS     r4,#0
        0x08003f3a:    f000f933    ..3.    BL       vPortExitCritical ; 0x80041a4
        0x08003f3e:    4620         F      MOV      r0,r4
        0x08003f40:    bd10        ..      POP      {r4,pc}
        0x08003f42:    2401        .$      MOVS     r4,#1
        0x08003f44:    e7f9        ..      B        0x8003f3a ; prvIsQueueEmpty + 14
    i.prvIsQueueFull
    prvIsQueueFull
        0x08003f46:    b510        ..      PUSH     {r4,lr}
        0x08003f48:    4604        .F      MOV      r4,r0
        0x08003f4a:    f000f91d    ....    BL       vPortEnterCritical ; 0x8004188
        0x08003f4e:    6ba0        .k      LDR      r0,[r4,#0x38]
        0x08003f50:    6be1        .k      LDR      r1,[r4,#0x3c]
        0x08003f52:    4288        .B      CMP      r0,r1
        0x08003f54:    d101        ..      BNE      0x8003f5a ; prvIsQueueFull + 20
        0x08003f56:    2401        .$      MOVS     r4,#1
        0x08003f58:    e000        ..      B        0x8003f5c ; prvIsQueueFull + 22
        0x08003f5a:    2400        .$      MOVS     r4,#0
        0x08003f5c:    f000f922    ..".    BL       vPortExitCritical ; 0x80041a4
        0x08003f60:    4620         F      MOV      r0,r4
        0x08003f62:    bd10        ..      POP      {r4,pc}
    i.prvResetNextTaskUnblockTime
    prvResetNextTaskUnblockTime
        0x08003f64:    4806        .H      LDR      r0,[pc,#24] ; [0x8003f80] = 0x20000048
        0x08003f66:    6b81        .k      LDR      r1,[r0,#0x38]
        0x08003f68:    6809        .h      LDR      r1,[r1,#0]
        0x08003f6a:    2900        .)      CMP      r1,#0
        0x08003f6c:    d004        ..      BEQ      0x8003f78 ; prvResetNextTaskUnblockTime + 20
        0x08003f6e:    6b81        .k      LDR      r1,[r0,#0x38]
        0x08003f70:    68c9        .h      LDR      r1,[r1,#0xc]
        0x08003f72:    6809        .h      LDR      r1,[r1,#0]
        0x08003f74:    6281        .b      STR      r1,[r0,#0x28]
        0x08003f76:    4770        pG      BX       lr
        0x08003f78:    f04f31ff    O..1    MOV      r1,#0xffffffff
        0x08003f7c:    6281        .b      STR      r1,[r0,#0x28]
        0x08003f7e:    4770        pG      BX       lr
    $d
        0x08003f80:    20000048    H..     DCD    536870984
    $t
    i.prvTaskExitError
    prvTaskExitError
        0x08003f84:    2050        P       MOVS     r0,#0x50
        0x08003f86:    f3808811    ....    MSR      BASEPRI,r0
        0x08003f8a:    f3bf8f4f    ..O.    DSB      
        0x08003f8e:    f3bf8f6f    ..o.    ISB      
        0x08003f92:    e7fe        ..      B        0x8003f92 ; prvTaskExitError + 14
    i.prvUnlockQueue
    prvUnlockQueue
        0x08003f94:    e92d41f0    -..A    PUSH     {r4-r8,lr}
        0x08003f98:    4604        .F      MOV      r4,r0
        0x08003f9a:    f000f8f5    ....    BL       vPortEnterCritical ; 0x8004188
        0x08003f9e:    f9945045    ..EP    LDRSB    r5,[r4,#0x45]
        0x08003fa2:    f1040624    ..$.    ADD      r6,r4,#0x24
        0x08003fa6:    e009        ..      B        0x8003fbc ; prvUnlockQueue + 40
        0x08003fa8:    6a60        `j      LDR      r0,[r4,#0x24]
        0x08003faa:    b148        H.      CBZ      r0,0x8003fc0 ; prvUnlockQueue + 44
        0x08003fac:    4630        0F      MOV      r0,r6
        0x08003fae:    f000fdd9    ....    BL       xTaskRemoveFromEventList ; 0x8004b64
        0x08003fb2:    b108        ..      CBZ      r0,0x8003fb8 ; prvUnlockQueue + 36
        0x08003fb4:    f000f952    ..R.    BL       vTaskMissedYield ; 0x800425c
        0x08003fb8:    1e6d        m.      SUBS     r5,r5,#1
        0x08003fba:    b26d        m.      SXTB     r5,r5
        0x08003fbc:    2d00        .-      CMP      r5,#0
        0x08003fbe:    dcf3        ..      BGT      0x8003fa8 ; prvUnlockQueue + 20
        0x08003fc0:    f04f36ff    O..6    MOV      r6,#0xffffffff
        0x08003fc4:    f8846045    ..E`    STRB     r6,[r4,#0x45]
        0x08003fc8:    f000f8ec    ....    BL       vPortExitCritical ; 0x80041a4
        0x08003fcc:    f000f8dc    ....    BL       vPortEnterCritical ; 0x8004188
        0x08003fd0:    f9945044    ..DP    LDRSB    r5,[r4,#0x44]
        0x08003fd4:    f1040710    ....    ADD      r7,r4,#0x10
        0x08003fd8:    e009        ..      B        0x8003fee ; prvUnlockQueue + 90
        0x08003fda:    6920         i      LDR      r0,[r4,#0x10]
        0x08003fdc:    b148        H.      CBZ      r0,0x8003ff2 ; prvUnlockQueue + 94
        0x08003fde:    4638        8F      MOV      r0,r7
        0x08003fe0:    f000fdc0    ....    BL       xTaskRemoveFromEventList ; 0x8004b64
        0x08003fe4:    b108        ..      CBZ      r0,0x8003fea ; prvUnlockQueue + 86
        0x08003fe6:    f000f939    ..9.    BL       vTaskMissedYield ; 0x800425c
        0x08003fea:    1e6d        m.      SUBS     r5,r5,#1
        0x08003fec:    b26d        m.      SXTB     r5,r5
        0x08003fee:    2d00        .-      CMP      r5,#0
        0x08003ff0:    dcf3        ..      BGT      0x8003fda ; prvUnlockQueue + 70
        0x08003ff2:    f8846044    ..D`    STRB     r6,[r4,#0x44]
        0x08003ff6:    e8bd41f0    ...A    POP      {r4-r8,lr}
        0x08003ffa:    f000b8d3    ....    B.W      vPortExitCritical ; 0x80041a4
        0x08003ffe:    0000        ..      MOVS     r0,r0
    i.pvPortMalloc
    pvPortMalloc
        0x08004000:    e92d41f0    -..A    PUSH     {r4-r8,lr}
        0x08004004:    4605        .F      MOV      r5,r0
        0x08004006:    2600        .&      MOVS     r6,#0
        0x08004008:    f000fa0c    ....    BL       vTaskSuspendAll ; 0x8004424
        0x0800400c:    4f23        #O      LDR      r7,[pc,#140] ; [0x800409c] = 0x20000028
        0x0800400e:    6838        8h      LDR      r0,[r7,#0]
        0x08004010:    b908        ..      CBNZ     r0,0x8004016 ; pvPortMalloc + 22
        0x08004012:    f7fffea5    ....    BL       prvHeapInit ; 0x8003d60
        0x08004016:    b14d        M.      CBZ      r5,0x800402c ; pvPortMalloc + 44
        0x08004018:    f0050007    ....    AND      r0,r5,#7
        0x0800401c:    f1c00010    ....    RSB      r0,r0,#0x10
        0x08004020:    43c1        .C      MVNS     r1,r0
        0x08004022:    428d        .B      CMP      r5,r1
        0x08004024:    d801        ..      BHI      0x800402a ; pvPortMalloc + 42
        0x08004026:    4405        .D      ADD      r5,r5,r0
        0x08004028:    e000        ..      B        0x800402c ; pvPortMalloc + 44
        0x0800402a:    2500        .%      MOVS     r5,#0
        0x0800402c:    2d00        .-      CMP      r5,#0
        0x0800402e:    dd2f        /.      BLE      0x8004090 ; pvPortMalloc + 144
        0x08004030:    6878        xh      LDR      r0,[r7,#4]
        0x08004032:    4285        .B      CMP      r5,r0
        0x08004034:    d82c        ,.      BHI      0x8004090 ; pvPortMalloc + 144
        0x08004036:    4919        .I      LDR      r1,[pc,#100] ; [0x800409c] = 0x20000028
        0x08004038:    3114        .1      ADDS     r1,r1,#0x14
        0x0800403a:    4608        .F      MOV      r0,r1
        0x0800403c:    6804        .h      LDR      r4,[r0,#0]
        0x0800403e:    e001        ..      B        0x8004044 ; pvPortMalloc + 68
        0x08004040:    4621        !F      MOV      r1,r4
        0x08004042:    4604        .F      MOV      r4,r0
        0x08004044:    6860        `h      LDR      r0,[r4,#4]
        0x08004046:    42a8        .B      CMP      r0,r5
        0x08004048:    d202        ..      BCS      0x8004050 ; pvPortMalloc + 80
        0x0800404a:    6820         h      LDR      r0,[r4,#0]
        0x0800404c:    2800        .(      CMP      r0,#0
        0x0800404e:    d1f7        ..      BNE      0x8004040 ; pvPortMalloc + 64
        0x08004050:    6838        8h      LDR      r0,[r7,#0]
        0x08004052:    4284        .B      CMP      r4,r0
        0x08004054:    d01c        ..      BEQ      0x8004090 ; pvPortMalloc + 144
        0x08004056:    680e        .h      LDR      r6,[r1,#0]
        0x08004058:    3608        .6      ADDS     r6,r6,#8
        0x0800405a:    6820         h      LDR      r0,[r4,#0]
        0x0800405c:    6008        .`      STR      r0,[r1,#0]
        0x0800405e:    6860        `h      LDR      r0,[r4,#4]
        0x08004060:    1b41        A.      SUBS     r1,r0,r5
        0x08004062:    2910        .)      CMP      r1,#0x10
        0x08004064:    d904        ..      BLS      0x8004070 ; pvPortMalloc + 112
        0x08004066:    1960        `.      ADDS     r0,r4,r5
        0x08004068:    6041        A`      STR      r1,[r0,#4]
        0x0800406a:    6065        e`      STR      r5,[r4,#4]
        0x0800406c:    f7ffff34    ..4.    BL       prvInsertBlockIntoFreeList ; 0x8003ed8
        0x08004070:    6861        ah      LDR      r1,[r4,#4]
        0x08004072:    6878        xh      LDR      r0,[r7,#4]
        0x08004074:    1a40        @.      SUBS     r0,r0,r1
        0x08004076:    6078        x`      STR      r0,[r7,#4]
        0x08004078:    68ba        .h      LDR      r2,[r7,#8]
        0x0800407a:    4290        .B      CMP      r0,r2
        0x0800407c:    d200        ..      BCS      0x8004080 ; pvPortMalloc + 128
        0x0800407e:    60b8        .`      STR      r0,[r7,#8]
        0x08004080:    f0414000    A..@    ORR      r0,r1,#0x80000000
        0x08004084:    6060        ``      STR      r0,[r4,#4]
        0x08004086:    2000        .       MOVS     r0,#0
        0x08004088:    6020         `      STR      r0,[r4,#0]
        0x0800408a:    68f8        .h      LDR      r0,[r7,#0xc]
        0x0800408c:    1c40        @.      ADDS     r0,r0,#1
        0x0800408e:    60f8        .`      STR      r0,[r7,#0xc]
        0x08004090:    f000fdce    ....    BL       xTaskResumeAll ; 0x8004c30
        0x08004094:    4630        0F      MOV      r0,r6
        0x08004096:    e8bd81f0    ....    POP      {r4-r8,pc}
    $d
        0x0800409a:    0000        ..      DCW    0
        0x0800409c:    20000028    (..     DCD    536870952
    $t
    i.pvTaskIncrementMutexHeldCount
    pvTaskIncrementMutexHeldCount
        0x080040a0:    4904        .I      LDR      r1,[pc,#16] ; [0x80040b4] = 0x20000048
        0x080040a2:    6808        .h      LDR      r0,[r1,#0]
        0x080040a4:    2800        .(      CMP      r0,#0
        0x080040a6:    d003        ..      BEQ      0x80040b0 ; pvTaskIncrementMutexHeldCount + 16
        0x080040a8:    6808        .h      LDR      r0,[r1,#0]
        0x080040aa:    6c82        .l      LDR      r2,[r0,#0x48]
        0x080040ac:    1c52        R.      ADDS     r2,r2,#1
        0x080040ae:    6482        .d      STR      r2,[r0,#0x48]
        0x080040b0:    6808        .h      LDR      r0,[r1,#0]
        0x080040b2:    4770        pG      BX       lr
    $d
        0x080040b4:    20000048    H..     DCD    536870984
    $t
    i.pxPortInitialiseStack
    pxPortInitialiseStack
        0x080040b8:    3820         8      SUBS     r0,r0,#0x20
        0x080040ba:    f04f7380    O..s    MOV      r3,#0x1000000
        0x080040be:    61c3        .a      STR      r3,[r0,#0x1c]
        0x080040c0:    f0210101    !...    BIC      r1,r1,#1
        0x080040c4:    6181        .a      STR      r1,[r0,#0x18]
        0x080040c6:    4902        .I      LDR      r1,[pc,#8] ; [0x80040d0] = 0x8003f85
        0x080040c8:    6141        Aa      STR      r1,[r0,#0x14]
        0x080040ca:    f8402920    @. )    STR      r2,[r0],#-0x20
        0x080040ce:    4770        pG      BX       lr
    $d
        0x080040d0:    08003f85    .?..    DCD    134233989
    $t
    i.strtod
    strtod
        0x080040d4:    b500        ..      PUSH     {lr}
        0x080040d6:    b083        ..      SUB      sp,sp,#0xc
        0x080040d8:    460a        .F      MOV      r2,r1
        0x080040da:    2100        .!      MOVS     r1,#0
        0x080040dc:    e9cd1100    ....    STRD     r1,r1,[sp,#0]
        0x080040e0:    4601        .F      MOV      r1,r0
        0x080040e2:    4668        hF      MOV      r0,sp
        0x080040e4:    f7fcfb3f    ..?.    BL       __strtod_int ; 0x8000766
        0x080040e8:    e9dd0100    ....    LDRD     r0,r1,[sp,#0]
        0x080040ec:    b003        ..      ADD      sp,sp,#0xc
        0x080040ee:    bd00        ..      POP      {pc}
    i.uxListRemove
    uxListRemove
        0x080040f0:    6901        .i      LDR      r1,[r0,#0x10]
        0x080040f2:    e9d03201    ...2    LDRD     r3,r2,[r0,#4]
        0x080040f6:    609a        .`      STR      r2,[r3,#8]
        0x080040f8:    e9d02301    ...#    LDRD     r2,r3,[r0,#4]
        0x080040fc:    605a        Z`      STR      r2,[r3,#4]
        0x080040fe:    684a        Jh      LDR      r2,[r1,#4]
        0x08004100:    4282        .B      CMP      r2,r0
        0x08004102:    d101        ..      BNE      0x8004108 ; uxListRemove + 24
        0x08004104:    6882        .h      LDR      r2,[r0,#8]
        0x08004106:    604a        J`      STR      r2,[r1,#4]
        0x08004108:    2200        ."      MOVS     r2,#0
        0x0800410a:    6102        .a      STR      r2,[r0,#0x10]
        0x0800410c:    6808        .h      LDR      r0,[r1,#0]
        0x0800410e:    1e40        @.      SUBS     r0,r0,#1
        0x08004110:    6008        .`      STR      r0,[r1,#0]
        0x08004112:    6808        .h      LDR      r0,[r1,#0]
        0x08004114:    4770        pG      BX       lr
        0x08004116:    0000        ..      MOVS     r0,r0
    i.uxTaskGetNumberOfTasks
    uxTaskGetNumberOfTasks
        0x08004118:    4801        .H      LDR      r0,[pc,#4] ; [0x8004120] = 0x20000048
        0x0800411a:    6880        .h      LDR      r0,[r0,#8]
        0x0800411c:    4770        pG      BX       lr
    $d
        0x0800411e:    0000        ..      DCW    0
        0x08004120:    20000048    H..     DCD    536870984
    $t
    i.vListInitialise
    vListInitialise
        0x08004124:    f1000108    ....    ADD      r1,r0,#8
        0x08004128:    6041        A`      STR      r1,[r0,#4]
        0x0800412a:    f04f32ff    O..2    MOV      r2,#0xffffffff
        0x0800412e:    6082        .`      STR      r2,[r0,#8]
        0x08004130:    60c1        .`      STR      r1,[r0,#0xc]
        0x08004132:    6101        .a      STR      r1,[r0,#0x10]
        0x08004134:    2100        .!      MOVS     r1,#0
        0x08004136:    6001        .`      STR      r1,[r0,#0]
        0x08004138:    4770        pG      BX       lr
    i.vListInitialiseItem
    vListInitialiseItem
        0x0800413a:    2100        .!      MOVS     r1,#0
        0x0800413c:    6101        .a      STR      r1,[r0,#0x10]
        0x0800413e:    4770        pG      BX       lr
    i.vListInsert
    vListInsert
        0x08004140:    b530        0.      PUSH     {r4,r5,lr}
        0x08004142:    680c        .h      LDR      r4,[r1,#0]
        0x08004144:    1c62        b.      ADDS     r2,r4,#1
        0x08004146:    d002        ..      BEQ      0x800414e ; vListInsert + 14
        0x08004148:    f1000208    ....    ADD      r2,r0,#8
        0x0800414c:    e002        ..      B        0x8004154 ; vListInsert + 20
        0x0800414e:    6902        .i      LDR      r2,[r0,#0x10]
        0x08004150:    e004        ..      B        0x800415c ; vListInsert + 28
        0x08004152:    461a        .F      MOV      r2,r3
        0x08004154:    6853        Sh      LDR      r3,[r2,#4]
        0x08004156:    681d        .h      LDR      r5,[r3,#0]
        0x08004158:    42a5        .B      CMP      r5,r4
        0x0800415a:    d9fa        ..      BLS      0x8004152 ; vListInsert + 18
        0x0800415c:    6853        Sh      LDR      r3,[r2,#4]
        0x0800415e:    604b        K`      STR      r3,[r1,#4]
        0x08004160:    6099        .`      STR      r1,[r3,#8]
        0x08004162:    608a        .`      STR      r2,[r1,#8]
        0x08004164:    6051        Q`      STR      r1,[r2,#4]
        0x08004166:    6108        .a      STR      r0,[r1,#0x10]
        0x08004168:    6801        .h      LDR      r1,[r0,#0]
        0x0800416a:    1c49        I.      ADDS     r1,r1,#1
        0x0800416c:    6001        .`      STR      r1,[r0,#0]
        0x0800416e:    bd30        0.      POP      {r4,r5,pc}
    i.vListInsertEnd
    vListInsertEnd
        0x08004170:    6842        Bh      LDR      r2,[r0,#4]
        0x08004172:    604a        J`      STR      r2,[r1,#4]
        0x08004174:    6893        .h      LDR      r3,[r2,#8]
        0x08004176:    608b        .`      STR      r3,[r1,#8]
        0x08004178:    6893        .h      LDR      r3,[r2,#8]
        0x0800417a:    6059        Y`      STR      r1,[r3,#4]
        0x0800417c:    6091        .`      STR      r1,[r2,#8]
        0x0800417e:    6108        .a      STR      r0,[r1,#0x10]
        0x08004180:    6801        .h      LDR      r1,[r0,#0]
        0x08004182:    1c49        I.      ADDS     r1,r1,#1
        0x08004184:    6001        .`      STR      r1,[r0,#0]
        0x08004186:    4770        pG      BX       lr
    i.vPortEnterCritical
    vPortEnterCritical
        0x08004188:    2050        P       MOVS     r0,#0x50
        0x0800418a:    f3808811    ....    MSR      BASEPRI,r0
        0x0800418e:    f3bf8f4f    ..O.    DSB      
        0x08004192:    f3bf8f6f    ..o.    ISB      
        0x08004196:    4802        .H      LDR      r0,[pc,#8] ; [0x80041a0] = 0x20000044
        0x08004198:    6801        .h      LDR      r1,[r0,#0]
        0x0800419a:    1c49        I.      ADDS     r1,r1,#1
        0x0800419c:    6001        .`      STR      r1,[r0,#0]
        0x0800419e:    4770        pG      BX       lr
    $d
        0x080041a0:    20000044    D..     DCD    536870980
    $t
    i.vPortExitCritical
    vPortExitCritical
        0x080041a4:    4904        .I      LDR      r1,[pc,#16] ; [0x80041b8] = 0x20000044
        0x080041a6:    6808        .h      LDR      r0,[r1,#0]
        0x080041a8:    1e40        @.      SUBS     r0,r0,#1
        0x080041aa:    6008        .`      STR      r0,[r1,#0]
        0x080041ac:    2800        .(      CMP      r0,#0
        0x080041ae:    d101        ..      BNE      0x80041b4 ; vPortExitCritical + 16
        0x080041b0:    f3808811    ....    MSR      BASEPRI,r0
        0x080041b4:    4770        pG      BX       lr
    $d
        0x080041b6:    0000        ..      DCW    0
        0x080041b8:    20000044    D..     DCD    536870980
    $t
    i.vPortFree
    vPortFree
        0x080041bc:    b570        p.      PUSH     {r4-r6,lr}
        0x080041be:    2800        .(      CMP      r0,#0
        0x080041c0:    d01b        ..      BEQ      0x80041fa ; vPortFree + 62
        0x080041c2:    3808        .8      SUBS     r0,r0,#8
        0x080041c4:    4604        .F      MOV      r4,r0
        0x080041c6:    6860        `h      LDR      r0,[r4,#4]
        0x080041c8:    2800        .(      CMP      r0,#0
        0x080041ca:    da16        ..      BGE      0x80041fa ; vPortFree + 62
        0x080041cc:    6821        !h      LDR      r1,[r4,#0]
        0x080041ce:    2900        .)      CMP      r1,#0
        0x080041d0:    d113        ..      BNE      0x80041fa ; vPortFree + 62
        0x080041d2:    f0204000     ..@    BIC      r0,r0,#0x80000000
        0x080041d6:    6060        ``      STR      r0,[r4,#4]
        0x080041d8:    f000f924    ..$.    BL       vTaskSuspendAll ; 0x8004424
        0x080041dc:    4d07        .M      LDR      r5,[pc,#28] ; [0x80041fc] = 0x20000028
        0x080041de:    6860        `h      LDR      r0,[r4,#4]
        0x080041e0:    6869        ih      LDR      r1,[r5,#4]
        0x080041e2:    4408        .D      ADD      r0,r0,r1
        0x080041e4:    6068        h`      STR      r0,[r5,#4]
        0x080041e6:    4620         F      MOV      r0,r4
        0x080041e8:    f7fffe76    ..v.    BL       prvInsertBlockIntoFreeList ; 0x8003ed8
        0x080041ec:    6928        (i      LDR      r0,[r5,#0x10]
        0x080041ee:    1c40        @.      ADDS     r0,r0,#1
        0x080041f0:    6128        (a      STR      r0,[r5,#0x10]
        0x080041f2:    e8bd4070    ..p@    POP      {r4-r6,lr}
        0x080041f6:    f000bd1b    ....    B.W      xTaskResumeAll ; 0x8004c30
        0x080041fa:    bd70        p.      POP      {r4-r6,pc}
    $d
        0x080041fc:    20000028    (..     DCD    536870952
    $t
    i.vPortSetupTimerInterrupt
    vPortSetupTimerInterrupt
        0x08004200:    f04f20e0    O..     MOV      r0,#0xe000e000
        0x08004204:    2100        .!      MOVS     r1,#0
        0x08004206:    6101        .a      STR      r1,[r0,#0x10]
        0x08004208:    6181        .a      STR      r1,[r0,#0x18]
        0x0800420a:    4902        .I      LDR      r1,[pc,#8] ; [0x8004214] = 0x1193f
        0x0800420c:    6141        Aa      STR      r1,[r0,#0x14]
        0x0800420e:    2107        .!      MOVS     r1,#7
        0x08004210:    6101        .a      STR      r1,[r0,#0x10]
        0x08004212:    4770        pG      BX       lr
    $d
        0x08004214:    0001193f    ?...    DCD    71999
    $t
    i.vTaskDelay
    vTaskDelay
        0x08004218:    b510        ..      PUSH     {r4,lr}
        0x0800421a:    4602        .F      MOV      r2,r0
        0x0800421c:    2000        .       MOVS     r0,#0
        0x0800421e:    2a00        .*      CMP      r2,#0
        0x08004220:    d007        ..      BEQ      0x8004232 ; vTaskDelay + 26
        0x08004222:    f000f8ff    ....    BL       vTaskSuspendAll ; 0x8004424
        0x08004226:    2100        .!      MOVS     r1,#0
        0x08004228:    4610        .F      MOV      r0,r2
        0x0800422a:    f7fffc95    ....    BL       prvAddCurrentTaskToDelayedList ; 0x8003b58
        0x0800422e:    f000fcff    ....    BL       xTaskResumeAll ; 0x8004c30
        0x08004232:    2800        .(      CMP      r0,#0
        0x08004234:    d107        ..      BNE      0x8004246 ; vTaskDelay + 46
        0x08004236:    4904        .I      LDR      r1,[pc,#16] ; [0x8004248] = 0xe000ed04
        0x08004238:    f04f5080    O..P    MOV      r0,#0x10000000
        0x0800423c:    6008        .`      STR      r0,[r1,#0]
        0x0800423e:    f3bf8f4f    ..O.    DSB      
        0x08004242:    f3bf8f6f    ..o.    ISB      
        0x08004246:    bd10        ..      POP      {r4,pc}
    $d
        0x08004248:    e000ed04    ....    DCD    3758157060
    $t
    i.vTaskInternalSetTimeOutState
    vTaskInternalSetTimeOutState
        0x0800424c:    4902        .I      LDR      r1,[pc,#8] ; [0x8004258] = 0x20000048
        0x0800424e:    6a0a        .j      LDR      r2,[r1,#0x20]
        0x08004250:    6002        .`      STR      r2,[r0,#0]
        0x08004252:    68c9        .h      LDR      r1,[r1,#0xc]
        0x08004254:    6041        A`      STR      r1,[r0,#4]
        0x08004256:    4770        pG      BX       lr
    $d
        0x08004258:    20000048    H..     DCD    536870984
    $t
    i.vTaskMissedYield
    vTaskMissedYield
        0x0800425c:    4901        .I      LDR      r1,[pc,#4] ; [0x8004264] = 0x20000048
        0x0800425e:    2001        .       MOVS     r0,#1
        0x08004260:    61c8        .a      STR      r0,[r1,#0x1c]
        0x08004262:    4770        pG      BX       lr
    $d
        0x08004264:    20000048    H..     DCD    536870984
    $t
    i.vTaskPlaceOnEventList
    vTaskPlaceOnEventList
        0x08004268:    b510        ..      PUSH     {r4,lr}
        0x0800426a:    460c        .F      MOV      r4,r1
        0x0800426c:    4905        .I      LDR      r1,[pc,#20] ; [0x8004284] = 0x20000048
        0x0800426e:    6809        .h      LDR      r1,[r1,#0]
        0x08004270:    3118        .1      ADDS     r1,r1,#0x18
        0x08004272:    f7ffff65    ..e.    BL       vListInsert ; 0x8004140
        0x08004276:    4620         F      MOV      r0,r4
        0x08004278:    e8bd4010    ...@    POP      {r4,lr}
        0x0800427c:    2101        .!      MOVS     r1,#1
        0x0800427e:    f7ffbc6b    ..k.    B.W      prvAddCurrentTaskToDelayedList ; 0x8003b58
    $d
        0x08004282:    0000        ..      DCW    0
        0x08004284:    20000048    H..     DCD    536870984
    $t
    i.vTaskPriorityDisinheritAfterTimeout
    vTaskPriorityDisinheritAfterTimeout
        0x08004288:    b570        p.      PUSH     {r4-r6,lr}
        0x0800428a:    4604        .F      MOV      r4,r0
        0x0800428c:    2800        .(      CMP      r0,#0
        0x0800428e:    d044        D.      BEQ      0x800431a ; vTaskPriorityDisinheritAfterTimeout + 146
        0x08004290:    6c60        `l      LDR      r0,[r4,#0x44]
        0x08004292:    4288        .B      CMP      r0,r1
        0x08004294:    d300        ..      BCC      0x8004298 ; vTaskPriorityDisinheritAfterTimeout + 16
        0x08004296:    4601        .F      MOV      r1,r0
        0x08004298:    6ae0        .j      LDR      r0,[r4,#0x2c]
        0x0800429a:    4288        .B      CMP      r0,r1
        0x0800429c:    d03d        =.      BEQ      0x800431a ; vTaskPriorityDisinheritAfterTimeout + 146
        0x0800429e:    6ca2        .l      LDR      r2,[r4,#0x48]
        0x080042a0:    2a01        .*      CMP      r2,#1
        0x080042a2:    d13a        :.      BNE      0x800431a ; vTaskPriorityDisinheritAfterTimeout + 146
        0x080042a4:    62e1        .b      STR      r1,[r4,#0x2c]
        0x080042a6:    69a2        .i      LDR      r2,[r4,#0x18]
        0x080042a8:    2a00        .*      CMP      r2,#0
        0x080042aa:    db02        ..      BLT      0x80042b2 ; vTaskPriorityDisinheritAfterTimeout + 42
        0x080042ac:    f1c10120    .. .    RSB      r1,r1,#0x20
        0x080042b0:    61a1        .a      STR      r1,[r4,#0x18]
        0x080042b2:    4d1a        .M      LDR      r5,[pc,#104] ; [0x800431c] = 0x20003cc8
        0x080042b4:    eb000080    ....    ADD      r0,r0,r0,LSL #2
        0x080042b8:    6961        ai      LDR      r1,[r4,#0x14]
        0x080042ba:    eb050080    ....    ADD      r0,r5,r0,LSL #2
        0x080042be:    4281        .B      CMP      r1,r0
        0x080042c0:    d12b        +.      BNE      0x800431a ; vTaskPriorityDisinheritAfterTimeout + 146
        0x080042c2:    1d20         .      ADDS     r0,r4,#4
        0x080042c4:    f7ffff14    ....    BL       uxListRemove ; 0x80040f0
        0x080042c8:    4915        .I      LDR      r1,[pc,#84] ; [0x8004320] = 0x20000048
        0x080042ca:    2201        ."      MOVS     r2,#1
        0x080042cc:    b930        0.      CBNZ     r0,0x80042dc ; vTaskPriorityDisinheritAfterTimeout + 84
        0x080042ce:    f894002c    ..,.    LDRB     r0,[r4,#0x2c]
        0x080042d2:    690b        .i      LDR      r3,[r1,#0x10]
        0x080042d4:    fa02f000    ....    LSL      r0,r2,r0
        0x080042d8:    4383        .C      BICS     r3,r3,r0
        0x080042da:    610b        .a      STR      r3,[r1,#0x10]
        0x080042dc:    6ae0        .j      LDR      r0,[r4,#0x2c]
        0x080042de:    690b        .i      LDR      r3,[r1,#0x10]
        0x080042e0:    4082        .@      LSLS     r2,r2,r0
        0x080042e2:    431a        .C      ORRS     r2,r2,r3
        0x080042e4:    610a        .a      STR      r2,[r1,#0x10]
        0x080042e6:    eb000080    ....    ADD      r0,r0,r0,LSL #2
        0x080042ea:    eb050080    ....    ADD      r0,r5,r0,LSL #2
        0x080042ee:    6840        @h      LDR      r0,[r0,#4]
        0x080042f0:    60a0        .`      STR      r0,[r4,#8]
        0x080042f2:    6881        .h      LDR      r1,[r0,#8]
        0x080042f4:    60e1        .`      STR      r1,[r4,#0xc]
        0x080042f6:    6882        .h      LDR      r2,[r0,#8]
        0x080042f8:    1d21        !.      ADDS     r1,r4,#4
        0x080042fa:    6051        Q`      STR      r1,[r2,#4]
        0x080042fc:    6081        .`      STR      r1,[r0,#8]
        0x080042fe:    6ae0        .j      LDR      r0,[r4,#0x2c]
        0x08004300:    eb000080    ....    ADD      r0,r0,r0,LSL #2
        0x08004304:    eb050080    ....    ADD      r0,r5,r0,LSL #2
        0x08004308:    6160        `a      STR      r0,[r4,#0x14]
        0x0800430a:    6ae0        .j      LDR      r0,[r4,#0x2c]
        0x0800430c:    eb000080    ....    ADD      r0,r0,r0,LSL #2
        0x08004310:    f8551020    U. .    LDR      r1,[r5,r0,LSL #2]
        0x08004314:    1c49        I.      ADDS     r1,r1,#1
        0x08004316:    f8451020    E. .    STR      r1,[r5,r0,LSL #2]
        0x0800431a:    bd70        p.      POP      {r4-r6,pc}
    $d
        0x0800431c:    20003cc8    .<.     DCD    536886472
        0x08004320:    20000048    H..     DCD    536870984
    $t
    i.vTaskStartScheduler
    vTaskStartScheduler
        0x08004324:    b57c        |.      PUSH     {r2-r6,lr}
        0x08004326:    480f        .H      LDR      r0,[pc,#60] ; [0x8004364] = 0x20000074
        0x08004328:    2500        .%      MOVS     r5,#0
        0x0800432a:    e9cd5000    ...P    STRD     r5,r0,[sp,#0]
        0x0800432e:    462b        +F      MOV      r3,r5
        0x08004330:    2280        ."      MOVS     r2,#0x80
        0x08004332:    a10d        ..      ADR      r1,{pc}+0x36 ; 0x8004368
        0x08004334:    480e        .H      LDR      r0,[pc,#56] ; [0x8004370] = 0x8003da9
        0x08004336:    f000fab3    ....    BL       xTaskCreate ; 0x80048a0
        0x0800433a:    4c0a        .L      LDR      r4,[pc,#40] ; [0x8004364] = 0x20000074
        0x0800433c:    3c2c        ,<      SUBS     r4,r4,#0x2c
        0x0800433e:    2801        .(      CMP      r0,#1
        0x08004340:    d10e        ..      BNE      0x8004360 ; vTaskStartScheduler + 60
        0x08004342:    2050        P       MOVS     r0,#0x50
        0x08004344:    f3808811    ....    MSR      BASEPRI,r0
        0x08004348:    f3bf8f4f    ..O.    DSB      
        0x0800434c:    f3bf8f6f    ..o.    ISB      
        0x08004350:    f04f30ff    O..0    MOV      r0,#0xffffffff
        0x08004354:    62a0        .b      STR      r0,[r4,#0x28]
        0x08004356:    2001        .       MOVS     r0,#1
        0x08004358:    6160        `a      STR      r0,[r4,#0x14]
        0x0800435a:    60e5        .`      STR      r5,[r4,#0xc]
        0x0800435c:    f000f88e    ....    BL       xPortStartScheduler ; 0x800447c
        0x08004360:    6b20         k      LDR      r0,[r4,#0x30]
        0x08004362:    bd7c        |.      POP      {r2-r6,pc}
    $d
        0x08004364:    20000074    t..     DCD    536871028
        0x08004368:    454c4449    IDLE    DCD    1162626121
        0x0800436c:    00000000    ....    DCD    0
        0x08004370:    08003da9    .=..    DCD    134233513
    $t
    i.vTaskSuspend
    vTaskSuspend
        0x08004374:    b570        p.      PUSH     {r4-r6,lr}
        0x08004376:    4604        .F      MOV      r4,r0
        0x08004378:    f7ffff06    ....    BL       vPortEnterCritical ; 0x8004188
        0x0800437c:    4d25        %M      LDR      r5,[pc,#148] ; [0x8004414] = 0x20000048
        0x0800437e:    b904        ..      CBNZ     r4,0x8004382 ; vTaskSuspend + 14
        0x08004380:    682c        ,h      LDR      r4,[r5,#0]
        0x08004382:    1d20         .      ADDS     r0,r4,#4
        0x08004384:    f7fffeb4    ....    BL       uxListRemove ; 0x80040f0
        0x08004388:    b958        X.      CBNZ     r0,0x80043a2 ; vTaskSuspend + 46
        0x0800438a:    6ae0        .j      LDR      r0,[r4,#0x2c]
        0x0800438c:    4a22        "J      LDR      r2,[pc,#136] ; [0x8004418] = 0x20003cc8
        0x0800438e:    eb000180    ....    ADD      r1,r0,r0,LSL #2
        0x08004392:    f8521021    R.!.    LDR      r1,[r2,r1,LSL #2]
        0x08004396:    b921        !.      CBNZ     r1,0x80043a2 ; vTaskSuspend + 46
        0x08004398:    2101        .!      MOVS     r1,#1
        0x0800439a:    4081        .@      LSLS     r1,r1,r0
        0x0800439c:    6928        (i      LDR      r0,[r5,#0x10]
        0x0800439e:    4388        .C      BICS     r0,r0,r1
        0x080043a0:    6128        (a      STR      r0,[r5,#0x10]
        0x080043a2:    6aa0        .j      LDR      r0,[r4,#0x28]
        0x080043a4:    b118        ..      CBZ      r0,0x80043ae ; vTaskSuspend + 58
        0x080043a6:    f1040018    ....    ADD      r0,r4,#0x18
        0x080043aa:    f7fffea1    ....    BL       uxListRemove ; 0x80040f0
        0x080043ae:    1d21        !.      ADDS     r1,r4,#4
        0x080043b0:    481a        .H      LDR      r0,[pc,#104] ; [0x800441c] = 0x20003f98
        0x080043b2:    f7fffedd    ....    BL       vListInsertEnd ; 0x8004170
        0x080043b6:    2000        .       MOVS     r0,#0
        0x080043b8:    2600        .&      MOVS     r6,#0
        0x080043ba:    1821        !.      ADDS     r1,r4,r0
        0x080043bc:    f8912050    ..P     LDRB     r2,[r1,#0x50]
        0x080043c0:    2a01        .*      CMP      r2,#1
        0x080043c2:    d101        ..      BNE      0x80043c8 ; vTaskSuspend + 84
        0x080043c4:    f8816050    ..P`    STRB     r6,[r1,#0x50]
        0x080043c8:    1c40        @.      ADDS     r0,r0,#1
        0x080043ca:    2801        .(      CMP      r0,#1
        0x080043cc:    dbf5        ..      BLT      0x80043ba ; vTaskSuspend + 70
        0x080043ce:    f7fffee9    ....    BL       vPortExitCritical ; 0x80041a4
        0x080043d2:    6968        hi      LDR      r0,[r5,#0x14]
        0x080043d4:    b128        (.      CBZ      r0,0x80043e2 ; vTaskSuspend + 110
        0x080043d6:    f7fffed7    ....    BL       vPortEnterCritical ; 0x8004188
        0x080043da:    f7fffdc3    ....    BL       prvResetNextTaskUnblockTime ; 0x8003f64
        0x080043de:    f7fffee1    ....    BL       vPortExitCritical ; 0x80041a4
        0x080043e2:    6828        (h      LDR      r0,[r5,#0]
        0x080043e4:    4284        .B      CMP      r4,r0
        0x080043e6:    d109        ..      BNE      0x80043fc ; vTaskSuspend + 136
        0x080043e8:    6968        hi      LDR      r0,[r5,#0x14]
        0x080043ea:    b140        @.      CBZ      r0,0x80043fe ; vTaskSuspend + 138
        0x080043ec:    490c        .I      LDR      r1,[pc,#48] ; [0x8004420] = 0xe000ed04
        0x080043ee:    f04f5080    O..P    MOV      r0,#0x10000000
        0x080043f2:    6008        .`      STR      r0,[r1,#0]
        0x080043f4:    f3bf8f4f    ..O.    DSB      
        0x080043f8:    f3bf8f6f    ..o.    ISB      
        0x080043fc:    bd70        p.      POP      {r4-r6,pc}
        0x080043fe:    4807        .H      LDR      r0,[pc,#28] ; [0x800441c] = 0x20003f98
        0x08004400:    6800        .h      LDR      r0,[r0,#0]
        0x08004402:    68a9        .h      LDR      r1,[r5,#8]
        0x08004404:    4288        .B      CMP      r0,r1
        0x08004406:    d101        ..      BNE      0x800440c ; vTaskSuspend + 152
        0x08004408:    602e        .`      STR      r6,[r5,#0]
        0x0800440a:    bd70        p.      POP      {r4-r6,pc}
        0x0800440c:    e8bd4070    ..p@    POP      {r4-r6,lr}
        0x08004410:    f000b810    ....    B.W      vTaskSwitchContext ; 0x8004434
    $d
        0x08004414:    20000048    H..     DCD    536870984
        0x08004418:    20003cc8    .<.     DCD    536886472
        0x0800441c:    20003f98    .?.     DCD    536887192
        0x08004420:    e000ed04    ....    DCD    3758157060
    $t
    i.vTaskSuspendAll
    vTaskSuspendAll
        0x08004424:    4802        .H      LDR      r0,[pc,#8] ; [0x8004430] = 0x20000048
        0x08004426:    6b41        Ak      LDR      r1,[r0,#0x34]
        0x08004428:    1c49        I.      ADDS     r1,r1,#1
        0x0800442a:    6341        Ac      STR      r1,[r0,#0x34]
        0x0800442c:    4770        pG      BX       lr
    $d
        0x0800442e:    0000        ..      DCW    0
        0x08004430:    20000048    H..     DCD    536870984
    $t
    i.vTaskSwitchContext
    vTaskSwitchContext
        0x08004434:    4a0f        .J      LDR      r2,[pc,#60] ; [0x8004474] = 0x20000048
        0x08004436:    6b50        Pk      LDR      r0,[r2,#0x34]
        0x08004438:    2800        .(      CMP      r0,#0
        0x0800443a:    d002        ..      BEQ      0x8004442 ; vTaskSwitchContext + 14
        0x0800443c:    2001        .       MOVS     r0,#1
        0x0800443e:    61d0        .a      STR      r0,[r2,#0x1c]
        0x08004440:    4770        pG      BX       lr
        0x08004442:    2000        .       MOVS     r0,#0
        0x08004444:    61d0        .a      STR      r0,[r2,#0x1c]
        0x08004446:    6910        .i      LDR      r0,[r2,#0x10]
        0x08004448:    fab0f080    ....    CLZ      r0,r0
        0x0800444c:    f1c0001f    ....    RSB      r0,r0,#0x1f
        0x08004450:    4909        .I      LDR      r1,[pc,#36] ; [0x8004478] = 0x20003cc8
        0x08004452:    eb000080    ....    ADD      r0,r0,r0,LSL #2
        0x08004456:    eb010080    ....    ADD      r0,r1,r0,LSL #2
        0x0800445a:    6841        Ah      LDR      r1,[r0,#4]
        0x0800445c:    6849        Ih      LDR      r1,[r1,#4]
        0x0800445e:    6041        A`      STR      r1,[r0,#4]
        0x08004460:    f1000308    ....    ADD      r3,r0,#8
        0x08004464:    4299        .B      CMP      r1,r3
        0x08004466:    d101        ..      BNE      0x800446c ; vTaskSwitchContext + 56
        0x08004468:    6849        Ih      LDR      r1,[r1,#4]
        0x0800446a:    6041        A`      STR      r1,[r0,#4]
        0x0800446c:    6840        @h      LDR      r0,[r0,#4]
        0x0800446e:    68c0        .h      LDR      r0,[r0,#0xc]
        0x08004470:    6010        .`      STR      r0,[r2,#0]
        0x08004472:    4770        pG      BX       lr
    $d
        0x08004474:    20000048    H..     DCD    536870984
        0x08004478:    20003cc8    .<.     DCD    536886472
    $t
    i.xPortStartScheduler
    xPortStartScheduler
        0x0800447c:    b510        ..      PUSH     {r4,lr}
        0x0800447e:    4809        .H      LDR      r0,[pc,#36] ; [0x80044a4] = 0xe000ed20
        0x08004480:    6801        .h      LDR      r1,[r0,#0]
        0x08004482:    f4410170    A.p.    ORR      r1,r1,#0xf00000
        0x08004486:    6001        .`      STR      r1,[r0,#0]
        0x08004488:    6801        .h      LDR      r1,[r0,#0]
        0x0800448a:    f0414170    A.pA    ORR      r1,r1,#0xf0000000
        0x0800448e:    6001        .`      STR      r1,[r0,#0]
        0x08004490:    f7fffeb6    ....    BL       vPortSetupTimerInterrupt ; 0x8004200
        0x08004494:    4904        .I      LDR      r1,[pc,#16] ; [0x80044a8] = 0x20000044
        0x08004496:    2000        .       MOVS     r0,#0
        0x08004498:    6008        .`      STR      r0,[r1,#0]
        0x0800449a:    f7fbfe43    ..C.    BL       __asm___6_port_c_39a90d8d__prvStartFirstTask ; 0x8000124
        0x0800449e:    2000        .       MOVS     r0,#0
        0x080044a0:    bd10        ..      POP      {r4,pc}
    $d
        0x080044a2:    0000        ..      DCW    0
        0x080044a4:    e000ed20     ...    DCD    3758157088
        0x080044a8:    20000044    D..     DCD    536870980
    $t
    i.xPortSysTickHandler
    xPortSysTickHandler
        0x080044ac:    b510        ..      PUSH     {r4,lr}
        0x080044ae:    2050        P       MOVS     r0,#0x50
        0x080044b0:    f3808811    ....    MSR      BASEPRI,r0
        0x080044b4:    f3bf8f4f    ..O.    DSB      
        0x080044b8:    f3bf8f6f    ..o.    ISB      
        0x080044bc:    f000fa24    ..$.    BL       xTaskIncrementTick ; 0x8004908
        0x080044c0:    b118        ..      CBZ      r0,0x80044ca ; xPortSysTickHandler + 30
        0x080044c2:    4904        .I      LDR      r1,[pc,#16] ; [0x80044d4] = 0xe000ed04
        0x080044c4:    f04f5080    O..P    MOV      r0,#0x10000000
        0x080044c8:    6008        .`      STR      r0,[r1,#0]
        0x080044ca:    2000        .       MOVS     r0,#0
        0x080044cc:    f3808811    ....    MSR      BASEPRI,r0
        0x080044d0:    bd10        ..      POP      {r4,pc}
    $d
        0x080044d2:    0000        ..      DCW    0
        0x080044d4:    e000ed04    ....    DCD    3758157060
    $t
    i.xQueueCreateMutex
    xQueueCreateMutex
        0x080044d8:    b510        ..      PUSH     {r4,lr}
        0x080044da:    4602        .F      MOV      r2,r0
        0x080044dc:    2100        .!      MOVS     r1,#0
        0x080044de:    2001        .       MOVS     r0,#1
        0x080044e0:    f000f806    ....    BL       xQueueGenericCreate ; 0x80044f0
        0x080044e4:    4604        .F      MOV      r4,r0
        0x080044e6:    4620         F      MOV      r0,r4
        0x080044e8:    f7fffc72    ..r.    BL       prvInitialiseMutex ; 0x8003dd0
        0x080044ec:    4620         F      MOV      r0,r4
        0x080044ee:    bd10        ..      POP      {r4,pc}
    i.xQueueGenericCreate
    xQueueGenericCreate
        0x080044f0:    b5f8        ..      PUSH     {r3-r7,lr}
        0x080044f2:    4605        .F      MOV      r5,r0
        0x080044f4:    460e        .F      MOV      r6,r1
        0x080044f6:    4617        .F      MOV      r7,r2
        0x080044f8:    2400        .$      MOVS     r4,#0
        0x080044fa:    2d00        .-      CMP      r5,#0
        0x080044fc:    d016        ..      BEQ      0x800452c ; xQueueGenericCreate + 60
        0x080044fe:    1e60        `.      SUBS     r0,r4,#1
        0x08004500:    fbb0f0f5    ....    UDIV     r0,r0,r5
        0x08004504:    42b0        .B      CMP      r0,r6
        0x08004506:    d311        ..      BCC      0x800452c ; xQueueGenericCreate + 60
        0x08004508:    fb05f006    ....    MUL      r0,r5,r6
        0x0800450c:    f1100f49    ..I.    CMN      r0,#0x49
        0x08004510:    d80c        ..      BHI      0x800452c ; xQueueGenericCreate + 60
        0x08004512:    3048        H0      ADDS     r0,r0,#0x48
        0x08004514:    f7fffd74    ..t.    BL       pvPortMalloc ; 0x8004000
        0x08004518:    4604        .F      MOV      r4,r0
        0x0800451a:    b13c        <.      CBZ      r4,0x800452c ; xQueueGenericCreate + 60
        0x0800451c:    4622        "F      MOV      r2,r4
        0x0800451e:    3248        H2      ADDS     r2,r2,#0x48
        0x08004520:    463b        ;F      MOV      r3,r7
        0x08004522:    4631        1F      MOV      r1,r6
        0x08004524:    4628        (F      MOV      r0,r5
        0x08004526:    9400        ..      STR      r4,[sp,#0]
        0x08004528:    f7fffc5e    ..^.    BL       prvInitialiseNewQueue ; 0x8003de8
        0x0800452c:    4620         F      MOV      r0,r4
        0x0800452e:    bdf8        ..      POP      {r3-r7,pc}
    i.xQueueGenericReset
    xQueueGenericReset
        0x08004530:    e92d41f0    -..A    PUSH     {r4-r8,lr}
        0x08004534:    4604        .F      MOV      r4,r0
        0x08004536:    460f        .F      MOV      r7,r1
        0x08004538:    2501        .%      MOVS     r5,#1
        0x0800453a:    2c00        .,      CMP      r4,#0
        0x0800453c:    d03b        ;.      BEQ      0x80045b6 ; xQueueGenericReset + 134
        0x0800453e:    6be2        .k      LDR      r2,[r4,#0x3c]
        0x08004540:    b3c2        ..      CBZ      r2,0x80045b4 ; xQueueGenericReset + 132
        0x08004542:    1eae        ..      SUBS     r6,r5,#2
        0x08004544:    fbb6f1f2    ....    UDIV     r1,r6,r2
        0x08004548:    6c20         l      LDR      r0,[r4,#0x40]
        0x0800454a:    4281        .B      CMP      r1,r0
        0x0800454c:    d333        3.      BCC      0x80045b6 ; xQueueGenericReset + 134
        0x0800454e:    f7fffe1b    ....    BL       vPortEnterCritical ; 0x8004188
        0x08004552:    e9d4200f    ...     LDRD     r2,r0,[r4,#0x3c]
        0x08004556:    6821        !h      LDR      r1,[r4,#0]
        0x08004558:    fb021100    ....    MLA      r1,r2,r0,r1
        0x0800455c:    60a1        .`      STR      r1,[r4,#8]
        0x0800455e:    2100        .!      MOVS     r1,#0
        0x08004560:    63a1        .c      STR      r1,[r4,#0x38]
        0x08004562:    6821        !h      LDR      r1,[r4,#0]
        0x08004564:    6061        a`      STR      r1,[r4,#4]
        0x08004566:    6be0        .k      LDR      r0,[r4,#0x3c]
        0x08004568:    6822        "h      LDR      r2,[r4,#0]
        0x0800456a:    6c21        !l      LDR      r1,[r4,#0x40]
        0x0800456c:    1e40        @.      SUBS     r0,r0,#1
        0x0800456e:    fb002101    ...!    MLA      r1,r0,r1,r2
        0x08004572:    60e1        .`      STR      r1,[r4,#0xc]
        0x08004574:    f8846044    ..D`    STRB     r6,[r4,#0x44]
        0x08004578:    f8846045    ..E`    STRB     r6,[r4,#0x45]
        0x0800457c:    f1040010    ....    ADD      r0,r4,#0x10
        0x08004580:    b147        G.      CBZ      r7,0x8004594 ; xQueueGenericReset + 100
        0x08004582:    f7fffdcf    ....    BL       vListInitialise ; 0x8004124
        0x08004586:    f1040024    ..$.    ADD      r0,r4,#0x24
        0x0800458a:    f7fffdcb    ....    BL       vListInitialise ; 0x8004124
        0x0800458e:    f7fffe09    ....    BL       vPortExitCritical ; 0x80041a4
        0x08004592:    e011        ..      B        0x80045b8 ; xQueueGenericReset + 136
        0x08004594:    6921        !i      LDR      r1,[r4,#0x10]
        0x08004596:    2900        .)      CMP      r1,#0
        0x08004598:    d0f9        ..      BEQ      0x800458e ; xQueueGenericReset + 94
        0x0800459a:    f000fae3    ....    BL       xTaskRemoveFromEventList ; 0x8004b64
        0x0800459e:    2800        .(      CMP      r0,#0
        0x080045a0:    d0f5        ..      BEQ      0x800458e ; xQueueGenericReset + 94
        0x080045a2:    4907        .I      LDR      r1,[pc,#28] ; [0x80045c0] = 0xe000ed04
        0x080045a4:    f04f5080    O..P    MOV      r0,#0x10000000
        0x080045a8:    6008        .`      STR      r0,[r1,#0]
        0x080045aa:    f3bf8f4f    ..O.    DSB      
        0x080045ae:    f3bf8f6f    ..o.    ISB      
        0x080045b2:    e7ec        ..      B        0x800458e ; xQueueGenericReset + 94
        0x080045b4:    e7ff        ..      B        0x80045b6 ; xQueueGenericReset + 134
        0x080045b6:    2500        .%      MOVS     r5,#0
        0x080045b8:    4628        (F      MOV      r0,r5
        0x080045ba:    e8bd81f0    ....    POP      {r4-r8,pc}
    $d
        0x080045be:    0000        ..      DCW    0
        0x080045c0:    e000ed04    ....    DCD    3758157060
    $t
    i.xQueueGenericSend
    xQueueGenericSend
        0x080045c4:    e92d47ff    -..G    PUSH     {r0-r10,lr}
        0x080045c8:    b082        ..      SUB      sp,sp,#8
        0x080045ca:    4604        .F      MOV      r4,r0
        0x080045cc:    468a        .F      MOV      r10,r1
        0x080045ce:    4699        .F      MOV      r9,r3
        0x080045d0:    2500        .%      MOVS     r5,#0
        0x080045d2:    46a8        .F      MOV      r8,r5
        0x080045d4:    f04f5680    O..V    MOV      r6,#0x10000000
        0x080045d8:    4f37        7O      LDR      r7,[pc,#220] ; [0x80046b8] = 0xe000ed04
        0x080045da:    f7fffdd5    ....    BL       vPortEnterCritical ; 0x8004188
        0x080045de:    6ba0        .k      LDR      r0,[r4,#0x38]
        0x080045e0:    6be1        .k      LDR      r1,[r4,#0x3c]
        0x080045e2:    4288        .B      CMP      r0,r1
        0x080045e4:    d306        ..      BCC      0x80045f4 ; xQueueGenericSend + 48
        0x080045e6:    f1b90f02    ....    CMP      r9,#2
        0x080045ea:    d003        ..      BEQ      0x80045f4 ; xQueueGenericSend + 48
        0x080045ec:    9804        ..      LDR      r0,[sp,#0x10]
        0x080045ee:    b1f8        ..      CBZ      r0,0x8004630 ; xQueueGenericSend + 108
        0x080045f0:    b315        ..      CBZ      r5,0x8004638 ; xQueueGenericSend + 116
        0x080045f2:    e025        %.      B        0x8004640 ; xQueueGenericSend + 124
        0x080045f4:    464a        JF      MOV      r2,r9
        0x080045f6:    4651        QF      MOV      r1,r10
        0x080045f8:    4620         F      MOV      r0,r4
        0x080045fa:    f7fffb65    ..e.    BL       prvCopyDataToQueue ; 0x8003cc8
        0x080045fe:    6a61        aj      LDR      r1,[r4,#0x24]
        0x08004600:    b151        Q.      CBZ      r1,0x8004618 ; xQueueGenericSend + 84
        0x08004602:    f1040024    ..$.    ADD      r0,r4,#0x24
        0x08004606:    f000faad    ....    BL       xTaskRemoveFromEventList ; 0x8004b64
        0x0800460a:    b158        X.      CBZ      r0,0x8004624 ; xQueueGenericSend + 96
        0x0800460c:    603e        >`      STR      r6,[r7,#0]
        0x0800460e:    f3bf8f4f    ..O.    DSB      
        0x08004612:    f3bf8f6f    ..o.    ISB      
        0x08004616:    e005        ..      B        0x8004624 ; xQueueGenericSend + 96
        0x08004618:    b120         .      CBZ      r0,0x8004624 ; xQueueGenericSend + 96
        0x0800461a:    603e        >`      STR      r6,[r7,#0]
        0x0800461c:    f3bf8f4f    ..O.    DSB      
        0x08004620:    f3bf8f6f    ..o.    ISB      
        0x08004624:    f7fffdbe    ....    BL       vPortExitCritical ; 0x80041a4
        0x08004628:    2001        .       MOVS     r0,#1
        0x0800462a:    b006        ..      ADD      sp,sp,#0x18
        0x0800462c:    e8bd87f0    ....    POP      {r4-r10,pc}
        0x08004630:    f7fffdb8    ....    BL       vPortExitCritical ; 0x80041a4
        0x08004634:    2000        .       MOVS     r0,#0
        0x08004636:    e7f8        ..      B        0x800462a ; xQueueGenericSend + 102
        0x08004638:    4668        hF      MOV      r0,sp
        0x0800463a:    f7fffe07    ....    BL       vTaskInternalSetTimeOutState ; 0x800424c
        0x0800463e:    2501        .%      MOVS     r5,#1
        0x08004640:    f7fffdb0    ....    BL       vPortExitCritical ; 0x80041a4
        0x08004644:    f7fffeee    ....    BL       vTaskSuspendAll ; 0x8004424
        0x08004648:    f7fffd9e    ....    BL       vPortEnterCritical ; 0x8004188
        0x0800464c:    f9940044    ..D.    LDRSB    r0,[r4,#0x44]
        0x08004650:    1c40        @.      ADDS     r0,r0,#1
        0x08004652:    d101        ..      BNE      0x8004658 ; xQueueGenericSend + 148
        0x08004654:    f8848044    ..D.    STRB     r8,[r4,#0x44]
        0x08004658:    f9940045    ..E.    LDRSB    r0,[r4,#0x45]
        0x0800465c:    1c40        @.      ADDS     r0,r0,#1
        0x0800465e:    d101        ..      BNE      0x8004664 ; xQueueGenericSend + 160
        0x08004660:    f8848045    ..E.    STRB     r8,[r4,#0x45]
        0x08004664:    f7fffd9e    ....    BL       vPortExitCritical ; 0x80041a4
        0x08004668:    a904        ..      ADD      r1,sp,#0x10
        0x0800466a:    4668        hF      MOV      r0,sp
        0x0800466c:    f000f8ec    ....    BL       xTaskCheckForTimeOut ; 0x8004848
        0x08004670:    b130        0.      CBZ      r0,0x8004680 ; xQueueGenericSend + 188
        0x08004672:    4620         F      MOV      r0,r4
        0x08004674:    f7fffc8e    ....    BL       prvUnlockQueue ; 0x8003f94
        0x08004678:    f000fada    ....    BL       xTaskResumeAll ; 0x8004c30
        0x0800467c:    2000        .       MOVS     r0,#0
        0x0800467e:    e7d4        ..      B        0x800462a ; xQueueGenericSend + 102
        0x08004680:    4620         F      MOV      r0,r4
        0x08004682:    f7fffc60    ..`.    BL       prvIsQueueFull ; 0x8003f46
        0x08004686:    b188        ..      CBZ      r0,0x80046ac ; xQueueGenericSend + 232
        0x08004688:    f1040010    ....    ADD      r0,r4,#0x10
        0x0800468c:    9904        ..      LDR      r1,[sp,#0x10]
        0x0800468e:    f7fffdeb    ....    BL       vTaskPlaceOnEventList ; 0x8004268
        0x08004692:    4620         F      MOV      r0,r4
        0x08004694:    f7fffc7e    ..~.    BL       prvUnlockQueue ; 0x8003f94
        0x08004698:    f000faca    ....    BL       xTaskResumeAll ; 0x8004c30
        0x0800469c:    2800        .(      CMP      r0,#0
        0x0800469e:    d19c        ..      BNE      0x80045da ; xQueueGenericSend + 22
        0x080046a0:    603e        >`      STR      r6,[r7,#0]
        0x080046a2:    f3bf8f4f    ..O.    DSB      
        0x080046a6:    f3bf8f6f    ..o.    ISB      
        0x080046aa:    e796        ..      B        0x80045da ; xQueueGenericSend + 22
        0x080046ac:    4620         F      MOV      r0,r4
        0x080046ae:    f7fffc71    ..q.    BL       prvUnlockQueue ; 0x8003f94
        0x080046b2:    f000fabd    ....    BL       xTaskResumeAll ; 0x8004c30
        0x080046b6:    e790        ..      B        0x80045da ; xQueueGenericSend + 22
    $d
        0x080046b8:    e000ed04    ....    DCD    3758157060
    $t
    i.xQueueGiveFromISR
    xQueueGiveFromISR
        0x080046bc:    e92d41f0    -..A    PUSH     {r4-r8,lr}
        0x080046c0:    4604        .F      MOV      r4,r0
        0x080046c2:    460f        .F      MOV      r7,r1
        0x080046c4:    2050        P       MOVS     r0,#0x50
        0x080046c6:    f3ef8611    ....    MRS      r6,BASEPRI
        0x080046ca:    f3808811    ....    MSR      BASEPRI,r0
        0x080046ce:    f3bf8f4f    ..O.    DSB      
        0x080046d2:    f3bf8f6f    ..o.    ISB      
        0x080046d6:    6ba2        .k      LDR      r2,[r4,#0x38]
        0x080046d8:    6be0        .k      LDR      r0,[r4,#0x3c]
        0x080046da:    4290        .B      CMP      r0,r2
        0x080046dc:    d91c        ..      BLS      0x8004718 ; xQueueGiveFromISR + 92
        0x080046de:    f9945045    ..EP    LDRSB    r5,[r4,#0x45]
        0x080046e2:    1c52        R.      ADDS     r2,r2,#1
        0x080046e4:    63a2        .c      STR      r2,[r4,#0x38]
        0x080046e6:    1c68        h.      ADDS     r0,r5,#1
        0x080046e8:    d008        ..      BEQ      0x80046fc ; xQueueGiveFromISR + 64
        0x080046ea:    f7fffd15    ....    BL       uxTaskGetNumberOfTasks ; 0x8004118
        0x080046ee:    4285        .B      CMP      r5,r0
        0x080046f0:    d202        ..      BCS      0x80046f8 ; xQueueGiveFromISR + 60
        0x080046f2:    1c6d        m.      ADDS     r5,r5,#1
        0x080046f4:    f8845045    ..EP    STRB     r5,[r4,#0x45]
        0x080046f8:    2001        .       MOVS     r0,#1
        0x080046fa:    e00e        ..      B        0x800471a ; xQueueGiveFromISR + 94
        0x080046fc:    6a60        `j      LDR      r0,[r4,#0x24]
        0x080046fe:    2800        .(      CMP      r0,#0
        0x08004700:    d0fa        ..      BEQ      0x80046f8 ; xQueueGiveFromISR + 60
        0x08004702:    f1040024    ..$.    ADD      r0,r4,#0x24
        0x08004706:    f000fa2d    ..-.    BL       xTaskRemoveFromEventList ; 0x8004b64
        0x0800470a:    2800        .(      CMP      r0,#0
        0x0800470c:    d0f4        ..      BEQ      0x80046f8 ; xQueueGiveFromISR + 60
        0x0800470e:    2f00        ./      CMP      r7,#0
        0x08004710:    d0f2        ..      BEQ      0x80046f8 ; xQueueGiveFromISR + 60
        0x08004712:    2001        .       MOVS     r0,#1
        0x08004714:    6038        8`      STR      r0,[r7,#0]
        0x08004716:    e7ef        ..      B        0x80046f8 ; xQueueGiveFromISR + 60
        0x08004718:    2000        .       MOVS     r0,#0
        0x0800471a:    f3868811    ....    MSR      BASEPRI,r6
        0x0800471e:    e8bd81f0    ....    POP      {r4-r8,pc}
        0x08004722:    0000        ..      MOVS     r0,r0
    i.xQueueSemaphoreTake
    xQueueSemaphoreTake
        0x08004724:    e92d43f3    -..C    PUSH     {r0,r1,r4-r9,lr}
        0x08004728:    b083        ..      SUB      sp,sp,#0xc
        0x0800472a:    4604        .F      MOV      r4,r0
        0x0800472c:    2500        .%      MOVS     r5,#0
        0x0800472e:    46a9        .F      MOV      r9,r5
        0x08004730:    2600        .&      MOVS     r6,#0
        0x08004732:    f04f5780    O..W    MOV      r7,#0x10000000
        0x08004736:    f8df810c    ....    LDR      r8,[pc,#268] ; [0x8004844] = 0xe000ed04
        0x0800473a:    f7fffd25    ..%.    BL       vPortEnterCritical ; 0x8004188
        0x0800473e:    6ba0        .k      LDR      r0,[r4,#0x38]
        0x08004740:    b1c8        ..      CBZ      r0,0x8004776 ; xQueueSemaphoreTake + 82
        0x08004742:    1e40        @.      SUBS     r0,r0,#1
        0x08004744:    63a0        .c      STR      r0,[r4,#0x38]
        0x08004746:    6820         h      LDR      r0,[r4,#0]
        0x08004748:    b910        ..      CBNZ     r0,0x8004750 ; xQueueSemaphoreTake + 44
        0x0800474a:    f7fffca9    ....    BL       pvTaskIncrementMutexHeldCount ; 0x80040a0
        0x0800474e:    60a0        .`      STR      r0,[r4,#8]
        0x08004750:    6920         i      LDR      r0,[r4,#0x10]
        0x08004752:    b150        P.      CBZ      r0,0x800476a ; xQueueSemaphoreTake + 70
        0x08004754:    f1040010    ....    ADD      r0,r4,#0x10
        0x08004758:    f000fa04    ....    BL       xTaskRemoveFromEventList ; 0x8004b64
        0x0800475c:    b128        (.      CBZ      r0,0x800476a ; xQueueSemaphoreTake + 70
        0x0800475e:    f8c87000    ...p    STR      r7,[r8,#0]
        0x08004762:    f3bf8f4f    ..O.    DSB      
        0x08004766:    f3bf8f6f    ..o.    ISB      
        0x0800476a:    f7fffd1b    ....    BL       vPortExitCritical ; 0x80041a4
        0x0800476e:    2001        .       MOVS     r0,#1
        0x08004770:    b005        ..      ADD      sp,sp,#0x14
        0x08004772:    e8bd83f0    ....    POP      {r4-r9,pc}
        0x08004776:    9804        ..      LDR      r0,[sp,#0x10]
        0x08004778:    b108        ..      CBZ      r0,0x800477e ; xQueueSemaphoreTake + 90
        0x0800477a:    b125        %.      CBZ      r5,0x8004786 ; xQueueSemaphoreTake + 98
        0x0800477c:    e007        ..      B        0x800478e ; xQueueSemaphoreTake + 106
        0x0800477e:    f7fffd11    ....    BL       vPortExitCritical ; 0x80041a4
        0x08004782:    2000        .       MOVS     r0,#0
        0x08004784:    e7f4        ..      B        0x8004770 ; xQueueSemaphoreTake + 76
        0x08004786:    a801        ..      ADD      r0,sp,#4
        0x08004788:    f7fffd60    ..`.    BL       vTaskInternalSetTimeOutState ; 0x800424c
        0x0800478c:    2501        .%      MOVS     r5,#1
        0x0800478e:    f7fffd09    ....    BL       vPortExitCritical ; 0x80041a4
        0x08004792:    f7fffe47    ..G.    BL       vTaskSuspendAll ; 0x8004424
        0x08004796:    f7fffcf7    ....    BL       vPortEnterCritical ; 0x8004188
        0x0800479a:    f9940044    ..D.    LDRSB    r0,[r4,#0x44]
        0x0800479e:    1c40        @.      ADDS     r0,r0,#1
        0x080047a0:    d101        ..      BNE      0x80047a6 ; xQueueSemaphoreTake + 130
        0x080047a2:    f8846044    ..D`    STRB     r6,[r4,#0x44]
        0x080047a6:    f9940045    ..E.    LDRSB    r0,[r4,#0x45]
        0x080047aa:    1c40        @.      ADDS     r0,r0,#1
        0x080047ac:    d101        ..      BNE      0x80047b2 ; xQueueSemaphoreTake + 142
        0x080047ae:    f8846045    ..E`    STRB     r6,[r4,#0x45]
        0x080047b2:    f7fffcf7    ....    BL       vPortExitCritical ; 0x80041a4
        0x080047b6:    a904        ..      ADD      r1,sp,#0x10
        0x080047b8:    a801        ..      ADD      r0,sp,#4
        0x080047ba:    f000f845    ..E.    BL       xTaskCheckForTimeOut ; 0x8004848
        0x080047be:    b1c8        ..      CBZ      r0,0x80047f4 ; xQueueSemaphoreTake + 208
        0x080047c0:    4620         F      MOV      r0,r4
        0x080047c2:    f7fffbe7    ....    BL       prvUnlockQueue ; 0x8003f94
        0x080047c6:    f000fa33    ..3.    BL       xTaskResumeAll ; 0x8004c30
        0x080047ca:    4620         F      MOV      r0,r4
        0x080047cc:    f7fffbae    ....    BL       prvIsQueueEmpty ; 0x8003f2c
        0x080047d0:    2800        .(      CMP      r0,#0
        0x080047d2:    d0b2        ..      BEQ      0x800473a ; xQueueSemaphoreTake + 22
        0x080047d4:    f1b90f00    ....    CMP      r9,#0
        0x080047d8:    d00a        ..      BEQ      0x80047f0 ; xQueueSemaphoreTake + 204
        0x080047da:    f7fffcd5    ....    BL       vPortEnterCritical ; 0x8004188
        0x080047de:    4620         F      MOV      r0,r4
        0x080047e0:    f7fffab3    ....    BL       prvGetDisinheritPriorityAfterTimeout ; 0x8003d4a
        0x080047e4:    4601        .F      MOV      r1,r0
        0x080047e6:    68a0        .h      LDR      r0,[r4,#8]
        0x080047e8:    f7fffd4e    ..N.    BL       vTaskPriorityDisinheritAfterTimeout ; 0x8004288
        0x080047ec:    f7fffcda    ....    BL       vPortExitCritical ; 0x80041a4
        0x080047f0:    2000        .       MOVS     r0,#0
        0x080047f2:    e7bd        ..      B        0x8004770 ; xQueueSemaphoreTake + 76
        0x080047f4:    4620         F      MOV      r0,r4
        0x080047f6:    f7fffb99    ....    BL       prvIsQueueEmpty ; 0x8003f2c
        0x080047fa:    b1e0        ..      CBZ      r0,0x8004836 ; xQueueSemaphoreTake + 274
        0x080047fc:    6820         h      LDR      r0,[r4,#0]
        0x080047fe:    b938        8.      CBNZ     r0,0x8004810 ; xQueueSemaphoreTake + 236
        0x08004800:    f7fffcc2    ....    BL       vPortEnterCritical ; 0x8004188
        0x08004804:    68a0        .h      LDR      r0,[r4,#8]
        0x08004806:    f000f953    ..S.    BL       xTaskPriorityInherit ; 0x8004ab0
        0x0800480a:    4681        .F      MOV      r9,r0
        0x0800480c:    f7fffcca    ....    BL       vPortExitCritical ; 0x80041a4
        0x08004810:    f1040024    ..$.    ADD      r0,r4,#0x24
        0x08004814:    9904        ..      LDR      r1,[sp,#0x10]
        0x08004816:    f7fffd27    ..'.    BL       vTaskPlaceOnEventList ; 0x8004268
        0x0800481a:    4620         F      MOV      r0,r4
        0x0800481c:    f7fffbba    ....    BL       prvUnlockQueue ; 0x8003f94
        0x08004820:    f000fa06    ....    BL       xTaskResumeAll ; 0x8004c30
        0x08004824:    2800        .(      CMP      r0,#0
        0x08004826:    d188        ..      BNE      0x800473a ; xQueueSemaphoreTake + 22
        0x08004828:    f8c87000    ...p    STR      r7,[r8,#0]
        0x0800482c:    f3bf8f4f    ..O.    DSB      
        0x08004830:    f3bf8f6f    ..o.    ISB      
        0x08004834:    e781        ..      B        0x800473a ; xQueueSemaphoreTake + 22
        0x08004836:    4620         F      MOV      r0,r4
        0x08004838:    f7fffbac    ....    BL       prvUnlockQueue ; 0x8003f94
        0x0800483c:    f000f9f8    ....    BL       xTaskResumeAll ; 0x8004c30
        0x08004840:    e77b        {.      B        0x800473a ; xQueueSemaphoreTake + 22
    $d
        0x08004842:    0000        ..      DCW    0
        0x08004844:    e000ed04    ....    DCD    3758157060
    $t
    i.xTaskCheckForTimeOut
    xTaskCheckForTimeOut
        0x08004848:    e92d41f0    -..A    PUSH     {r4-r8,lr}
        0x0800484c:    4606        .F      MOV      r6,r0
        0x0800484e:    460d        .F      MOV      r5,r1
        0x08004850:    f7fffc9a    ....    BL       vPortEnterCritical ; 0x8004188
        0x08004854:    4811        .H      LDR      r0,[pc,#68] ; [0x800489c] = 0x20000048
        0x08004856:    68c3        .h      LDR      r3,[r0,#0xc]
        0x08004858:    6874        th      LDR      r4,[r6,#4]
        0x0800485a:    1b1a        ..      SUBS     r2,r3,r4
        0x0800485c:    6829        )h      LDR      r1,[r5,#0]
        0x0800485e:    1c4f        O.      ADDS     r7,r1,#1
        0x08004860:    d00a        ..      BEQ      0x8004878 ; xTaskCheckForTimeOut + 48
        0x08004862:    6837        7h      LDR      r7,[r6,#0]
        0x08004864:    f8d0c020    .. .    LDR      r12,[r0,#0x20]
        0x08004868:    2000        .       MOVS     r0,#0
        0x0800486a:    4567        gE      CMP      r7,r12
        0x0800486c:    d006        ..      BEQ      0x800487c ; xTaskCheckForTimeOut + 52
        0x0800486e:    429c        .B      CMP      r4,r3
        0x08004870:    d804        ..      BHI      0x800487c ; xTaskCheckForTimeOut + 52
        0x08004872:    2401        .$      MOVS     r4,#1
        0x08004874:    6028        (`      STR      r0,[r5,#0]
        0x08004876:    e00c        ..      B        0x8004892 ; xTaskCheckForTimeOut + 74
        0x08004878:    2400        .$      MOVS     r4,#0
        0x0800487a:    e00a        ..      B        0x8004892 ; xTaskCheckForTimeOut + 74
        0x0800487c:    4291        .B      CMP      r1,r2
        0x0800487e:    d906        ..      BLS      0x800488e ; xTaskCheckForTimeOut + 70
        0x08004880:    1a88        ..      SUBS     r0,r1,r2
        0x08004882:    6028        (`      STR      r0,[r5,#0]
        0x08004884:    4630        0F      MOV      r0,r6
        0x08004886:    f7fffce1    ....    BL       vTaskInternalSetTimeOutState ; 0x800424c
        0x0800488a:    2400        .$      MOVS     r4,#0
        0x0800488c:    e001        ..      B        0x8004892 ; xTaskCheckForTimeOut + 74
        0x0800488e:    6028        (`      STR      r0,[r5,#0]
        0x08004890:    2401        .$      MOVS     r4,#1
        0x08004892:    f7fffc87    ....    BL       vPortExitCritical ; 0x80041a4
        0x08004896:    4620         F      MOV      r0,r4
        0x08004898:    e8bd81f0    ....    POP      {r4-r8,pc}
    $d
        0x0800489c:    20000048    H..     DCD    536870984
    $t
    i.xTaskCreate
    xTaskCreate
        0x080048a0:    e92d5fff    -.._    PUSH     {r0-r12,lr}
        0x080048a4:    4681        .F      MOV      r9,r0
        0x080048a6:    e9dd780e    ...x    LDRD     r7,r8,[sp,#0x38]
        0x080048aa:    468a        .F      MOV      r10,r1
        0x080048ac:    4616        .F      MOV      r6,r2
        0x080048ae:    469b        .F      MOV      r11,r3
        0x080048b0:    00b0        ..      LSLS     r0,r6,#2
        0x080048b2:    f7fffba5    ....    BL       pvPortMalloc ; 0x8004000
        0x080048b6:    4605        .F      MOV      r5,r0
        0x080048b8:    0028        (.      MOVS     r0,r5
        0x080048ba:    d00e        ..      BEQ      0x80048da ; xTaskCreate + 58
        0x080048bc:    2054        T       MOVS     r0,#0x54
        0x080048be:    f7fffb9f    ....    BL       pvPortMalloc ; 0x8004000
        0x080048c2:    4604        .F      MOV      r4,r0
        0x080048c4:    b12c        ,.      CBZ      r4,0x80048d2 ; xTaskCreate + 50
        0x080048c6:    2154        T!      MOVS     r1,#0x54
        0x080048c8:    4620         F      MOV      r0,r4
        0x080048ca:    f7fbfc9a    ....    BL       __aeabi_memclr ; 0x8000202
        0x080048ce:    6325        %c      STR      r5,[r4,#0x30]
        0x080048d0:    e004        ..      B        0x80048dc ; xTaskCreate + 60
        0x080048d2:    4628        (F      MOV      r0,r5
        0x080048d4:    f7fffc72    ..r.    BL       vPortFree ; 0x80041bc
        0x080048d8:    e000        ..      B        0x80048dc ; xTaskCreate + 60
        0x080048da:    2400        .$      MOVS     r4,#0
        0x080048dc:    b18c        ..      CBZ      r4,0x8004902 ; xTaskCreate + 98
        0x080048de:    2000        .       MOVS     r0,#0
        0x080048e0:    e9cd4002    ...@    STRD     r4,r0,[sp,#8]
        0x080048e4:    e9cd7800    ...x    STRD     r7,r8,[sp,#0]
        0x080048e8:    465b        [F      MOV      r3,r11
        0x080048ea:    4632        2F      MOV      r2,r6
        0x080048ec:    4651        QF      MOV      r1,r10
        0x080048ee:    4648        HF      MOV      r0,r9
        0x080048f0:    f7fffa86    ....    BL       prvInitialiseNewTask ; 0x8003e00
        0x080048f4:    4620         F      MOV      r0,r4
        0x080048f6:    f7fff975    ..u.    BL       prvAddNewTaskToReadyList ; 0x8003be4
        0x080048fa:    2001        .       MOVS     r0,#1
        0x080048fc:    b004        ..      ADD      sp,sp,#0x10
        0x080048fe:    e8bd9ff0    ....    POP      {r4-r12,pc}
        0x08004902:    f04f30ff    O..0    MOV      r0,#0xffffffff
        0x08004906:    e7f9        ..      B        0x80048fc ; xTaskCreate + 92
    i.xTaskIncrementTick
    xTaskIncrementTick
        0x08004908:    e92d41f0    -..A    PUSH     {r4-r8,lr}
        0x0800490c:    2500        .%      MOVS     r5,#0
        0x0800490e:    4e43        CN      LDR      r6,[pc,#268] ; [0x8004a1c] = 0x20000048
        0x08004910:    6b70        pk      LDR      r0,[r6,#0x34]
        0x08004912:    2800        .(      CMP      r0,#0
        0x08004914:    d005        ..      BEQ      0x8004922 ; xTaskIncrementTick + 26
        0x08004916:    69b0        .i      LDR      r0,[r6,#0x18]
        0x08004918:    1c40        @.      ADDS     r0,r0,#1
        0x0800491a:    61b0        .a      STR      r0,[r6,#0x18]
        0x0800491c:    4628        (F      MOV      r0,r5
        0x0800491e:    e8bd81f0    ....    POP      {r4-r8,pc}
        0x08004922:    68f4        .h      LDR      r4,[r6,#0xc]
        0x08004924:    1c64        d.      ADDS     r4,r4,#1
        0x08004926:    60f4        .`      STR      r4,[r6,#0xc]
        0x08004928:    b944        D.      CBNZ     r4,0x800493c ; xTaskIncrementTick + 52
        0x0800492a:    6bb0        .k      LDR      r0,[r6,#0x38]
        0x0800492c:    6bf1        .k      LDR      r1,[r6,#0x3c]
        0x0800492e:    63b1        .c      STR      r1,[r6,#0x38]
        0x08004930:    63f0        .c      STR      r0,[r6,#0x3c]
        0x08004932:    6a30        0j      LDR      r0,[r6,#0x20]
        0x08004934:    1c40        @.      ADDS     r0,r0,#1
        0x08004936:    6230        0b      STR      r0,[r6,#0x20]
        0x08004938:    f7fffb14    ....    BL       prvResetNextTaskUnblockTime ; 0x8003f64
        0x0800493c:    6ab0        .j      LDR      r0,[r6,#0x28]
        0x0800493e:    4f38        8O      LDR      r7,[pc,#224] ; [0x8004a20] = 0x20003cc8
        0x08004940:    4284        .B      CMP      r4,r0
        0x08004942:    d30f        ..      BCC      0x8004964 ; xTaskIncrementTick + 92
        0x08004944:    f04f0c00    O...    MOV      r12,#0
        0x08004948:    6bb0        .k      LDR      r0,[r6,#0x38]
        0x0800494a:    6800        .h      LDR      r0,[r0,#0]
        0x0800494c:    b138        8.      CBZ      r0,0x800495e ; xTaskIncrementTick + 86
        0x0800494e:    6bb0        .k      LDR      r0,[r6,#0x38]
        0x08004950:    68c0        .h      LDR      r0,[r0,#0xc]
        0x08004952:    68c1        .h      LDR      r1,[r0,#0xc]
        0x08004954:    6848        Hh      LDR      r0,[r1,#4]
        0x08004956:    4284        .B      CMP      r4,r0
        0x08004958:    d212        ..      BCS      0x8004980 ; xTaskIncrementTick + 120
        0x0800495a:    62b0        .b      STR      r0,[r6,#0x28]
        0x0800495c:    e002        ..      B        0x8004964 ; xTaskIncrementTick + 92
        0x0800495e:    f04f30ff    O..0    MOV      r0,#0xffffffff
        0x08004962:    62b0        .b      STR      r0,[r6,#0x28]
        0x08004964:    6830        0h      LDR      r0,[r6,#0]
        0x08004966:    6ac0        .j      LDR      r0,[r0,#0x2c]
        0x08004968:    eb000080    ....    ADD      r0,r0,r0,LSL #2
        0x0800496c:    f8570020    W. .    LDR      r0,[r7,r0,LSL #2]
        0x08004970:    2801        .(      CMP      r0,#1
        0x08004972:    d900        ..      BLS      0x8004976 ; xTaskIncrementTick + 110
        0x08004974:    2501        .%      MOVS     r5,#1
        0x08004976:    69f0        .i      LDR      r0,[r6,#0x1c]
        0x08004978:    2800        .(      CMP      r0,#0
        0x0800497a:    d0cf        ..      BEQ      0x800491c ; xTaskIncrementTick + 20
        0x0800497c:    2501        .%      MOVS     r5,#1
        0x0800497e:    e7cd        ..      B        0x800491c ; xTaskIncrementTick + 20
        0x08004980:    694a        Ji      LDR      r2,[r1,#0x14]
        0x08004982:    e9d13002    ...0    LDRD     r3,r0,[r1,#8]
        0x08004986:    6098        .`      STR      r0,[r3,#8]
        0x08004988:    e9d10302    ....    LDRD     r0,r3,[r1,#8]
        0x0800498c:    6058        X`      STR      r0,[r3,#4]
        0x0800498e:    6850        Ph      LDR      r0,[r2,#4]
        0x08004990:    1d0b        ..      ADDS     r3,r1,#4
        0x08004992:    4298        .B      CMP      r0,r3
        0x08004994:    d101        ..      BNE      0x800499a ; xTaskIncrementTick + 146
        0x08004996:    68c8        .h      LDR      r0,[r1,#0xc]
        0x08004998:    6050        P`      STR      r0,[r2,#4]
        0x0800499a:    f8c1c014    ....    STR      r12,[r1,#0x14]
        0x0800499e:    6810        .h      LDR      r0,[r2,#0]
        0x080049a0:    1e40        @.      SUBS     r0,r0,#1
        0x080049a2:    6010        .`      STR      r0,[r2,#0]
        0x080049a4:    6a8a        .j      LDR      r2,[r1,#0x28]
        0x080049a6:    b19a        ..      CBZ      r2,0x80049d0 ; xTaskIncrementTick + 200
        0x080049a8:    e9d18007    ....    LDRD     r8,r0,[r1,#0x1c]
        0x080049ac:    f8c80008    ....    STR      r0,[r8,#8]
        0x080049b0:    e9d10807    ....    LDRD     r0,r8,[r1,#0x1c]
        0x080049b4:    f8c80004    ....    STR      r0,[r8,#4]
        0x080049b8:    6850        Ph      LDR      r0,[r2,#4]
        0x080049ba:    f1010818    ....    ADD      r8,r1,#0x18
        0x080049be:    4540        @E      CMP      r0,r8
        0x080049c0:    d101        ..      BNE      0x80049c6 ; xTaskIncrementTick + 190
        0x080049c2:    6a08        .j      LDR      r0,[r1,#0x20]
        0x080049c4:    6050        P`      STR      r0,[r2,#4]
        0x080049c6:    f8c1c028    ..(.    STR      r12,[r1,#0x28]
        0x080049ca:    6810        .h      LDR      r0,[r2,#0]
        0x080049cc:    1e40        @.      SUBS     r0,r0,#1
        0x080049ce:    6010        .`      STR      r0,[r2,#0]
        0x080049d0:    6ac8        .j      LDR      r0,[r1,#0x2c]
        0x080049d2:    2201        ."      MOVS     r2,#1
        0x080049d4:    f8d68010    ....    LDR      r8,[r6,#0x10]
        0x080049d8:    4082        .@      LSLS     r2,r2,r0
        0x080049da:    ea420208    B...    ORR      r2,r2,r8
        0x080049de:    6132        2a      STR      r2,[r6,#0x10]
        0x080049e0:    eb000080    ....    ADD      r0,r0,r0,LSL #2
        0x080049e4:    eb070080    ....    ADD      r0,r7,r0,LSL #2
        0x080049e8:    6842        Bh      LDR      r2,[r0,#4]
        0x080049ea:    608a        .`      STR      r2,[r1,#8]
        0x080049ec:    6890        .h      LDR      r0,[r2,#8]
        0x080049ee:    60c8        .`      STR      r0,[r1,#0xc]
        0x080049f0:    6890        .h      LDR      r0,[r2,#8]
        0x080049f2:    6043        C`      STR      r3,[r0,#4]
        0x080049f4:    6093        .`      STR      r3,[r2,#8]
        0x080049f6:    6ac8        .j      LDR      r0,[r1,#0x2c]
        0x080049f8:    eb000080    ....    ADD      r0,r0,r0,LSL #2
        0x080049fc:    eb070280    ....    ADD      r2,r7,r0,LSL #2
        0x08004a00:    614a        Ja      STR      r2,[r1,#0x14]
        0x08004a02:    f8572020    W.      LDR      r2,[r7,r0,LSL #2]
        0x08004a06:    1c52        R.      ADDS     r2,r2,#1
        0x08004a08:    f8472020    G.      STR      r2,[r7,r0,LSL #2]
        0x08004a0c:    6ac8        .j      LDR      r0,[r1,#0x2c]
        0x08004a0e:    6831        1h      LDR      r1,[r6,#0]
        0x08004a10:    6ac9        .j      LDR      r1,[r1,#0x2c]
        0x08004a12:    4288        .B      CMP      r0,r1
        0x08004a14:    d998        ..      BLS      0x8004948 ; xTaskIncrementTick + 64
        0x08004a16:    2501        .%      MOVS     r5,#1
        0x08004a18:    e796        ..      B        0x8004948 ; xTaskIncrementTick + 64
    $d
        0x08004a1a:    0000        ..      DCW    0
        0x08004a1c:    20000048    H..     DCD    536870984
        0x08004a20:    20003cc8    .<.     DCD    536886472
    $t
    i.xTaskPriorityDisinherit
    xTaskPriorityDisinherit
        0x08004a24:    b510        ..      PUSH     {r4,lr}
        0x08004a26:    4604        .F      MOV      r4,r0
        0x08004a28:    2000        .       MOVS     r0,#0
        0x08004a2a:    2c00        .,      CMP      r4,#0
        0x08004a2c:    d03b        ;.      BEQ      0x8004aa6 ; xTaskPriorityDisinherit + 130
        0x08004a2e:    6ca1        .l      LDR      r1,[r4,#0x48]
        0x08004a30:    1e49        I.      SUBS     r1,r1,#1
        0x08004a32:    64a1        .d      STR      r1,[r4,#0x48]
        0x08004a34:    6c63        cl      LDR      r3,[r4,#0x44]
        0x08004a36:    6ae2        .j      LDR      r2,[r4,#0x2c]
        0x08004a38:    429a        .B      CMP      r2,r3
        0x08004a3a:    d034        4.      BEQ      0x8004aa6 ; xTaskPriorityDisinherit + 130
        0x08004a3c:    2900        .)      CMP      r1,#0
        0x08004a3e:    d132        2.      BNE      0x8004aa6 ; xTaskPriorityDisinherit + 130
        0x08004a40:    1d20         .      ADDS     r0,r4,#4
        0x08004a42:    f7fffb55    ..U.    BL       uxListRemove ; 0x80040f0
        0x08004a46:    4918        .I      LDR      r1,[pc,#96] ; [0x8004aa8] = 0x20000048
        0x08004a48:    2201        ."      MOVS     r2,#1
        0x08004a4a:    b930        0.      CBNZ     r0,0x8004a5a ; xTaskPriorityDisinherit + 54
        0x08004a4c:    f894002c    ..,.    LDRB     r0,[r4,#0x2c]
        0x08004a50:    690b        .i      LDR      r3,[r1,#0x10]
        0x08004a52:    fa02f000    ....    LSL      r0,r2,r0
        0x08004a56:    4383        .C      BICS     r3,r3,r0
        0x08004a58:    610b        .a      STR      r3,[r1,#0x10]
        0x08004a5a:    6c60        `l      LDR      r0,[r4,#0x44]
        0x08004a5c:    62e0        .b      STR      r0,[r4,#0x2c]
        0x08004a5e:    f1c00020    .. .    RSB      r0,r0,#0x20
        0x08004a62:    61a0        .a      STR      r0,[r4,#0x18]
        0x08004a64:    6ae0        .j      LDR      r0,[r4,#0x2c]
        0x08004a66:    690b        .i      LDR      r3,[r1,#0x10]
        0x08004a68:    4082        .@      LSLS     r2,r2,r0
        0x08004a6a:    431a        .C      ORRS     r2,r2,r3
        0x08004a6c:    610a        .a      STR      r2,[r1,#0x10]
        0x08004a6e:    4a0f        .J      LDR      r2,[pc,#60] ; [0x8004aac] = 0x20003cc8
        0x08004a70:    eb000080    ....    ADD      r0,r0,r0,LSL #2
        0x08004a74:    eb020080    ....    ADD      r0,r2,r0,LSL #2
        0x08004a78:    6840        @h      LDR      r0,[r0,#4]
        0x08004a7a:    60a0        .`      STR      r0,[r4,#8]
        0x08004a7c:    6881        .h      LDR      r1,[r0,#8]
        0x08004a7e:    60e1        .`      STR      r1,[r4,#0xc]
        0x08004a80:    6883        .h      LDR      r3,[r0,#8]
        0x08004a82:    1d21        !.      ADDS     r1,r4,#4
        0x08004a84:    6059        Y`      STR      r1,[r3,#4]
        0x08004a86:    6081        .`      STR      r1,[r0,#8]
        0x08004a88:    6ae0        .j      LDR      r0,[r4,#0x2c]
        0x08004a8a:    eb000080    ....    ADD      r0,r0,r0,LSL #2
        0x08004a8e:    eb020080    ....    ADD      r0,r2,r0,LSL #2
        0x08004a92:    6160        `a      STR      r0,[r4,#0x14]
        0x08004a94:    6ae0        .j      LDR      r0,[r4,#0x2c]
        0x08004a96:    eb000080    ....    ADD      r0,r0,r0,LSL #2
        0x08004a9a:    f8521020    R. .    LDR      r1,[r2,r0,LSL #2]
        0x08004a9e:    1c49        I.      ADDS     r1,r1,#1
        0x08004aa0:    f8421020    B. .    STR      r1,[r2,r0,LSL #2]
        0x08004aa4:    2001        .       MOVS     r0,#1
        0x08004aa6:    bd10        ..      POP      {r4,pc}
    $d
        0x08004aa8:    20000048    H..     DCD    536870984
        0x08004aac:    20003cc8    .<.     DCD    536886472
    $t
    i.xTaskPriorityInherit
    xTaskPriorityInherit
        0x08004ab0:    b570        p.      PUSH     {r4-r6,lr}
        0x08004ab2:    4604        .F      MOV      r4,r0
        0x08004ab4:    2000        .       MOVS     r0,#0
        0x08004ab6:    2c00        .,      CMP      r4,#0
        0x08004ab8:    d048        H.      BEQ      0x8004b4c ; xTaskPriorityInherit + 156
        0x08004aba:    4d28        (M      LDR      r5,[pc,#160] ; [0x8004b5c] = 0x20000048
        0x08004abc:    6ae1        .j      LDR      r1,[r4,#0x2c]
        0x08004abe:    682a        *h      LDR      r2,[r5,#0]
        0x08004ac0:    6ad2        .j      LDR      r2,[r2,#0x2c]
        0x08004ac2:    4291        .B      CMP      r1,r2
        0x08004ac4:    d243        C.      BCS      0x8004b4e ; xTaskPriorityInherit + 158
        0x08004ac6:    69a0        .i      LDR      r0,[r4,#0x18]
        0x08004ac8:    2800        .(      CMP      r0,#0
        0x08004aca:    db04        ..      BLT      0x8004ad6 ; xTaskPriorityInherit + 38
        0x08004acc:    6828        (h      LDR      r0,[r5,#0]
        0x08004ace:    6ac0        .j      LDR      r0,[r0,#0x2c]
        0x08004ad0:    f1c00020    .. .    RSB      r0,r0,#0x20
        0x08004ad4:    61a0        .a      STR      r0,[r4,#0x18]
        0x08004ad6:    6ae0        .j      LDR      r0,[r4,#0x2c]
        0x08004ad8:    4e21        !N      LDR      r6,[pc,#132] ; [0x8004b60] = 0x20003cc8
        0x08004ada:    eb000080    ....    ADD      r0,r0,r0,LSL #2
        0x08004ade:    6961        ai      LDR      r1,[r4,#0x14]
        0x08004ae0:    eb060080    ....    ADD      r0,r6,r0,LSL #2
        0x08004ae4:    4281        .B      CMP      r1,r0
        0x08004ae6:    d12d        -.      BNE      0x8004b44 ; xTaskPriorityInherit + 148
        0x08004ae8:    1d20         .      ADDS     r0,r4,#4
        0x08004aea:    f7fffb01    ....    BL       uxListRemove ; 0x80040f0
        0x08004aee:    2101        .!      MOVS     r1,#1
        0x08004af0:    b930        0.      CBNZ     r0,0x8004b00 ; xTaskPriorityInherit + 80
        0x08004af2:    f894002c    ..,.    LDRB     r0,[r4,#0x2c]
        0x08004af6:    692a        *i      LDR      r2,[r5,#0x10]
        0x08004af8:    fa01f000    ....    LSL      r0,r1,r0
        0x08004afc:    4382        .C      BICS     r2,r2,r0
        0x08004afe:    612a        *a      STR      r2,[r5,#0x10]
        0x08004b00:    6828        (h      LDR      r0,[r5,#0]
        0x08004b02:    6ac0        .j      LDR      r0,[r0,#0x2c]
        0x08004b04:    62e0        .b      STR      r0,[r4,#0x2c]
        0x08004b06:    692a        *i      LDR      r2,[r5,#0x10]
        0x08004b08:    4081        .@      LSLS     r1,r1,r0
        0x08004b0a:    4311        .C      ORRS     r1,r1,r2
        0x08004b0c:    6129        )a      STR      r1,[r5,#0x10]
        0x08004b0e:    eb000080    ....    ADD      r0,r0,r0,LSL #2
        0x08004b12:    eb060080    ....    ADD      r0,r6,r0,LSL #2
        0x08004b16:    6840        @h      LDR      r0,[r0,#4]
        0x08004b18:    60a0        .`      STR      r0,[r4,#8]
        0x08004b1a:    6881        .h      LDR      r1,[r0,#8]
        0x08004b1c:    60e1        .`      STR      r1,[r4,#0xc]
        0x08004b1e:    6882        .h      LDR      r2,[r0,#8]
        0x08004b20:    1d21        !.      ADDS     r1,r4,#4
        0x08004b22:    6051        Q`      STR      r1,[r2,#4]
        0x08004b24:    6081        .`      STR      r1,[r0,#8]
        0x08004b26:    6ae0        .j      LDR      r0,[r4,#0x2c]
        0x08004b28:    eb000080    ....    ADD      r0,r0,r0,LSL #2
        0x08004b2c:    eb060080    ....    ADD      r0,r6,r0,LSL #2
        0x08004b30:    6160        `a      STR      r0,[r4,#0x14]
        0x08004b32:    6ae0        .j      LDR      r0,[r4,#0x2c]
        0x08004b34:    eb000080    ....    ADD      r0,r0,r0,LSL #2
        0x08004b38:    f8561020    V. .    LDR      r1,[r6,r0,LSL #2]
        0x08004b3c:    1c49        I.      ADDS     r1,r1,#1
        0x08004b3e:    f8461020    F. .    STR      r1,[r6,r0,LSL #2]
        0x08004b42:    e002        ..      B        0x8004b4a ; xTaskPriorityInherit + 154
        0x08004b44:    6828        (h      LDR      r0,[r5,#0]
        0x08004b46:    6ac0        .j      LDR      r0,[r0,#0x2c]
        0x08004b48:    62e0        .b      STR      r0,[r4,#0x2c]
        0x08004b4a:    2001        .       MOVS     r0,#1
        0x08004b4c:    bd70        p.      POP      {r4-r6,pc}
        0x08004b4e:    6c61        al      LDR      r1,[r4,#0x44]
        0x08004b50:    682a        *h      LDR      r2,[r5,#0]
        0x08004b52:    6ad2        .j      LDR      r2,[r2,#0x2c]
        0x08004b54:    4291        .B      CMP      r1,r2
        0x08004b56:    d2f9        ..      BCS      0x8004b4c ; xTaskPriorityInherit + 156
        0x08004b58:    2001        .       MOVS     r0,#1
        0x08004b5a:    bd70        p.      POP      {r4-r6,pc}
    $d
        0x08004b5c:    20000048    H..     DCD    536870984
        0x08004b60:    20003cc8    .<.     DCD    536886472
    $t
    i.xTaskRemoveFromEventList
    xTaskRemoveFromEventList
        0x08004b64:    b570        p.      PUSH     {r4-r6,lr}
        0x08004b66:    68c0        .h      LDR      r0,[r0,#0xc]
        0x08004b68:    68c0        .h      LDR      r0,[r0,#0xc]
        0x08004b6a:    6a81        .j      LDR      r1,[r0,#0x28]
        0x08004b6c:    e9d03207    ...2    LDRD     r3,r2,[r0,#0x1c]
        0x08004b70:    609a        .`      STR      r2,[r3,#8]
        0x08004b72:    e9d02307    ...#    LDRD     r2,r3,[r0,#0x1c]
        0x08004b76:    605a        Z`      STR      r2,[r3,#4]
        0x08004b78:    684b        Kh      LDR      r3,[r1,#4]
        0x08004b7a:    f1000218    ....    ADD      r2,r0,#0x18
        0x08004b7e:    4293        .B      CMP      r3,r2
        0x08004b80:    d101        ..      BNE      0x8004b86 ; xTaskRemoveFromEventList + 34
        0x08004b82:    6a03        .j      LDR      r3,[r0,#0x20]
        0x08004b84:    604b        K`      STR      r3,[r1,#4]
        0x08004b86:    2500        .%      MOVS     r5,#0
        0x08004b88:    6285        .b      STR      r5,[r0,#0x28]
        0x08004b8a:    680b        .h      LDR      r3,[r1,#0]
        0x08004b8c:    1e5b        [.      SUBS     r3,r3,#1
        0x08004b8e:    600b        .`      STR      r3,[r1,#0]
        0x08004b90:    4b24        $K      LDR      r3,[pc,#144] ; [0x8004c24] = 0x20000048
        0x08004b92:    6b59        Yk      LDR      r1,[r3,#0x34]
        0x08004b94:    2401        .$      MOVS     r4,#1
        0x08004b96:    b199        ..      CBZ      r1,0x8004bc0 ; xTaskRemoveFromEventList + 92
        0x08004b98:    4d23        #M      LDR      r5,[pc,#140] ; [0x8004c28] = 0x20003f70
        0x08004b9a:    6869        ih      LDR      r1,[r5,#4]
        0x08004b9c:    61c1        .a      STR      r1,[r0,#0x1c]
        0x08004b9e:    688e        .h      LDR      r6,[r1,#8]
        0x08004ba0:    6206        .b      STR      r6,[r0,#0x20]
        0x08004ba2:    688e        .h      LDR      r6,[r1,#8]
        0x08004ba4:    6072        r`      STR      r2,[r6,#4]
        0x08004ba6:    608a        .`      STR      r2,[r1,#8]
        0x08004ba8:    6285        .b      STR      r5,[r0,#0x28]
        0x08004baa:    6829        )h      LDR      r1,[r5,#0]
        0x08004bac:    1c49        I.      ADDS     r1,r1,#1
        0x08004bae:    6029        )`      STR      r1,[r5,#0]
        0x08004bb0:    6ac0        .j      LDR      r0,[r0,#0x2c]
        0x08004bb2:    6819        .h      LDR      r1,[r3,#0]
        0x08004bb4:    6ac9        .j      LDR      r1,[r1,#0x2c]
        0x08004bb6:    4288        .B      CMP      r0,r1
        0x08004bb8:    d931        1.      BLS      0x8004c1e ; xTaskRemoveFromEventList + 186
        0x08004bba:    2001        .       MOVS     r0,#1
        0x08004bbc:    61dc        .a      STR      r4,[r3,#0x1c]
        0x08004bbe:    bd70        p.      POP      {r4-r6,pc}
        0x08004bc0:    6941        Ai      LDR      r1,[r0,#0x14]
        0x08004bc2:    e9d06202    ...b    LDRD     r6,r2,[r0,#8]
        0x08004bc6:    60b2        .`      STR      r2,[r6,#8]
        0x08004bc8:    e9d02602    ...&    LDRD     r2,r6,[r0,#8]
        0x08004bcc:    6072        r`      STR      r2,[r6,#4]
        0x08004bce:    684e        Nh      LDR      r6,[r1,#4]
        0x08004bd0:    1d02        ..      ADDS     r2,r0,#4
        0x08004bd2:    4296        .B      CMP      r6,r2
        0x08004bd4:    d101        ..      BNE      0x8004bda ; xTaskRemoveFromEventList + 118
        0x08004bd6:    68c6        .h      LDR      r6,[r0,#0xc]
        0x08004bd8:    604e        N`      STR      r6,[r1,#4]
        0x08004bda:    6145        Ea      STR      r5,[r0,#0x14]
        0x08004bdc:    680d        .h      LDR      r5,[r1,#0]
        0x08004bde:    1e6d        m.      SUBS     r5,r5,#1
        0x08004be0:    600d        .`      STR      r5,[r1,#0]
        0x08004be2:    6ac1        .j      LDR      r1,[r0,#0x2c]
        0x08004be4:    691e        .i      LDR      r6,[r3,#0x10]
        0x08004be6:    fa04f501    ....    LSL      r5,r4,r1
        0x08004bea:    4335        5C      ORRS     r5,r5,r6
        0x08004bec:    611d        .a      STR      r5,[r3,#0x10]
        0x08004bee:    4d0f        .M      LDR      r5,[pc,#60] ; [0x8004c2c] = 0x20003cc8
        0x08004bf0:    eb010181    ....    ADD      r1,r1,r1,LSL #2
        0x08004bf4:    eb050181    ....    ADD      r1,r5,r1,LSL #2
        0x08004bf8:    6849        Ih      LDR      r1,[r1,#4]
        0x08004bfa:    6081        .`      STR      r1,[r0,#8]
        0x08004bfc:    688e        .h      LDR      r6,[r1,#8]
        0x08004bfe:    60c6        .`      STR      r6,[r0,#0xc]
        0x08004c00:    688e        .h      LDR      r6,[r1,#8]
        0x08004c02:    6072        r`      STR      r2,[r6,#4]
        0x08004c04:    608a        .`      STR      r2,[r1,#8]
        0x08004c06:    6ac1        .j      LDR      r1,[r0,#0x2c]
        0x08004c08:    eb010181    ....    ADD      r1,r1,r1,LSL #2
        0x08004c0c:    eb050281    ....    ADD      r2,r5,r1,LSL #2
        0x08004c10:    6142        Ba      STR      r2,[r0,#0x14]
        0x08004c12:    f8552021    U.!     LDR      r2,[r5,r1,LSL #2]
        0x08004c16:    1c52        R.      ADDS     r2,r2,#1
        0x08004c18:    f8452021    E.!     STR      r2,[r5,r1,LSL #2]
        0x08004c1c:    e7c8        ..      B        0x8004bb0 ; xTaskRemoveFromEventList + 76
        0x08004c1e:    2000        .       MOVS     r0,#0
        0x08004c20:    bd70        p.      POP      {r4-r6,pc}
    $d
        0x08004c22:    0000        ..      DCW    0
        0x08004c24:    20000048    H..     DCD    536870984
        0x08004c28:    20003f70    p?.     DCD    536887152
        0x08004c2c:    20003cc8    .<.     DCD    536886472
    $t
    i.xTaskResumeAll
    xTaskResumeAll
        0x08004c30:    e92d41f0    -..A    PUSH     {r4-r8,lr}
        0x08004c34:    2400        .$      MOVS     r4,#0
        0x08004c36:    46a0        .F      MOV      r8,r4
        0x08004c38:    f7fffaa6    ....    BL       vPortEnterCritical ; 0x8004188
        0x08004c3c:    4d3e        >M      LDR      r5,[pc,#248] ; [0x8004d38] = 0x20000048
        0x08004c3e:    6b68        hk      LDR      r0,[r5,#0x34]
        0x08004c40:    1e40        @.      SUBS     r0,r0,#1
        0x08004c42:    6368        hc      STR      r0,[r5,#0x34]
        0x08004c44:    6b68        hk      LDR      r0,[r5,#0x34]
        0x08004c46:    2800        .(      CMP      r0,#0
        0x08004c48:    d170        p.      BNE      0x8004d2c ; xTaskResumeAll + 252
        0x08004c4a:    68a8        .h      LDR      r0,[r5,#8]
        0x08004c4c:    2800        .(      CMP      r0,#0
        0x08004c4e:    d06d        m.      BEQ      0x8004d2c ; xTaskResumeAll + 252
        0x08004c50:    2700        .'      MOVS     r7,#0
        0x08004c52:    4a3a        :J      LDR      r2,[pc,#232] ; [0x8004d3c] = 0x20003f70
        0x08004c54:    2601        .&      MOVS     r6,#1
        0x08004c56:    e04d        M.      B        0x8004cf4 ; xTaskResumeAll + 196
        0x08004c58:    68d0        .h      LDR      r0,[r2,#0xc]
        0x08004c5a:    68c4        .h      LDR      r4,[r0,#0xc]
        0x08004c5c:    6aa1        .j      LDR      r1,[r4,#0x28]
        0x08004c5e:    e9d43007    ...0    LDRD     r3,r0,[r4,#0x1c]
        0x08004c62:    6098        .`      STR      r0,[r3,#8]
        0x08004c64:    e9d40307    ....    LDRD     r0,r3,[r4,#0x1c]
        0x08004c68:    6058        X`      STR      r0,[r3,#4]
        0x08004c6a:    684b        Kh      LDR      r3,[r1,#4]
        0x08004c6c:    f1040018    ....    ADD      r0,r4,#0x18
        0x08004c70:    4283        .B      CMP      r3,r0
        0x08004c72:    d101        ..      BNE      0x8004c78 ; xTaskResumeAll + 72
        0x08004c74:    6a20         j      LDR      r0,[r4,#0x20]
        0x08004c76:    6048        H`      STR      r0,[r1,#4]
        0x08004c78:    62a7        .b      STR      r7,[r4,#0x28]
        0x08004c7a:    6808        .h      LDR      r0,[r1,#0]
        0x08004c7c:    1e40        @.      SUBS     r0,r0,#1
        0x08004c7e:    6008        .`      STR      r0,[r1,#0]
        0x08004c80:    6961        ai      LDR      r1,[r4,#0x14]
        0x08004c82:    e9d43002    ...0    LDRD     r3,r0,[r4,#8]
        0x08004c86:    6098        .`      STR      r0,[r3,#8]
        0x08004c88:    e9d40302    ....    LDRD     r0,r3,[r4,#8]
        0x08004c8c:    6058        X`      STR      r0,[r3,#4]
        0x08004c8e:    684b        Kh      LDR      r3,[r1,#4]
        0x08004c90:    1d20         .      ADDS     r0,r4,#4
        0x08004c92:    4283        .B      CMP      r3,r0
        0x08004c94:    d101        ..      BNE      0x8004c9a ; xTaskResumeAll + 106
        0x08004c96:    68e3        .h      LDR      r3,[r4,#0xc]
        0x08004c98:    604b        K`      STR      r3,[r1,#4]
        0x08004c9a:    6167        ga      STR      r7,[r4,#0x14]
        0x08004c9c:    680b        .h      LDR      r3,[r1,#0]
        0x08004c9e:    1e5b        [.      SUBS     r3,r3,#1
        0x08004ca0:    600b        .`      STR      r3,[r1,#0]
        0x08004ca2:    6ae1        .j      LDR      r1,[r4,#0x2c]
        0x08004ca4:    f8d5c010    ....    LDR      r12,[r5,#0x10]
        0x08004ca8:    fa06f301    ....    LSL      r3,r6,r1
        0x08004cac:    ea43030c    C...    ORR      r3,r3,r12
        0x08004cb0:    612b        +a      STR      r3,[r5,#0x10]
        0x08004cb2:    4b23        #K      LDR      r3,[pc,#140] ; [0x8004d40] = 0x20003cc8
        0x08004cb4:    eb010181    ....    ADD      r1,r1,r1,LSL #2
        0x08004cb8:    eb030181    ....    ADD      r1,r3,r1,LSL #2
        0x08004cbc:    6849        Ih      LDR      r1,[r1,#4]
        0x08004cbe:    60a1        .`      STR      r1,[r4,#8]
        0x08004cc0:    f8d1c008    ....    LDR      r12,[r1,#8]
        0x08004cc4:    f8c4c00c    ....    STR      r12,[r4,#0xc]
        0x08004cc8:    f8d1c008    ....    LDR      r12,[r1,#8]
        0x08004ccc:    f8cc0004    ....    STR      r0,[r12,#4]
        0x08004cd0:    6088        .`      STR      r0,[r1,#8]
        0x08004cd2:    6ae0        .j      LDR      r0,[r4,#0x2c]
        0x08004cd4:    eb000080    ....    ADD      r0,r0,r0,LSL #2
        0x08004cd8:    eb030180    ....    ADD      r1,r3,r0,LSL #2
        0x08004cdc:    6161        aa      STR      r1,[r4,#0x14]
        0x08004cde:    f8531020    S. .    LDR      r1,[r3,r0,LSL #2]
        0x08004ce2:    1c49        I.      ADDS     r1,r1,#1
        0x08004ce4:    f8431020    C. .    STR      r1,[r3,r0,LSL #2]
        0x08004ce8:    6ae0        .j      LDR      r0,[r4,#0x2c]
        0x08004cea:    6829        )h      LDR      r1,[r5,#0]
        0x08004cec:    6ac9        .j      LDR      r1,[r1,#0x2c]
        0x08004cee:    4288        .B      CMP      r0,r1
        0x08004cf0:    d300        ..      BCC      0x8004cf4 ; xTaskResumeAll + 196
        0x08004cf2:    61ee        .a      STR      r6,[r5,#0x1c]
        0x08004cf4:    6810        .h      LDR      r0,[r2,#0]
        0x08004cf6:    2800        .(      CMP      r0,#0
        0x08004cf8:    d1ae        ..      BNE      0x8004c58 ; xTaskResumeAll + 40
        0x08004cfa:    b10c        ..      CBZ      r4,0x8004d00 ; xTaskResumeAll + 208
        0x08004cfc:    f7fff932    ..2.    BL       prvResetNextTaskUnblockTime ; 0x8003f64
        0x08004d00:    69ac        .i      LDR      r4,[r5,#0x18]
        0x08004d02:    b13c        <.      CBZ      r4,0x8004d14 ; xTaskResumeAll + 228
        0x08004d04:    f7fffe00    ....    BL       xTaskIncrementTick ; 0x8004908
        0x08004d08:    b100        ..      CBZ      r0,0x8004d0c ; xTaskResumeAll + 220
        0x08004d0a:    61ee        .a      STR      r6,[r5,#0x1c]
        0x08004d0c:    1e64        d.      SUBS     r4,r4,#1
        0x08004d0e:    2c00        .,      CMP      r4,#0
        0x08004d10:    d1f8        ..      BNE      0x8004d04 ; xTaskResumeAll + 212
        0x08004d12:    61af        .a      STR      r7,[r5,#0x18]
        0x08004d14:    69e8        .i      LDR      r0,[r5,#0x1c]
        0x08004d16:    b148        H.      CBZ      r0,0x8004d2c ; xTaskResumeAll + 252
        0x08004d18:    f04f0801    O...    MOV      r8,#1
        0x08004d1c:    4909        .I      LDR      r1,[pc,#36] ; [0x8004d44] = 0xe000ed04
        0x08004d1e:    f04f5080    O..P    MOV      r0,#0x10000000
        0x08004d22:    6008        .`      STR      r0,[r1,#0]
        0x08004d24:    f3bf8f4f    ..O.    DSB      
        0x08004d28:    f3bf8f6f    ..o.    ISB      
        0x08004d2c:    f7fffa3a    ..:.    BL       vPortExitCritical ; 0x80041a4
        0x08004d30:    4640        @F      MOV      r0,r8
        0x08004d32:    e8bd81f0    ....    POP      {r4-r8,pc}
    $d
        0x08004d36:    0000        ..      DCW    0
        0x08004d38:    20000048    H..     DCD    536870984
        0x08004d3c:    20003f70    p?.     DCD    536887152
        0x08004d40:    20003cc8    .<.     DCD    536886472
        0x08004d44:    e000ed04    ....    DCD    3758157060
    $d.realdata
    .constdata
    __ctype_categories
        0x08004d48:    dddddddd    ....    DCD    3722304989
        0x08004d4c:    ddbbbbdc    ....    DCD    3720068060
        0x08004d50:    dddddddd    ....    DCD    3722304989
        0x08004d54:    dddddddd    ....    DCD    3722304989
        0x08004d58:    88888898    ....    DCD    2290649240
        0x08004d5c:    88888888    ....    DCD    2290649224
        0x08004d60:    77777777    wwww    DCD    2004318071
        0x08004d64:    88888877    w...    DCD    2290649207
        0x08004d68:    56555585    .UUV    DCD    1448433029
        0x08004d6c:    66666666    ffff    DCD    1717986918
        0x08004d70:    66666666    ffff    DCD    1717986918
        0x08004d74:    88886866    fh..    DCD    2290640998
        0x08004d78:    32333383    .332    DCD    842216323
        0x08004d7c:    22222222    """"    DCD    572662306
        0x08004d80:    22222222    """"    DCD    572662306
        0x08004d84:    8d882822    "(..    DCD    2374510626
    .conststring
        0x08004d88:    3a73255b    [%s:    DCD    980624731
        0x08004d8c:    205d6425    %d]     DCD    542991397
        0x08004d90:    52415355    USAR    DCD    1380012885
        0x08004d94:    75425f54    T_Bu    DCD    1967284052
        0x08004d98:    72656666    ffer    DCD    1919247974
        0x08004d9c:    65766f20     ove    DCD    1702260512
        0x08004da0:    6f6c6672    rflo    DCD    1869375090
        0x08004da4:    63202c77    w, c    DCD    1663052919
        0x08004da8:    7261656c    lear    DCD    1918985580
        0x08004dac:    65687420     the    DCD    1701344288
        0x08004db0:    74616420     dat    DCD    1952539680
        0x08004db4:    65722061    a re    DCD    1701978209
        0x08004db8:    76696563    ceiv    DCD    1986618723
        0x08004dbc:    74206465    ed t    DCD    1948279909
        0x08004dc0:    20736968    his     DCD    544434536
        0x08004dc4:    656d6974    time    DCD    1701669236
        0x08004dc8:    00000a0d    ....    DCD    2573
    .conststring
        0x08004dcc:    39633961    a9c9    DCD    962804065
        0x08004dd0:    35356565    ee55    DCD    892691813
        0x08004dd4:    62313136    611b    DCD    1647391030
        0x08004dd8:    63386331    1c8c    DCD    1664639793
        0x08004ddc:    32663736    67f2    DCD    845559606
        0x08004de0:    34613964    d9a4    DCD    878786916
        0x08004de4:    31313564    d511    DCD    825308516
        0x08004de8:    65366435    5d6e    DCD    1698063413
        0x08004dec:    34373862    b874    DCD    876034146
        0x08004df0:    39323231    1229    DCD    959590961
        0x08004df4:    34303736    6704    DCD    875575094
        0x08004df8:    38333865    e838    DCD    942880869
        0x08004dfc:    32303864    d802    DCD    842020964
        0x08004e00:    63663330    03fc    DCD    1667642160
        0x08004e04:    33353239    9253    DCD    859124281
        0x08004e08:    37373730    0777    DCD    926365488
        0x08004e0c:    00000000    ....    DCD    0
        0x08004e10:    6479316b    k1yd    DCD    1685664107
        0x08004e14:    77567a39    9zVw    DCD    2002156089
        0x08004e18:    2e7a6146    Faz.    DCD    779772230
        0x08004e1c:    72616d53    Smar    DCD    1918987603
        0x08004e20:    6f485f74    t_Ho    DCD    1867014004
        0x08004e24:    737c656d    me|s    DCD    1937532269
        0x08004e28:    72756365    ecur    DCD    1920295781
        0x08004e2c:    646f6d65    emod    DCD    1685024101
        0x08004e30:    5c323d65    e=2\    DCD    1546796389
        0x08004e34:    6769732c    ,sig    DCD    1734964012
        0x08004e38:    74656d6e    nmet    DCD    1952804206
        0x08004e3c:    3d646f68    hod=    DCD    1029992296
        0x08004e40:    63616d68    hmac    DCD    1667329384
        0x08004e44:    32616873    sha2    DCD    845244531
        0x08004e48:    2c5c3635    56\,    DCD    744240693
        0x08004e4c:    656d6974    time    DCD    1701669236
        0x08004e50:    6d617473    stam    DCD    1835103347
        0x08004e54:    37313d70    p=17    DCD    925973872
        0x08004e58:    36393033    3096    DCD    909717555
        0x08004e5c:    32373539    9572    DCD    842478905
        0x08004e60:    7c373330    037|    DCD    2083992368
        0x08004e64:    00000000    ....    DCD    0
        0x08004e68:    656d227b    {"me    DCD    1701651067
        0x08004e6c:    646f6874    thod    DCD    1685022836
        0x08004e70:    74223a22    ":"t    DCD    1948400162
        0x08004e74:    676e6968    hing    DCD    1735289192
        0x08004e78:    6576652e    .eve    DCD    1702257966
        0x08004e7c:    702e746e    nt.p    DCD    1882092654
        0x08004e80:    65706f72    rope    DCD    1701867378
        0x08004e84:    2e797472    rty.    DCD    779711602
        0x08004e88:    74736f70    post    DCD    1953722224
        0x08004e8c:    69222c22    ","i    DCD    1763847202
        0x08004e90:    223a2264    d":"    DCD    574235236
        0x08004e94:    2c226425    %d",    DCD    740451365
        0x08004e98:    72617022    "par    DCD    1918988322
        0x08004e9c:    22736d61    ams"    DCD    577989985
        0x08004ea0:    25227b3a    :{"%    DCD    623016762
        0x08004ea4:    253a2273    s":%    DCD    624566899
        0x08004ea8:    25222c64    d,"%    DCD    622996580
        0x08004eac:    253a2273    s":%    DCD    624566899
        0x08004eb0:    25222c64    d,"%    DCD    622996580
        0x08004eb4:    253a2273    s":%    DCD    624566899
        0x08004eb8:    222c7d64    d},"    DCD    573341028
        0x08004ebc:    73726576    vers    DCD    1936876918
        0x08004ec0:    226e6f69    ion"    DCD    577662825
        0x08004ec4:    2e31223a    :"1.    DCD    774971962
        0x08004ec8:    22302e30    0.0"    DCD    573582896
        0x08004ecc:    0000007d    }...    DCD    125
    Region$$Table$$Base
        0x08004ed0:    08004ef0    .N..    DCD    134237936
        0x08004ed4:    20000000    ...     DCD    536870912
        0x08004ed8:    000000a8    ....    DCD    168
        0x08004edc:    08003094    .0..    DCD    134230164
        0x08004ee0:    08004f98    .O..    DCD    134238104
        0x08004ee4:    200000a8    ...     DCD    536871080
        0x08004ee8:    00004348    HC..    DCD    17224
        0x08004eec:    080030a4    .0..    DCD    134230180
    Region$$Table$$Limit

** Section #2 'RW_IRAM1' (SHT_PROGBITS) [SHF_ALLOC + SHF_WRITE]
    Size   : 168 bytes (alignment 4)
    Address: 0x20000000


** Section #3 'RW_IRAM1' (SHT_NOBITS) [SHF_ALLOC + SHF_WRITE]
    Size   : 17224 bytes (alignment 8)
    Address: 0x200000a8


** Section #4 '.debug_abbrev' (SHT_PROGBITS)
    Size   : 1476 bytes


** Section #5 '.debug_frame' (SHT_PROGBITS)
    Size   : 5980 bytes


** Section #6 '.debug_info' (SHT_PROGBITS)
    Size   : 98864 bytes


** Section #7 '.debug_line' (SHT_PROGBITS)
    Size   : 28004 bytes


** Section #8 '.debug_loc' (SHT_PROGBITS)
    Size   : 14740 bytes


** Section #9 '.debug_macinfo' (SHT_PROGBITS)
    Size   : 536296 bytes


** Section #10 '.debug_pubnames' (SHT_PROGBITS)
    Size   : 5151 bytes


** Section #11 '.symtab' (SHT_SYMTAB)
    Size   : 15200 bytes (alignment 4)
    String table #12 '.strtab'
    Last local symbol no. 649


** Section #12 '.strtab' (SHT_STRTAB)
    Size   : 11816 bytes


** Section #13 '.note' (SHT_NOTE)
    Size   : 28 bytes (alignment 4)


** Section #14 '.comment' (SHT_PROGBITS)
    Size   : 30008 bytes


** Section #15 '.shstrtab' (SHT_STRTAB)
    Size   : 156 bytes


address     size       variable name                            type
0x2000009c  0x4        Task_ATReceive_Handle                    TaskHandle_t

address     size       variable name                            type
0x20000098  0x4        Task_ATSend_Handle                       TaskHandle_t

address     size       variable name                            type
0x200000a0  0x4        Task_MQTTDataRcv_Handle                  TaskHandle_t

address     size       variable name                            type
0x200000a4  0x4        Task_MQTTDataSend_Handle                 TaskHandle_t

address     size       variable name                            type
0x00000000  0x4        Task_Test_Handle                         TaskHandle_t

address     size       variable name                            type
0x20003fc0  0x30       mqttClient                               MQTTClient_t
0x20003fc0  0x4        mqttClient.protocal                      int
0x20003fc4  0x4        mqttClient.linkID                        int
0x20003fc8  0x4        mqttClient.clienID                       pointer to char
0x20003fcc  0x4        mqttClient.username                      pointer to char
0x20003fd0  0x4        mqttClient.password                      pointer to char
0x20003fd4  0x4        mqttClient.host                          pointer to char
0x20003fd8  0x4        mqttClient.port                          int
0x20003fdc  0x4        mqttClient.keepalive                     int
0x20003fe0  0x4        mqttClient.cleanSession                  int
0x20003fe4  0x4        mqttClient.reconnect                     int
0x20003fe8  0x4        mqttClient.dataPostTopic                 pointer to char
0x20003fec  0x4        mqttClient.Qos                           int

address     size       variable name                            type
0x20003fac  0x14       AT_DataPacketBuffer                      RingBuffer_t
0x20003fac  0x4        AT_DataPacketBuffer.bufferHead           pointer to uint8_t
0x20003fb0  0x4        AT_DataPacketBuffer.bufferSize           uint32_t
0x20003fb4  0x4        AT_DataPacketBuffer.dataSize             volatile uint32_t
0x20003fb8  0x4        AT_DataPacketBuffer.readIndex            volatile uint32_t
0x20003fbc  0x4        AT_DataPacketBuffer.writeIndex           volatile uint32_t

address     size       variable name                            type
0x2000008c  0x4        AT_DataPacketRead_Mutex                  volatile SemaphoreHandle_t

address     size       variable name                            type
0x20000088  0x4        AT_Send_Mutex                            volatile SemaphoreHandle_t

address     size       variable name                            type
0x20000090  0x4        AT_Status                                int

address     size       variable name                            type
0x20000048  0x4        pxCurrentTCB                             volatile pointer to TCB_t

address     size       variable name                            type
0x20000080  0x4        pxDelayedTaskList                        volatile pointer to List_t

address     size       variable name                            type
0x20000084  0x4        pxOverflowDelayedTaskList                volatile pointer to List_t

address     size       variable name                            type
0x20003cc8  0x280      pxReadyTasksLists                        array[32] of List_t

address     size       variable name                            type
0x20000050  0x4        uxCurrentNumberOfTasks                   volatile UBaseType_t

address     size       variable name                            type
0x2000004c  0x4        uxDeletedTasksWaitingCleanUp             volatile UBaseType_t

address     size       variable name                            type
0x2000007c  0x4        uxSchedulerSuspended                     volatile UBaseType_t

address     size       variable name                            type
0x2000006c  0x4        uxTaskNumber                             UBaseType_t

address     size       variable name                            type
0x20000058  0x4        uxTopReadyPriority                       volatile UBaseType_t

address     size       variable name                            type
0x20000078  0x4        uxTopUsedPriority                        volatile const UBaseType_t

address     size       variable name                            type
0x20003f48  0x14       xDelayedTaskList1                        List_t
0x20003f48  0x4        xDelayedTaskList1.uxNumberOfItems        volatile UBaseType_t
0x20003f4c  0x4        xDelayedTaskList1.pxIndex                pointer to ListItem_t
0x20003f50  0xc        xDelayedTaskList1.xListEnd               MiniListItem_t
0x20003f50  0x4        xDelayedTaskList1.xListEnd.xItemValue    TickType_t
0x20003f54  0x4        xDelayedTaskList1.xListEnd.pxNext        pointer to xLIST_ITEM
0x20003f58  0x4        xDelayedTaskList1.xListEnd.pxPrevious    pointer to xLIST_ITEM

address     size       variable name                            type
0x20003f5c  0x14       xDelayedTaskList2                        List_t
0x20003f5c  0x4        xDelayedTaskList2.uxNumberOfItems        volatile UBaseType_t
0x20003f60  0x4        xDelayedTaskList2.pxIndex                pointer to ListItem_t
0x20003f64  0xc        xDelayedTaskList2.xListEnd               MiniListItem_t
0x20003f64  0x4        xDelayedTaskList2.xListEnd.xItemValue    TickType_t
0x20003f68  0x4        xDelayedTaskList2.xListEnd.pxNext        pointer to xLIST_ITEM
0x20003f6c  0x4        xDelayedTaskList2.xListEnd.pxPrevious    pointer to xLIST_ITEM

address     size       variable name                            type
0x20000074  0x4        xIdleTaskHandle                          TaskHandle_t

address     size       variable name                            type
0x20000070  0x4        xNextTaskUnblockTime                     volatile TickType_t

address     size       variable name                            type
0x20000068  0x4        xNumOfOverflows                          volatile BaseType_t

address     size       variable name                            type
0x20000060  0x4        xPendedTicks                             volatile TickType_t

address     size       variable name                            type
0x20003f70  0x14       xPendingReadyList                        List_t
0x20003f70  0x4        xPendingReadyList.uxNumberOfItems        volatile UBaseType_t
0x20003f74  0x4        xPendingReadyList.pxIndex                pointer to ListItem_t
0x20003f78  0xc        xPendingReadyList.xListEnd               MiniListItem_t
0x20003f78  0x4        xPendingReadyList.xListEnd.xItemValue    TickType_t
0x20003f7c  0x4        xPendingReadyList.xListEnd.pxNext        pointer to xLIST_ITEM
0x20003f80  0x4        xPendingReadyList.xListEnd.pxPrevious    pointer to xLIST_ITEM

address     size       variable name                            type
0x2000005c  0x4        xSchedulerRunning                        volatile BaseType_t

address     size       variable name                            type
0x20003f98  0x14       xSuspendedTaskList                       List_t
0x20003f98  0x4        xSuspendedTaskList.uxNumberOfItems       volatile UBaseType_t
0x20003f9c  0x4        xSuspendedTaskList.pxIndex               pointer to ListItem_t
0x20003fa0  0xc        xSuspendedTaskList.xListEnd              MiniListItem_t
0x20003fa0  0x4        xSuspendedTaskList.xListEnd.xItemValue   TickType_t
0x20003fa4  0x4        xSuspendedTaskList.xListEnd.pxNext       pointer to xLIST_ITEM
0x20003fa8  0x4        xSuspendedTaskList.xListEnd.pxPrevious   pointer to xLIST_ITEM

address     size       variable name                            type
0x20003f84  0x14       xTasksWaitingTermination                 List_t
0x20003f84  0x4        xTasksWaitingTermination.uxNumberOfItems volatile UBaseType_t
0x20003f88  0x4        xTasksWaitingTermination.pxIndex         pointer to ListItem_t
0x20003f8c  0xc        xTasksWaitingTermination.xListEnd        MiniListItem_t
0x20003f8c  0x4        xTasksWaitingTermination.xListEnd.xItemValue TickType_t
0x20003f90  0x4        xTasksWaitingTermination.xListEnd.pxNext pointer to xLIST_ITEM
0x20003f94  0x4        xTasksWaitingTermination.xListEnd.pxPrevious pointer to xLIST_ITEM

address     size       variable name                            type
0x20000054  0x4        xTickCount                               volatile TickType_t

address     size       variable name                            type
0x20000064  0x4        xYieldPending                            volatile BaseType_t

address     size       variable name                            type
0x20000044  0x4        uxCriticalNesting                        UBaseType_t

address     size       variable name                            type
0x20000028  0x4        pxEnd                                    pointer to BlockLink_t

address     size       variable name                            type
0x200000c8  0x3c00     ucHeap                                   array[15360] of uint8_t

address     size       variable name                            type
0x2000002c  0x4        xFreeBytesRemaining                      size_t

address     size       variable name                            type
0x20000030  0x4        xMinimumEverFreeBytesRemaining           size_t

address     size       variable name                            type
0x20000034  0x4        xNumberOfSuccessfulAllocations           size_t

address     size       variable name                            type
0x20000038  0x4        xNumberOfSuccessfulFrees                 size_t

address     size       variable name                            type
0x2000003c  0x8        xStart                                   BlockLink_t
0x2000003c  0x4        xStart.pxNextFreeBlock                   pointer to A_BLOCK_LINK
0x20000040  0x4        xStart.xBlockSize                        size_t

address     size       variable name                            type
0x200000bc  0xc        sensorData                               SensorData_t
0x200000bc  0x4        sensorData.food                          uint32_t
0x200000c0  0x4        sensorData.water                         uint32_t
0x200000c4  0x4        sensorData.light                         uint32_t

address     size       variable name                            type
0x20000020  0x4        ORE_Flag                                 volatile int

address     size       variable name                            type
0x2000001c  0x4        Serial_rxFlag                            volatile int

address     size       variable name                            type
0x200000a8  0x14       USART_Buffer                             volatile RingBuffer_t
0x200000a8  0x4        USART_Buffer.bufferHead                  pointer to uint8_t
0x200000ac  0x4        USART_Buffer.bufferSize                  uint32_t
0x200000b0  0x4        USART_Buffer.dataSize                    volatile uint32_t
0x200000b4  0x4        USART_Buffer.readIndex                   volatile uint32_t
0x200000b8  0x4        USART_Buffer.writeIndex                  volatile uint32_t

address     size       variable name                            type
0x20000024  0x4        USART_Receive_Mutex                      volatile SemaphoreHandle_t

address     size       variable name                            type
0x20000014  0x4        g_fac_us                                 uint32_t

address     size       variable name                            type
0x20000000  0x4        ADCPrescTable                            array[4] of volatile const uint8_t

address     size       variable name                            type
0x20000004  0x10       APBAHBPrescTable                         array[16] of volatile const uint8_t

